
kernel:     file format elf32-littlearm

Disassembly of section .text:

a3000000 <_start>:
a3000000:	eaffffff 	b	a3000004 <main>

a3000004 <main>:
a3000004:	e92d4ef0 	stmdb	sp!, {r4, r5, r6, r7, r9, sl, fp, lr}
a3000008:	e3a04000 	mov	r4, #0	; 0x0
a300000c:	e24dd008 	sub	sp, sp, #8	; 0x8
a3000010:	e1a0a000 	mov	sl, r0
a3000014:	e59f0114 	ldr	r0, [pc, #276]	; a3000130 <.text+0x130>
a3000018:	e1a09001 	mov	r9, r1
a300001c:	eb0000ef 	bl	a30003e0 <puts>
a3000020:	e5947024 	ldr	r7, [r4, #36]
a3000024:	e59f0108 	ldr	r0, [pc, #264]	; a3000134 <.text+0x134>
a3000028:	e3a01024 	mov	r1, #36	; 0x24
a300002c:	e1a02007 	mov	r2, r7
a3000030:	eb0000ec 	bl	a30003e8 <printf>
a3000034:	e1a01007 	mov	r1, r7
a3000038:	e897000c 	ldmia	r7, {r2, r3}
a300003c:	e59f00f4 	ldr	r0, [pc, #244]	; a3000138 <.text+0x138>
a3000040:	eb0000e8 	bl	a30003e8 <printf>
a3000044:	e5973000 	ldr	r3, [r7]
a3000048:	e59f00ec 	ldr	r0, [pc, #236]	; a300013c <.text+0x13c>
a300004c:	e287b004 	add	fp, r7, #4	; 0x4
a3000050:	e58d3000 	str	r3, [sp]
a3000054:	e59f30e4 	ldr	r3, [pc, #228]	; a3000140 <.text+0x140>
a3000058:	e5873000 	str	r3, [r7]
a300005c:	e5973004 	ldr	r3, [r7, #4]
a3000060:	e58d3004 	str	r3, [sp, #4]
a3000064:	e59f30d8 	ldr	r3, [pc, #216]	; a3000144 <.text+0x144>
a3000068:	e5873004 	str	r3, [r7, #4]
a300006c:	eb0000db 	bl	a30003e0 <puts>
a3000070:	e5973004 	ldr	r3, [r7, #4]
a3000074:	e1a01007 	mov	r1, r7
a3000078:	e5972000 	ldr	r2, [r7]
a300007c:	e59f00b4 	ldr	r0, [pc, #180]	; a3000138 <.text+0x138>
a3000080:	eb0000d8 	bl	a30003e8 <printf>
a3000084:	e59f00bc 	ldr	r0, [pc, #188]	; a3000148 <.text+0x148>
a3000088:	eb0000d4 	bl	a30003e0 <puts>
a300008c:	e59f00b8 	ldr	r0, [pc, #184]	; a300014c <.text+0x14c>
a3000090:	eb0000d2 	bl	a30003e0 <puts>
a3000094:	e15a0004 	cmp	sl, r4
a3000098:	e3e0345d 	mvn	r3, #1560281088	; 0x5d000000
a300009c:	d28444a3 	addle	r4, r4, #-1560281088	; 0xa3000000
a30000a0:	e503a00b 	str	sl, [r3, #-11]
a30000a4:	d244400c 	suble	r4, r4, #12	; 0xc
a30000a8:	da000010 	ble	a30000f0 <main+0xec>
a30000ac:	e3a064a3 	mov	r6, #-1560281088	; 0xa3000000
a30000b0:	e1a05004 	mov	r5, r4
a30000b4:	e246600c 	sub	r6, r6, #12	; 0xc
a30000b8:	e7943009 	ldr	r3, [r4, r9]
a30000bc:	e2855001 	add	r5, r5, #1	; 0x1
a30000c0:	e2844004 	add	r4, r4, #4	; 0x4
a30000c4:	e1a00003 	mov	r0, r3
a30000c8:	e5263004 	str	r3, [r6, #-4]!
a30000cc:	eb0000c3 	bl	a30003e0 <puts>
a30000d0:	e59f0078 	ldr	r0, [pc, #120]	; a3000150 <.text+0x150>
a30000d4:	eb0000c1 	bl	a30003e0 <puts>
a30000d8:	e15a0005 	cmp	sl, r5
a30000dc:	1afffff5 	bne	a30000b8 <main+0xb4>
a30000e0:	e06a3f0a 	rsb	r3, sl, sl, lsl #30
a30000e4:	e1a03103 	mov	r3, r3, lsl #2
a30000e8:	e28344a3 	add	r4, r3, #-1560281088	; 0xa3000000
a30000ec:	e244400c 	sub	r4, r4, #12	; 0xc
a30000f0:	e59f105c 	ldr	r1, [pc, #92]	; a3000154 <.text+0x154>
a30000f4:	e59f005c 	ldr	r0, [pc, #92]	; a3000158 <.text+0x158>
a30000f8:	eb0000ba 	bl	a30003e8 <printf>
a30000fc:	e1a00004 	mov	r0, r4
a3000100:	eb000098 	bl	a3000368 <ENABLE_USER_PROG>
a3000104:	e59f0050 	ldr	r0, [pc, #80]	; a300015c <.text+0x15c>
a3000108:	eb0000b4 	bl	a30003e0 <puts>
a300010c:	e59d3000 	ldr	r3, [sp]
a3000110:	e59f0048 	ldr	r0, [pc, #72]	; a3000160 <.text+0x160>
a3000114:	e5873000 	str	r3, [r7]
a3000118:	e59d3004 	ldr	r3, [sp, #4]
a300011c:	e58b3000 	str	r3, [fp]
a3000120:	eb0000ae 	bl	a30003e0 <puts>
a3000124:	e3e000fe 	mvn	r0, #254	; 0xfe
a3000128:	e28dd008 	add	sp, sp, #8	; 0x8
a300012c:	e8bd8ef0 	ldmia	sp!, {r4, r5, r6, r7, r9, sl, fp, pc}
a3000130:	a3000460 	movwge	r0, #1120	; 0x460
a3000134:	a3000478 	movwge	r0, #1144	; 0x478
a3000138:	a3000498 	movwge	r0, #1176	; 0x498
a300013c:	a30004c8 	movwge	r0, #1224	; 0x4c8
a3000140:	e51ff004 	ldr	pc, [pc, #-4]	; a3000144 <.text+0x144>
a3000144:	a3000334 	movwge	r0, #820	; 0x334
a3000148:	a30004e0 	movwge	r0, #1248	; 0x4e0
a300014c:	a30004f8 	movwge	r0, #1272	; 0x4f8
a3000150:	a3000598 	movwge	r0, #1432	; 0x598
a3000154:	a3000368 	movwge	r0, #872	; 0x368
a3000158:	a3000518 	movwge	r0, #1304	; 0x518
a300015c:	a3000540 	movwge	r0, #1344	; 0x540
a3000160:	a3000558 	movwge	r0, #1368	; 0x558

a3000164 <write>:
a3000164:	e3500001 	cmp	r0, #1	; 0x1
a3000168:	e92d4070 	stmdb	sp!, {r4, r5, r6, lr}
a300016c:	e1a06002 	mov	r6, r2
a3000170:	1a000017 	bne	a30001d4 <write+0x70>
a3000174:	e3710107 	cmn	r1, #-1073741823	; 0xc0000001
a3000178:	c3a03000 	movgt	r3, #0	; 0x0
a300017c:	d3a03001 	movle	r3, #1	; 0x1
a3000180:	e35104a3 	cmp	r1, #-1560281088	; 0xa3000000
a3000184:	83833001 	orrhi	r3, r3, #1	; 0x1
a3000188:	e3530000 	cmp	r3, #0	; 0x0
a300018c:	1a00000e 	bne	a30001cc <write+0x68>
a3000190:	e0811002 	add	r1, r1, r2
a3000194:	e35104a3 	cmp	r1, #-1560281088	; 0xa3000000
a3000198:	8a00000b 	bhi	a30001cc <write+0x68>
a300019c:	e3710107 	cmn	r1, #-1073741823	; 0xc0000001
a30001a0:	9a000009 	bls	a30001cc <write+0x68>
a30001a4:	e3520000 	cmp	r2, #0	; 0x0
a30001a8:	0a000005 	beq	a30001c4 <write+0x60>
a30001ac:	e1a05001 	mov	r5, r1
a30001b0:	e1a04002 	mov	r4, r2
a30001b4:	e4550001 	ldrb	r0, [r5], #-1
a30001b8:	eb000086 	bl	a30003d8 <putc>
a30001bc:	e2544001 	subs	r4, r4, #1	; 0x1
a30001c0:	1afffffb 	bne	a30001b4 <write+0x50>
a30001c4:	e1a00006 	mov	r0, r6
a30001c8:	e8bd8070 	ldmia	sp!, {r4, r5, r6, pc}
a30001cc:	e3a0000e 	mov	r0, #14	; 0xe
a30001d0:	e8bd8070 	ldmia	sp!, {r4, r5, r6, pc}
a30001d4:	e3a00009 	mov	r0, #9	; 0x9
a30001d8:	e8bd8070 	ldmia	sp!, {r4, r5, r6, pc}

a30001dc <read>:
a30001dc:	e3500000 	cmp	r0, #0	; 0x0
a30001e0:	e92d4070 	stmdb	sp!, {r4, r5, r6, lr}
a30001e4:	e1a05001 	mov	r5, r1
a30001e8:	e1a06002 	mov	r6, r2
a30001ec:	13a04009 	movne	r4, #9	; 0x9
a30001f0:	1a000021 	bne	a300027c <read+0xa0>
a30001f4:	e3710107 	cmn	r1, #-1073741823	; 0xc0000001
a30001f8:	c3a03000 	movgt	r3, #0	; 0x0
a30001fc:	d3a03001 	movle	r3, #1	; 0x1
a3000200:	e35104a3 	cmp	r1, #-1560281088	; 0xa3000000
a3000204:	91a00003 	movls	r0, r3
a3000208:	83830001 	orrhi	r0, r3, #1	; 0x1
a300020c:	e3500000 	cmp	r0, #0	; 0x0
a3000210:	1a00001f 	bne	a3000294 <read+0xb8>
a3000214:	e0813002 	add	r3, r1, r2
a3000218:	e35304a3 	cmp	r3, #-1560281088	; 0xa3000000
a300021c:	8a00001c 	bhi	a3000294 <read+0xb8>
a3000220:	e3730107 	cmn	r3, #-1073741823	; 0xc0000001
a3000224:	81a04000 	movhi	r4, r0
a3000228:	9a000019 	bls	a3000294 <read+0xb8>
a300022c:	e1560004 	cmp	r6, r4
a3000230:	9a000011 	bls	a300027c <read+0xa0>
a3000234:	eb000063 	bl	a30003c8 <getc>
a3000238:	e1a03000 	mov	r3, r0
a300023c:	e20330ff 	and	r3, r3, #255	; 0xff
a3000240:	e3530004 	cmp	r3, #4	; 0x4
a3000244:	e59f006c 	ldr	r0, [pc, #108]	; a30002b8 <.text+0x2b8>
a3000248:	0a00000b 	beq	a300027c <read+0xa0>
a300024c:	e353007f 	cmp	r3, #127	; 0x7f
a3000250:	13530008 	cmpne	r3, #8	; 0x8
a3000254:	0a00000a 	beq	a3000284 <read+0xa8>
a3000258:	e353000d 	cmp	r3, #13	; 0xd
a300025c:	1353000a 	cmpne	r3, #10	; 0xa
a3000260:	e1a00003 	mov	r0, r3
a3000264:	0a00000d 	beq	a30002a0 <read+0xc4>
a3000268:	e7c53004 	strb	r3, [r5, r4]
a300026c:	e2844001 	add	r4, r4, #1	; 0x1
a3000270:	eb000058 	bl	a30003d8 <putc>
a3000274:	e1560004 	cmp	r6, r4
a3000278:	8affffed 	bhi	a3000234 <read+0x58>
a300027c:	e1a00004 	mov	r0, r4
a3000280:	e8bd8070 	ldmia	sp!, {r4, r5, r6, pc}
a3000284:	e3a03000 	mov	r3, #0	; 0x0
a3000288:	e7c53004 	strb	r3, [r5, r4]
a300028c:	eb000053 	bl	a30003e0 <puts>
a3000290:	eaffffe5 	b	a300022c <read+0x50>
a3000294:	e3a0400e 	mov	r4, #14	; 0xe
a3000298:	e1a00004 	mov	r0, r4
a300029c:	e8bd8070 	ldmia	sp!, {r4, r5, r6, pc}
a30002a0:	e3a0000a 	mov	r0, #10	; 0xa
a30002a4:	e7c50004 	strb	r0, [r5, r4]
a30002a8:	eb00004a 	bl	a30003d8 <putc>
a30002ac:	e2844001 	add	r4, r4, #1	; 0x1
a30002b0:	e1a00004 	mov	r0, r4
a30002b4:	e8bd8070 	ldmia	sp!, {r4, r5, r6, pc}
a30002b8:	a3000570 	movwge	r0, #1392	; 0x570

a30002bc <exit>:
a30002bc:	e59f0000 	ldr	r0, [pc, #0]	; a30002c4 <.text+0x2c4>
a30002c0:	ea000048 	b	a30003e8 <printf>
a30002c4:	a3000578 	movwge	r0, #1400	; 0x578

a30002c8 <C_SWI_handler>:
a30002c8:	e3500003 	cmp	r0, #3	; 0x3
a30002cc:	e52de004 	str	lr, [sp, #-4]!
a30002d0:	e1a03000 	mov	r3, r0
a30002d4:	0a00000a 	beq	a3000304 <C_SWI_handler+0x3c>
a30002d8:	e3500004 	cmp	r0, #4	; 0x4
a30002dc:	0a00000b 	beq	a3000310 <C_SWI_handler+0x48>
a30002e0:	e3530001 	cmp	r3, #1	; 0x1
a30002e4:	e59f003c 	ldr	r0, [pc, #60]	; a3000328 <.text+0x328>
a30002e8:	0a00000b 	beq	a300031c <C_SWI_handler+0x54>
a30002ec:	eb00003b 	bl	a30003e0 <puts>
a30002f0:	e59f0034 	ldr	r0, [pc, #52]	; a300032c <.text+0x32c>
a30002f4:	ebfffff0 	bl	a30002bc <exit>
a30002f8:	e59f0030 	ldr	r0, [pc, #48]	; a3000330 <.text+0x330>
a30002fc:	e49de004 	ldr	lr, [sp], #4
a3000300:	ea000036 	b	a30003e0 <puts>
a3000304:	e8910007 	ldmia	r1, {r0, r1, r2}
a3000308:	ebffffb3 	bl	a30001dc <read>
a300030c:	eafffff9 	b	a30002f8 <C_SWI_handler+0x30>
a3000310:	e8910007 	ldmia	r1, {r0, r1, r2}
a3000314:	ebffff92 	bl	a3000164 <write>
a3000318:	eafffff6 	b	a30002f8 <C_SWI_handler+0x30>
a300031c:	e5910000 	ldr	r0, [r1]
a3000320:	ebffffe5 	bl	a30002bc <exit>
a3000324:	eafffff3 	b	a30002f8 <C_SWI_handler+0x30>
a3000328:	a3000580 	movwge	r0, #1408	; 0x580
a300032c:	0badc0de 	bleq	a1b706ac <_start-0x148f954>
a3000330:	a30005a0 	movwge	r0, #1440	; 0x5a0

a3000334 <S_HANDLER>:
a3000334:	e24dd004 	sub	sp, sp, #4	; 0x4
a3000338:	e92d5fff 	stmdb	sp!, {r0, r1, r2, r3, r4, r5, r6, r7, r8, r9, sl, fp, ip, lr}
a300033c:	e14f2000 	mrs	r2, SPSR
a3000340:	e58d2038 	str	r2, [sp, #56]
a3000344:	e1a0100d 	mov	r1, sp
a3000348:	e51e0004 	ldr	r0, [lr, #-4]
a300034c:	e3c004ff 	bic	r0, r0, #-16777216	; 0xff000000
a3000350:	ebffffdc 	bl	a30002c8 <C_SWI_handler>
a3000354:	e59d2038 	ldr	r2, [sp, #56]
a3000358:	e169f002 	msr	SPSR_fc, r2
a300035c:	e8bd5fff 	ldmia	sp!, {r0, r1, r2, r3, r4, r5, r6, r7, r8, r9, sl, fp, ip, lr}
a3000360:	e28dd004 	add	sp, sp, #4	; 0x4
a3000364:	e1b0f00e 	movs	pc, lr

a3000368 <ENABLE_USER_PROG>:
a3000368:	e92d5fff 	stmdb	sp!, {r0, r1, r2, r3, r4, r5, r6, r7, r8, r9, sl, fp, ip, lr}
a300036c:	e3a014a3 	mov	r1, #-1560281088	; 0xa3000000
a3000370:	e2411004 	sub	r1, r1, #4	; 0x4
a3000374:	e581d000 	str	sp, [r1]
a3000378:	e2411004 	sub	r1, r1, #4	; 0x4
a300037c:	e28f200c 	add	r2, pc, #12	; 0xc
a3000380:	e5812000 	str	r2, [r1]
a3000384:	e329f0d0 	msr	CPSR_fc, #208	; 0xd0
a3000388:	e1a0d000 	mov	sp, r0
a300038c:	e3a0f4a2 	mov	pc, #-1577058304	; 0xa2000000

a3000390 <ret>:
a3000390:	e3a014a3 	mov	r1, #-1560281088	; 0xa3000000
a3000394:	e2411004 	sub	r1, r1, #4	; 0x4
a3000398:	e591d000 	ldr	sp, [r1]
a300039c:	e8bd5fff 	ldmia	sp!, {r0, r1, r2, r3, r4, r5, r6, r7, r8, r9, sl, fp, ip, lr}
a30003a0:	e1a0f00e 	mov	pc, lr

a30003a4 <_hello>:
a30003a4:	e3a00001 	mov	r0, #1	; 0x1
a30003a8:	e59f100c 	ldr	r1, [pc, #12]	; a30003bc <phello_str>
a30003ac:	e3a0200d 	mov	r2, #13	; 0xd
a30003b0:	ef900004 	svc	0x00900004
a30003b4:	e3a00000 	mov	r0, #0	; 0x0
a30003b8:	ef900001 	svc	0x00900001

a30003bc <phello_str>:
a30003bc:	a30005b8 	movwge	r0, #1464	; 0x5b8

a30003c0 <dummy>:
a30003c0:	e598c020 	ldr	ip, [r8, #32]
a30003c4:	e59cf000 	ldr	pc, [ip]

a30003c8 <getc>:
a30003c8:	e598c020 	ldr	ip, [r8, #32]
a30003cc:	e59cf004 	ldr	pc, [ip, #4]

a30003d0 <tstc>:
a30003d0:	e598c020 	ldr	ip, [r8, #32]
a30003d4:	e59cf008 	ldr	pc, [ip, #8]

a30003d8 <putc>:
a30003d8:	e598c020 	ldr	ip, [r8, #32]
a30003dc:	e59cf00c 	ldr	pc, [ip, #12]

a30003e0 <puts>:
a30003e0:	e598c020 	ldr	ip, [r8, #32]
a30003e4:	e59cf010 	ldr	pc, [ip, #16]

a30003e8 <printf>:
a30003e8:	e598c020 	ldr	ip, [r8, #32]
a30003ec:	e59cf014 	ldr	pc, [ip, #20]

a30003f0 <install_hdlr>:
a30003f0:	e598c020 	ldr	ip, [r8, #32]
a30003f4:	e59cf018 	ldr	pc, [ip, #24]

a30003f8 <free_hdlr>:
a30003f8:	e598c020 	ldr	ip, [r8, #32]
a30003fc:	e59cf01c 	ldr	pc, [ip, #28]

a3000400 <malloc>:
a3000400:	e598c020 	ldr	ip, [r8, #32]
a3000404:	e59cf020 	ldr	pc, [ip, #32]

a3000408 <free>:
a3000408:	e598c020 	ldr	ip, [r8, #32]
a300040c:	e59cf024 	ldr	pc, [ip, #36]

a3000410 <udelay>:
a3000410:	e598c020 	ldr	ip, [r8, #32]
a3000414:	e59cf028 	ldr	pc, [ip, #40]

a3000418 <get_timer>:
a3000418:	e598c020 	ldr	ip, [r8, #32]
a300041c:	e59cf02c 	ldr	pc, [ip, #44]

a3000420 <vprintf>:
a3000420:	e598c020 	ldr	ip, [r8, #32]
a3000424:	e59cf030 	ldr	pc, [ip, #48]

a3000428 <do_reset>:
a3000428:	e598c020 	ldr	ip, [r8, #32]
a300042c:	e59cf034 	ldr	pc, [ip, #52]
a3000430:	e12fff1e 	bx	lr

a3000434 <app_startup>:
a3000434:	e59f301c 	ldr	r3, [pc, #28]	; a3000458 <.text+0x458>
a3000438:	e59f101c 	ldr	r1, [pc, #28]	; a300045c <.text+0x45c>
a300043c:	e1530001 	cmp	r3, r1
a3000440:	212fff1e 	bxcs	lr
a3000444:	e3a02000 	mov	r2, #0	; 0x0
a3000448:	e4832004 	str	r2, [r3], #4
a300044c:	e1530001 	cmp	r3, r1
a3000450:	3afffffc 	bcc	a3000448 <app_startup+0x14>
a3000454:	e12fff1e 	bx	lr
a3000458:	a30005c5 	movwge	r0, #1477	; 0x5c5
a300045c:	a30005c8 	movwge	r0, #1480	; 0x5c8
Disassembly of section .rodata:

a3000460 <hello_str-0x158>:
a3000460:	72617453 	rsbvc	r7, r1, #1392508928	; 0x53000000
a3000464:	676e6974 	undefined
a3000468:	65745320 	ldrvsb	r5, [r4, #-800]!
a300046c:	0a312070 	beq	a3c48634 <__end__+0xc4806c>
	...
a3000478:	706d756a 	rsbvc	r7, sp, sl, ror #10
a300047c:	6261745f 	rsbvs	r7, r1, #1593835520	; 0x5f000000
a3000480:	2078253d 	rsbcss	r2, r8, sp, lsr r5
a3000484:	706d756a 	rsbvc	r7, sp, sl, ror #10
a3000488:	6261745f 	rsbvs	r7, r1, #1593835520	; 0x5f000000
a300048c:	78253d2a 	stmvcda	r5!, {r1, r3, r5, r8, sl, fp, ip, sp}
a3000490:	0000000a 	andeq	r0, r0, sl
a3000494:	00000000 	andeq	r0, r0, r0
a3000498:	61685f73 	smcvs	34291
a300049c:	656c646e 	strvsb	r6, [ip, #-1134]!
a30004a0:	78253d72 	stmvcda	r5!, {r1, r4, r5, r6, r8, sl, fp, ip, sp}
a30004a4:	685f7320 	ldmvsda	pc, {r5, r8, r9, ip, sp, lr}^
a30004a8:	6c646e61 	stcvsl	14, cr6, [r4], #-388
a30004ac:	3d2a7265 	sfmcc	f7, 4, [sl, #-404]!
a30004b0:	73207825 	teqvc	r0, #2424832	; 0x250000
a30004b4:	6e61685f 	mcrvs	8, 3, r6, cr1, cr15, {2}
a30004b8:	72656c64 	rsbvc	r6, r5, #25600	; 0x6400
a30004bc:	253d2a2a 	ldrcs	r2, [sp, #-2602]!
a30004c0:	00000a78 	andeq	r0, r0, r8, ror sl
a30004c4:	00000000 	andeq	r0, r0, r0
a30004c8:	646e6148 	strvsbt	r6, [lr], #-328
a30004cc:	2072656c 	rsbcss	r6, r2, ip, ror #10
a30004d0:	74736e49 	ldrvcbt	r6, [r3], #-3657
a30004d4:	656c6c61 	strvsb	r6, [ip, #-3169]!
a30004d8:	2e2e2e64 	cdpcs	14, 2, cr2, cr14, cr4, {3}
a30004dc:	0000000a 	andeq	r0, r0, sl
a30004e0:	72617453 	rsbvc	r7, r1, #1392508928	; 0x53000000
a30004e4:	676e6974 	undefined
a30004e8:	65745320 	ldrvsb	r5, [r4, #-800]!
a30004ec:	0a322070 	beq	a3c886b4 <__end__+0xc880ec>
	...
a30004f8:	74746553 	ldrvcbt	r6, [r4], #-1363
a30004fc:	20676e69 	rsbcs	r6, r7, r9, ror #28
a3000500:	74207075 	strvct	r7, [r0], #-117
a3000504:	73206568 	teqvc	r0, #436207616	; 0x1a000000
a3000508:	6b636174 	blvs	a48d8ae0 <__end__+0x18d8518>
a300050c:	0a2e2e2e 	beq	a3b8bdcc <__end__+0xb8b804>
	...
a3000518:	6c6c6143 	stfvse	f6, [ip], #-268
a300051c:	20676e69 	rsbcs	r6, r7, r9, ror #28
a3000520:	42414e45 	submi	r4, r1, #1104	; 0x450
a3000524:	555f454c 	ldrplb	r4, [pc, #-1356]	; a2ffffe0 <_start-0x20>
a3000528:	5f524553 	svcpl	0x00524553
a300052c:	474f5250 	smlsldmi	r5, pc, r0, r2
a3000530:	61202928 	teqvs	r0, r8, lsr #18
a3000534:	78252074 	stmvcda	r5!, {r2, r4, r5, r6, sp}
a3000538:	0000000a 	andeq	r0, r0, sl
a300053c:	00000000 	andeq	r0, r0, r0
a3000540:	74532b2b 	ldrvcb	r2, [r3], #-2859
a3000544:	69747261 	ldmvsdb	r4!, {r0, r5, r6, r9, ip, sp, lr}^
a3000548:	6520676e 	strvs	r6, [r0, #-1902]!
a300054c:	20746978 	rsbcss	r6, r4, r8, ror r9
a3000550:	70657473 	rsbvc	r7, r5, r3, ror r4
a3000554:	00000073 	andeq	r0, r0, r3, ror r0
a3000558:	78452d2d 	stmvcda	r5, {r0, r2, r3, r5, r8, sl, fp, sp}^
a300055c:	73207469 	teqvc	r0, #1761607680	; 0x69000000
a3000560:	73706574 	cmnvc	r0, #486539264	; 0x1d000000
a3000564:	6d6f6320 	stcvsl	3, cr6, [pc, #-128]!
a3000568:	74656c70 	strvcbt	r6, [r5], #-3184
a300056c:	00000065 	andeq	r0, r0, r5, rrx
a3000570:	00082008 	andeq	r2, r8, r8
a3000574:	00000000 	andeq	r0, r0, r0
a3000578:	74697865 	strvcbt	r7, [r9], #-2149
a300057c:	0000000a 	andeq	r0, r0, sl
a3000580:	61766e49 	cmnvs	r6, r9, asr #28
a3000584:	2064696c 	rsbcs	r6, r4, ip, ror #18
a3000588:	63737973 	cmnvs	r3, #1884160	; 0x1cc000
a300058c:	206c6c61 	rsbcs	r6, ip, r1, ror #24
a3000590:	69636572 	stmvsdb	r3!, {r1, r4, r5, r6, r8, sl, sp, lr}^
a3000594:	64657665 	strvsbt	r7, [r5], #-1637
a3000598:	0000000a 	andeq	r0, r0, sl
a300059c:	00000000 	andeq	r0, r0, r0
a30005a0:	61206557 	teqvs	r0, r7, asr r5
a30005a4:	48206572 	stmmida	r0!, {r1, r4, r5, r6, r8, sl, sp, lr}
a30005a8:	6c646e61 	stcvsl	14, cr6, [r4], #-388
a30005ac:	20676e69 	rsbcs	r6, r7, r9, ror #28
a30005b0:	74696873 	strvcbt	r6, [r9], #-2163
a30005b4:	0000000a 	andeq	r0, r0, sl

a30005b8 <hello_str>:
a30005b8:	6c6c6548 	cfstr64vs	mvdx6, [ip], #-288
a30005bc:	6f57206f 	svcvs	0x0057206f
a30005c0:	21646c72 	smccs	18114
a30005c4:	Address 0xa30005c4 is out of bounds.

Disassembly of section .comment:

00000000 <.comment>:
   0:	43434700 	movtmi	r4, #14080	; 0x3700
   4:	4728203a 	undefined
   8:	2029554e 	eorcs	r5, r9, lr, asr #10
   c:	2e312e34 	mrccs	14, 1, r2, cr1, cr4, {1}
  10:	47000031 	smladxmi	r0, r1, r0, r0
  14:	203a4343 	eorcss	r4, sl, r3, asr #6
  18:	554e4728 	strplb	r4, [lr, #-1832]
  1c:	2e342029 	cdpcs	0, 3, cr2, cr4, cr9, {1}
  20:	00312e31 	eoreqs	r2, r1, r1, lsr lr
  24:	43434700 	movtmi	r4, #14080	; 0x3700
  28:	4728203a 	undefined
  2c:	2029554e 	eorcs	r5, r9, lr, asr #10
  30:	2e312e34 	mrccs	14, 1, r2, cr1, cr4, {1}
  34:	Address 0x00000034 is out of bounds.

