
rot13:     file format elf32-littlearm

Disassembly of section .text:

a0000000 <_start>:
a0000000:	e8bd0001 	ldmia	sp!, {r0}
a0000004:	e1a0100d 	mov	r1, sp

a0000008 <done_args>:
a0000008:	eb000019 	bl	a0000074 <main>
a000000c:	ef900001 	svc	0x00900001

a0000010 <rotate>:
a0000010:	e92d4010 	stmdb	sp!, {r4, lr}
a0000014:	e20040ff 	and	r4, r0, #255	; 0xff
a0000018:	e59f0050 	ldr	r0, [pc, #80]	; a0000070 <.text+0x70>
a000001c:	eb00006b 	bl	a00001d0 <puts>
a0000020:	e2443041 	sub	r3, r4, #65	; 0x41
a0000024:	e3530039 	cmp	r3, #57	; 0x39
a0000028:	8a00000e 	bhi	a0000068 <rotate+0x58>
a000002c:	e244305b 	sub	r3, r4, #91	; 0x5b
a0000030:	e3530005 	cmp	r3, #5	; 0x5
a0000034:	9a00000b 	bls	a0000068 <rotate+0x58>
a0000038:	e354004d 	cmp	r4, #77	; 0x4d
a000003c:	da000006 	ble	a000005c <rotate+0x4c>
a0000040:	e2443061 	sub	r3, r4, #97	; 0x61
a0000044:	e353000c 	cmp	r3, #12	; 0xc
a0000048:	8244300d 	subhi	r3, r4, #13	; 0xd
a000004c:	9284300d 	addls	r3, r4, #13	; 0xd
a0000050:	820300ff 	andhi	r0, r3, #255	; 0xff
a0000054:	920300ff 	andls	r0, r3, #255	; 0xff
a0000058:	e8bd8010 	ldmia	sp!, {r4, pc}
a000005c:	e284300d 	add	r3, r4, #13	; 0xd
a0000060:	e20300ff 	and	r0, r3, #255	; 0xff
a0000064:	e8bd8010 	ldmia	sp!, {r4, pc}
a0000068:	e3a00001 	mov	r0, #1	; 0x1
a000006c:	eb00003c 	bl	a0000164 <exit>
a0000070:	a0000228 	andge	r0, r0, r8, lsr #4

a0000074 <main>:
a0000074:	e92d41f0 	stmdb	sp!, {r4, r5, r6, r7, r8, lr}
a0000078:	e59f00d0 	ldr	r0, [pc, #208]	; a0000150 <.text+0x150>
a000007c:	e24dd080 	sub	sp, sp, #128	; 0x80
a0000080:	eb000052 	bl	a00001d0 <puts>
a0000084:	e1a0600d 	mov	r6, sp
a0000088:	e59f00c4 	ldr	r0, [pc, #196]	; a0000154 <.text+0x154>
a000008c:	eb00004f 	bl	a00001d0 <puts>
a0000090:	e1a0100d 	mov	r1, sp
a0000094:	e3a02080 	mov	r2, #128	; 0x80
a0000098:	e3a00000 	mov	r0, #0	; 0x0
a000009c:	eb000031 	bl	a0000168 <read>
a00000a0:	e1a08000 	mov	r8, r0
a00000a4:	e59f00ac 	ldr	r0, [pc, #172]	; a0000158 <.text+0x158>
a00000a8:	eb000048 	bl	a00001d0 <puts>
a00000ac:	e3580000 	cmp	r8, #0	; 0x0
a00000b0:	0a000024 	beq	a0000148 <main+0xd4>
a00000b4:	ba000021 	blt	a0000140 <main+0xcc>
a00000b8:	e59f009c 	ldr	r0, [pc, #156]	; a000015c <.text+0x15c>
a00000bc:	e2487001 	sub	r7, r8, #1	; 0x1
a00000c0:	eb000042 	bl	a00001d0 <puts>
a00000c4:	e3570000 	cmp	r7, #0	; 0x0
a00000c8:	da000016 	ble	a0000128 <main+0xb4>
a00000cc:	e3a05000 	mov	r5, #0	; 0x0
a00000d0:	e7d54006 	ldrb	r4, [r5, r6]
a00000d4:	e59f0084 	ldr	r0, [pc, #132]	; a0000160 <.text+0x160>
a00000d8:	eb00003c 	bl	a00001d0 <puts>
a00000dc:	e2443041 	sub	r3, r4, #65	; 0x41
a00000e0:	e3530039 	cmp	r3, #57	; 0x39
a00000e4:	8a000015 	bhi	a0000140 <main+0xcc>
a00000e8:	e244305b 	sub	r3, r4, #91	; 0x5b
a00000ec:	e3530005 	cmp	r3, #5	; 0x5
a00000f0:	9a000012 	bls	a0000140 <main+0xcc>
a00000f4:	e354004d 	cmp	r4, #77	; 0x4d
a00000f8:	da000004 	ble	a0000110 <main+0x9c>
a00000fc:	e2443061 	sub	r3, r4, #97	; 0x61
a0000100:	e353000c 	cmp	r3, #12	; 0xc
a0000104:	8244300d 	subhi	r3, r4, #13	; 0xd
a0000108:	820330ff 	andhi	r3, r3, #255	; 0xff
a000010c:	8a000001 	bhi	a0000118 <main+0xa4>
a0000110:	e284300d 	add	r3, r4, #13	; 0xd
a0000114:	e20330ff 	and	r3, r3, #255	; 0xff
a0000118:	e7c53006 	strb	r3, [r5, r6]
a000011c:	e2855001 	add	r5, r5, #1	; 0x1
a0000120:	e1570005 	cmp	r7, r5
a0000124:	1affffe9 	bne	a00000d0 <main+0x5c>
a0000128:	e1a02008 	mov	r2, r8
a000012c:	e3a00001 	mov	r0, #1	; 0x1
a0000130:	e1a0100d 	mov	r1, sp
a0000134:	eb000019 	bl	a00001a0 <write>
a0000138:	e3500000 	cmp	r0, #0	; 0x0
a000013c:	aaffffd1 	bge	a0000088 <main+0x14>
a0000140:	e3a00001 	mov	r0, #1	; 0x1
a0000144:	eb000006 	bl	a0000164 <exit>
a0000148:	e1a00008 	mov	r0, r8
a000014c:	eb000004 	bl	a0000164 <exit>
a0000150:	a0000258 	andge	r0, r0, r8, asr r2
a0000154:	a0000270 	andge	r0, r0, r0, ror r2
a0000158:	a0000288 	andge	r0, r0, r8, lsl #5
a000015c:	a00002b8 	strgeh	r0, [r0], -r8
a0000160:	a0000228 	andge	r0, r0, r8, lsr #4

a0000164 <exit>:
a0000164:	ef900001 	svc	0x00900001

a0000168 <read>:
a0000168:	e92d5ff0 	stmdb	sp!, {r4, r5, r6, r7, r8, r9, sl, fp, ip, lr}
a000016c:	ef900003 	svc	0x00900003
a0000170:	e3500000 	cmp	r0, #0	; 0x0
a0000174:	5a000004 	bpl	a000018c <no_error>
a0000178:	e1a04000 	mov	r4, r0
a000017c:	e3e00000 	mvn	r0, #0	; 0x0
a0000180:	e2244102 	eor	r4, r4, #-2147483648	; 0x80000000
a0000184:	e59f500c 	ldr	r5, [pc, #12]	; a0000198 <.text+0x198>
a0000188:	e5854000 	str	r4, [r5]

a000018c <no_error>:
a000018c:	e8bd5ff0 	ldmia	sp!, {r4, r5, r6, r7, r8, r9, sl, fp, ip, lr}
a0000190:	e59ff004 	ldr	pc, [pc, #4]	; a000019c <.text+0x19c>
a0000194:	e1a0f00e 	mov	pc, lr
a0000198:	a00002e0 	andge	r0, r0, r0, ror #5
a000019c:	deadbeef 	cdple	14, 10, cr11, cr13, cr15, {7}

a00001a0 <write>:
a00001a0:	e92d5ff0 	stmdb	sp!, {r4, r5, r6, r7, r8, r9, sl, fp, ip, lr}
a00001a4:	ef900004 	svc	0x00900004
a00001a8:	e3500000 	cmp	r0, #0	; 0x0
a00001ac:	5a000004 	bpl	a00001c4 <no_error>
a00001b0:	e1a04000 	mov	r4, r0
a00001b4:	e3e00000 	mvn	r0, #0	; 0x0
a00001b8:	e2244102 	eor	r4, r4, #-2147483648	; 0x80000000
a00001bc:	e59f5008 	ldr	r5, [pc, #8]	; a00001cc <.text+0x1cc>
a00001c0:	e5854000 	str	r4, [r5]

a00001c4 <no_error>:
a00001c4:	e8bd5ff0 	ldmia	sp!, {r4, r5, r6, r7, r8, r9, sl, fp, ip, lr}
a00001c8:	e1a0f00e 	mov	pc, lr
a00001cc:	a00002e0 	andge	r0, r0, r0, ror #5

a00001d0 <puts>:
a00001d0:	e92d4010 	stmdb	sp!, {r4, lr}
a00001d4:	e1a04000 	mov	r4, r0
a00001d8:	eb00000a 	bl	a0000208 <strlen>
a00001dc:	e1a01004 	mov	r1, r4
a00001e0:	e1a02000 	mov	r2, r0
a00001e4:	e3a00001 	mov	r0, #1	; 0x1
a00001e8:	ebffffec 	bl	a00001a0 <write>
a00001ec:	e3a00001 	mov	r0, #1	; 0x1
a00001f0:	e59f100c 	ldr	r1, [pc, #12]	; a0000204 <.text+0x204>
a00001f4:	e1a02000 	mov	r2, r0
a00001f8:	ebffffe8 	bl	a00001a0 <write>
a00001fc:	e3a00000 	mov	r0, #0	; 0x0
a0000200:	e8bd8010 	ldmia	sp!, {r4, pc}
a0000204:	a0000250 	andge	r0, r0, r0, asr r2

a0000208 <strlen>:
a0000208:	e1a02000 	mov	r2, r0
a000020c:	e4d03001 	ldrb	r3, [r0], #1
a0000210:	e3530000 	cmp	r3, #0	; 0x0
a0000214:	1afffffc 	bne	a000020c <strlen+0x4>
a0000218:	e0620000 	rsb	r0, r2, r0
a000021c:	e2400001 	sub	r0, r0, #1	; 0x1
a0000220:	e12fff1e 	bx	lr
Disassembly of section .rodata:

a0000228 <__data_start-0xb8>:
a0000228:	55424544 	strplb	r4, [r2, #-1348]
a000022c:	723a3a47 	eorvcs	r3, sl, #290816	; 0x47000
a0000230:	3331746f 	teqcc	r1, #1862270976	; 0x6f000000
a0000234:	6f722d2d 	svcvs	0x00722d2d
a0000238:	69746174 	ldmvsdb	r4!, {r2, r4, r5, r6, r8, sp, lr}^
a000023c:	7320676e 	teqvc	r0, #28835840	; 0x1b80000
a0000240:	61746968 	cmnvs	r4, r8, ror #18
a0000244:	6d20656b 	cfstr32vs	mvfx6, [r0, #-428]!
a0000248:	72687375 	rsbvc	r7, r8, #-738197503	; 0xd4000001
a000024c:	736d6f6f 	cmnvc	sp, #444	; 0x1bc
a0000250:	0000000a 	andeq	r0, r0, sl
a0000254:	00000000 	andeq	r0, r0, r0
a0000258:	31746f72 	cmncc	r4, r2, ror pc
a000025c:	3a632e33 	bcc	a18cbb30 <__bss_end__+0x18cb84c>
a0000260:	69616d3a 	stmvsdb	r1!, {r1, r3, r4, r5, r8, sl, fp, sp, lr}^
a0000264:	0a2b2b6e 	beq	a0acb024 <__bss_end__+0xacad40>
	...
a0000270:	31746f72 	cmncc	r4, r2, ror pc
a0000274:	3a632e33 	bcc	a18cbb48 <__bss_end__+0x18cb864>
a0000278:	69616d3a 	stmvsdb	r1!, {r1, r3, r4, r5, r8, sl, fp, sp, lr}^
a000027c:	6c3a3a6e 	ldcvs	10, cr3, [sl], #-440
a0000280:	2b706f6f 	blcs	a1c1c044 <__bss_end__+0x1c1bd60>
a0000284:	00000a2b 	andeq	r0, r0, fp, lsr #20
a0000288:	31746f72 	cmncc	r4, r2, ror pc
a000028c:	3a632e33 	bcc	a18cbb60 <__bss_end__+0x18cb87c>
a0000290:	69616d3a 	stmvsdb	r1!, {r1, r3, r4, r5, r8, sl, fp, sp, lr}^
a0000294:	6c3a3a6e 	ldcvs	10, cr3, [sl], #-440
a0000298:	3a706f6f 	bcc	a1c1c05c <__bss_end__+0x1c1bd78>
a000029c:	6165723a 	cmnvs	r5, sl, lsr r2
a00002a0:	79732064 	ldmvcdb	r3!, {r2, r5, r6, sp}^
a00002a4:	6c616373 	stcvsl	3, cr6, [r1], #-460
a00002a8:	6f63206c 	svcvs	0x0063206c
a00002ac:	656c706d 	strvsb	r7, [ip, #-109]!
a00002b0:	000a6574 	andeq	r6, sl, r4, ror r5
a00002b4:	00000000 	andeq	r0, r0, r0
a00002b8:	55424544 	strplb	r4, [r2, #-1348]
a00002bc:	723a3a47 	eorvcs	r3, sl, #290816	; 0x47000
a00002c0:	3331746f 	teqcc	r1, #1862270976	; 0x6f000000
a00002c4:	66612d2d 	strvsbt	r2, [r1], -sp, lsr #26
a00002c8:	20726574 	rsbcss	r6, r2, r4, ror r5
a00002cc:	74697865 	strvcbt	r7, [r9], #-2149
a00002d0:	65686320 	strvsb	r6, [r8, #-800]!
a00002d4:	69206b63 	stmvsdb	r0!, {r0, r1, r5, r6, r8, r9, fp, sp, lr}
a00002d8:	6f6c206e 	svcvs	0x006c206e
a00002dc:	000a706f 	andeq	r7, sl, pc, rrx
Disassembly of section .bss:

a00002e0 <errno>:
a00002e0:	00000000 	andeq	r0, r0, r0
Disassembly of section .comment:

00000000 <.comment>:
   0:	43434700 	movtmi	r4, #14080	; 0x3700
   4:	4728203a 	undefined
   8:	2029554e 	eorcs	r5, r9, lr, asr #10
   c:	2e312e34 	mrccs	14, 1, r2, cr1, cr4, {1}
  10:	47000031 	smladxmi	r0, r1, r0, r0
  14:	203a4343 	eorcss	r4, sl, r3, asr #6
  18:	554e4728 	strplb	r4, [lr, #-1832]
  1c:	2e342029 	cdpcs	0, 3, cr2, cr4, cr9, {1}
  20:	00312e31 	eoreqs	r2, r1, r1, lsr lr
  24:	43434700 	movtmi	r4, #14080	; 0x3700
  28:	4728203a 	undefined
  2c:	2029554e 	eorcs	r5, r9, lr, asr #10
  30:	2e312e34 	mrccs	14, 1, r2, cr1, cr4, {1}
  34:	47000031 	smladxmi	r0, r1, r0, r0
  38:	203a4343 	eorcss	r4, sl, r3, asr #6
  3c:	554e4728 	strplb	r4, [lr, #-1832]
  40:	2e342029 	cdpcs	0, 3, cr2, cr4, cr9, {1}
  44:	00312e31 	eoreqs	r2, r1, r1, lsr lr
