
kernel/kernel:     file format elf32-littlearm

Disassembly of section .text:

a3000000 <_start>:
a3000000:	e1a02008 	mov	r2, r8
a3000004:	ea000037 	b	a30000e8 <kmain>

a3000008 <register_dump>:
a3000008:	e92d40f0 	stmdb	sp!, {r4, r5, r6, r7, lr}
a300000c:	e5901054 	ldr	r1, [r0, #84]
a3000010:	e1a07000 	mov	r7, r0
a3000014:	e24dd014 	sub	sp, sp, #20	; 0x14
a3000018:	e59f008c 	ldr	r0, [pc, #140]	; a30000ac <.text+0xac>
a300001c:	e2411004 	sub	r1, r1, #4	; 0x4
a3000020:	eb0005c1 	bl	a300172c <printf>
a3000024:	e597c02c 	ldr	ip, [r7, #44]
a3000028:	e597e030 	ldr	lr, [r7, #48]
a300002c:	e2874034 	add	r4, r7, #52	; 0x34
a3000030:	e8940070 	ldmia	r4, {r4, r5, r6}
a3000034:	e2871020 	add	r1, r7, #32	; 0x20
a3000038:	e891000e 	ldmia	r1, {r1, r2, r3}
a300003c:	e59f006c 	ldr	r0, [pc, #108]	; a30000b0 <.text+0xb0>
a3000040:	e88d5000 	stmia	sp, {ip, lr}
a3000044:	e58d4008 	str	r4, [sp, #8]
a3000048:	e58d500c 	str	r5, [sp, #12]
a300004c:	e58d6010 	str	r6, [sp, #16]
a3000050:	eb0005b5 	bl	a300172c <printf>
a3000054:	e597301c 	ldr	r3, [r7, #28]
a3000058:	e2033011 	and	r3, r3, #17	; 0x11
a300005c:	e3530011 	cmp	r3, #17	; 0x11
a3000060:	1a000004 	bne	a3000078 <register_dump+0x70>
a3000064:	e597c00c 	ldr	ip, [r7, #12]
a3000068:	e597e010 	ldr	lr, [r7, #16]
a300006c:	e59f0040 	ldr	r0, [pc, #64]	; a30000b4 <.text+0xb4>
a3000070:	e897000e 	ldmia	r7, {r1, r2, r3}
a3000074:	ea000004 	b	a300008c <register_dump+0x84>
a3000078:	e597c04c 	ldr	ip, [r7, #76]
a300007c:	e597e050 	ldr	lr, [r7, #80]
a3000080:	e59f002c 	ldr	r0, [pc, #44]	; a30000b4 <.text+0xb4>
a3000084:	e2871040 	add	r1, r7, #64	; 0x40
a3000088:	e891000e 	ldmia	r1, {r1, r2, r3}
a300008c:	e88d5000 	stmia	sp, {ip, lr}
a3000090:	eb0005a5 	bl	a300172c <printf>
a3000094:	e597301c 	ldr	r3, [r7, #28]
a3000098:	e59f0018 	ldr	r0, [pc, #24]	; a30000b8 <.text+0xb8>
a300009c:	e5971014 	ldr	r1, [r7, #20]
a30000a0:	e5972018 	ldr	r2, [r7, #24]
a30000a4:	eb0005a0 	bl	a300172c <printf>
a30000a8:	eafffffe 	b	a30000a8 <register_dump+0xa0>
a30000ac:	a30017b8 	movwge	r1, #1976	; 0x7b8
a30000b0:	a30017e0 	movwge	r1, #2016	; 0x7e0
a30000b4:	a3001850 	movwge	r1, #2128	; 0x850
a30000b8:	a3001890 	movwge	r1, #2192	; 0x890

a30000bc <panic>:
a30000bc:	e92d000f 	stmdb	sp!, {r0, r1, r2, r3}
a30000c0:	e24dd004 	sub	sp, sp, #4	; 0x4
a30000c4:	e28d3008 	add	r3, sp, #8	; 0x8
a30000c8:	e59f0014 	ldr	r0, [pc, #20]	; a30000e4 <.text+0xe4>
a30000cc:	e58d3000 	str	r3, [sp]
a30000d0:	eb000595 	bl	a300172c <printf>
a30000d4:	e10f3000 	mrs	r3, CPSR
a30000d8:	e38330c0 	orr	r3, r3, #192	; 0xc0
a30000dc:	e121f003 	msr	CPSR_c, r3
a30000e0:	eafffffe 	b	a30000e0 <panic+0x24>
a30000e4:	a30018b8 	movwge	r1, #2232	; 0x8b8

a30000e8 <kmain>:
a30000e8:	e92d40f0 	stmdb	sp!, {r4, r5, r6, r7, lr}
a30000ec:	e59f5180 	ldr	r5, [pc, #384]	; a3000274 <.text+0x274>
a30000f0:	e1a06000 	mov	r6, r0
a30000f4:	e1a07001 	mov	r7, r1
a30000f8:	e5953000 	ldr	r3, [r5]
a30000fc:	e1a04002 	mov	r4, r2
a3000100:	e3530001 	cmp	r3, #1	; 0x1
a3000104:	1a000001 	bne	a3000110 <kmain+0x28>
a3000108:	e59f0168 	ldr	r0, [pc, #360]	; a3000278 <.text+0x278>
a300010c:	eb000584 	bl	a3001724 <puts>
a3000110:	eb00059d 	bl	a300178c <app_startup>
a3000114:	e5953000 	ldr	r3, [r5]
a3000118:	e3530001 	cmp	r3, #1	; 0x1
a300011c:	e59f3158 	ldr	r3, [pc, #344]	; a300027c <.text+0x27c>
a3000120:	e5834000 	str	r4, [r3]
a3000124:	1a000001 	bne	a3000130 <kmain+0x48>
a3000128:	e59f0150 	ldr	r0, [pc, #336]	; a3000280 <.text+0x280>
a300012c:	eb00057c 	bl	a3001724 <puts>
a3000130:	e3a00003 	mov	r0, #3	; 0x3
a3000134:	eb0000c5 	bl	a3000450 <wire_exception_handler>
a3000138:	e3700001 	cmn	r0, #1	; 0x1
a300013c:	0a00001d 	beq	a30001b8 <kmain+0xd0>
a3000140:	e5953000 	ldr	r3, [r5]
a3000144:	e3530001 	cmp	r3, #1	; 0x1
a3000148:	1a000001 	bne	a3000154 <kmain+0x6c>
a300014c:	e59f0130 	ldr	r0, [pc, #304]	; a3000284 <.text+0x284>
a3000150:	eb000573 	bl	a3001724 <puts>
a3000154:	eb00014f 	bl	a3000698 <setup_abort_stack>
a3000158:	eb000146 	bl	a3000678 <setup_irq_stack>
a300015c:	e5953000 	ldr	r3, [r5]
a3000160:	e3530001 	cmp	r3, #1	; 0x1
a3000164:	1a000001 	bne	a3000170 <kmain+0x88>
a3000168:	e59f0118 	ldr	r0, [pc, #280]	; a3000288 <.text+0x288>
a300016c:	eb00056c 	bl	a3001724 <puts>
a3000170:	e3a00002 	mov	r0, #2	; 0x2
a3000174:	eb0000b5 	bl	a3000450 <wire_exception_handler>
a3000178:	e3700001 	cmn	r0, #1	; 0x1
a300017c:	1a000004 	bne	a3000194 <kmain+0xac>
a3000180:	e59f0104 	ldr	r0, [pc, #260]	; a300028c <.text+0x28c>
a3000184:	e3a01008 	mov	r1, #8	; 0x8
a3000188:	eb000567 	bl	a300172c <printf>
a300018c:	e59f40fc 	ldr	r4, [pc, #252]	; a3000290 <.text+0x290>
a3000190:	ea000035 	b	a300026c <kmain+0x184>
a3000194:	e5953000 	ldr	r3, [r5]
a3000198:	e3530001 	cmp	r3, #1	; 0x1
a300019c:	1a000001 	bne	a30001a8 <kmain+0xc0>
a30001a0:	e59f00ec 	ldr	r0, [pc, #236]	; a3000294 <.text+0x294>
a30001a4:	eb00055e 	bl	a3001724 <puts>
a30001a8:	e3a00006 	mov	r0, #6	; 0x6
a30001ac:	eb0000a7 	bl	a3000450 <wire_exception_handler>
a30001b0:	e3700001 	cmn	r0, #1	; 0x1
a30001b4:	1a000002 	bne	a30001c4 <kmain+0xdc>
a30001b8:	e59f00cc 	ldr	r0, [pc, #204]	; a300028c <.text+0x28c>
a30001bc:	e3a0100c 	mov	r1, #12	; 0xc
a30001c0:	eafffff0 	b	a3000188 <kmain+0xa0>
a30001c4:	e5953000 	ldr	r3, [r5]
a30001c8:	e3530001 	cmp	r3, #1	; 0x1
a30001cc:	1a000001 	bne	a30001d8 <kmain+0xf0>
a30001d0:	e59f00c0 	ldr	r0, [pc, #192]	; a3000298 <.text+0x298>
a30001d4:	eb000552 	bl	a3001724 <puts>
a30001d8:	eb00022c 	bl	a3000a90 <initialize_timer>
a30001dc:	e5953000 	ldr	r3, [r5]
a30001e0:	e3530001 	cmp	r3, #1	; 0x1
a30001e4:	1a000001 	bne	a30001f0 <kmain+0x108>
a30001e8:	e59f00ac 	ldr	r0, [pc, #172]	; a300029c <.text+0x29c>
a30001ec:	eb00054c 	bl	a3001724 <puts>
a30001f0:	e1a01006 	mov	r1, r6
a30001f4:	e1a02007 	mov	r2, r7
a30001f8:	e3a004a3 	mov	r0, #-1560281088	; 0xa3000000
a30001fc:	eb00020d 	bl	a3000a38 <setup_stack>
a3000200:	e5953000 	ldr	r3, [r5]
a3000204:	e1a04000 	mov	r4, r0
a3000208:	e3530001 	cmp	r3, #1	; 0x1
a300020c:	1a000001 	bne	a3000218 <kmain+0x130>
a3000210:	e59f0088 	ldr	r0, [pc, #136]	; a30002a0 <.text+0x2a0>
a3000214:	eb000542 	bl	a3001724 <puts>
a3000218:	e1a00004 	mov	r0, r4
a300021c:	e3a0120a 	mov	r1, #-1610612736	; 0xa0000000
a3000220:	eb0001e7 	bl	a30009c4 <_enable_user_prog>
a3000224:	e5953000 	ldr	r3, [r5]
a3000228:	e1a04000 	mov	r4, r0
a300022c:	e3530001 	cmp	r3, #1	; 0x1
a3000230:	1a000001 	bne	a300023c <kmain+0x154>
a3000234:	e59f0068 	ldr	r0, [pc, #104]	; a30002a4 <.text+0x2a4>
a3000238:	eb000539 	bl	a3001724 <puts>
a300023c:	eb00022d 	bl	a3000af8 <uninitialize_timer>
a3000240:	e5953000 	ldr	r3, [r5]
a3000244:	e3530001 	cmp	r3, #1	; 0x1
a3000248:	1a000001 	bne	a3000254 <kmain+0x16c>
a300024c:	e59f0054 	ldr	r0, [pc, #84]	; a30002a8 <.text+0x2a8>
a3000250:	eb000533 	bl	a3001724 <puts>
a3000254:	eb0000c5 	bl	a3000570 <restore_handlers>
a3000258:	e5953000 	ldr	r3, [r5]
a300025c:	e3530001 	cmp	r3, #1	; 0x1
a3000260:	1a000001 	bne	a300026c <kmain+0x184>
a3000264:	e59f0040 	ldr	r0, [pc, #64]	; a30002ac <.text+0x2ac>
a3000268:	eb00052d 	bl	a3001724 <puts>
a300026c:	e1a00004 	mov	r0, r4
a3000270:	e8bd80f0 	ldmia	sp!, {r4, r5, r6, r7, pc}
a3000274:	a3001ea0 	movwge	r1, #3744	; 0xea0
a3000278:	a30018c0 	movwge	r1, #2240	; 0x8c0
a300027c:	a3002014 	movwge	r2, #20	; 0x14
a3000280:	a30018e0 	movwge	r1, #2272	; 0x8e0
a3000284:	a3001938 	movwge	r1, #2360	; 0x938
a3000288:	a3001958 	movwge	r1, #2392	; 0x958
a300028c:	a3001900 	movwge	r1, #2304	; 0x900
a3000290:	0badc0de 	bleq	a1b70610 <_start-0x148f9f0>
a3000294:	a3001978 	movwge	r1, #2424	; 0x978
a3000298:	a3001998 	movwge	r1, #2456	; 0x998
a300029c:	a30019b0 	movwge	r1, #2480	; 0x9b0
a30002a0:	a30019c8 	movwge	r1, #2504	; 0x9c8
a30002a4:	a30019e0 	movwge	r1, #2528	; 0x9e0
a30002a8:	a30019f8 	movwge	r1, #2552	; 0x9f8
a30002ac:	a3001a10 	movwge	r1, #2576	; 0xa10

a30002b0 <sum_region>:
a30002b0:	e3a0c000 	mov	ip, #0	; 0x0
a30002b4:	e1a0200c 	mov	r2, ip
a30002b8:	ea000002 	b	a30002c8 <sum_region+0x18>
a30002bc:	e7903102 	ldr	r3, [r0, r2, lsl #2]
a30002c0:	e2822001 	add	r2, r2, #1	; 0x1
a30002c4:	e08cc003 	add	ip, ip, r3
a30002c8:	e1520001 	cmp	r2, r1
a30002cc:	1afffffa 	bne	a30002bc <sum_region+0xc>
a30002d0:	e1a0000c 	mov	r0, ip
a30002d4:	e12fff1e 	bx	lr

a30002d8 <ilog2>:
a30002d8:	e3a03000 	mov	r3, #0	; 0x0
a30002dc:	ea000000 	b	a30002e4 <ilog2+0xc>
a30002e0:	e2833001 	add	r3, r3, #1	; 0x1
a30002e4:	e1b000a0 	movs	r0, r0, lsr #1
a30002e8:	1afffffc 	bne	a30002e0 <ilog2+0x8>
a30002ec:	e1a00003 	mov	r0, r3
a30002f0:	e12fff1e 	bx	lr

a30002f4 <valid_addr>:
a30002f4:	e1a0c003 	mov	ip, r3
a30002f8:	e1500003 	cmp	r0, r3
a30002fc:	33a03000 	movcc	r3, #0	; 0x0
a3000300:	23a03001 	movcs	r3, #1	; 0x1
a3000304:	e1500002 	cmp	r0, r2
a3000308:	33833001 	orrcc	r3, r3, #1	; 0x1
a300030c:	e3530000 	cmp	r3, #0	; 0x0
a3000310:	e3a03000 	mov	r3, #0	; 0x0
a3000314:	1a000005 	bne	a3000330 <valid_addr+0x3c>
a3000318:	e0902001 	adds	r2, r0, r1
a300031c:	33a03000 	movcc	r3, #0	; 0x0
a3000320:	23a03001 	movcs	r3, #1	; 0x1
a3000324:	e152000c 	cmp	r2, ip
a3000328:	83833001 	orrhi	r3, r3, #1	; 0x1
a300032c:	e2233001 	eor	r3, r3, #1	; 0x1
a3000330:	e1a00003 	mov	r0, r3
a3000334:	e12fff1e 	bx	lr

a3000338 <raise>:
a3000338:	e52de004 	str	lr, [sp, #-4]!
a300033c:	e59f0004 	ldr	r0, [pc, #4]	; a3000348 <.text+0x348>
a3000340:	eb0004f7 	bl	a3001724 <puts>
a3000344:	eafffffe 	b	a3000344 <raise+0xc>
a3000348:	a3001a28 	movwge	r1, #2600	; 0xa28

a300034c <hexdump>:
a300034c:	e92d41f0 	stmdb	sp!, {r4, r5, r6, r7, r8, lr}
a3000350:	e1a08000 	mov	r8, r0
a3000354:	e59f00d0 	ldr	r0, [pc, #208]	; a300042c <.text+0x42c>
a3000358:	e1a07001 	mov	r7, r1
a300035c:	eb0004f2 	bl	a300172c <printf>
a3000360:	e3a05000 	mov	r5, #0	; 0x0
a3000364:	ea00002b 	b	a3000418 <hexdump+0xcc>
a3000368:	e59f00c0 	ldr	r0, [pc, #192]	; a3000430 <.text+0x430>
a300036c:	e1a01005 	mov	r1, r5
a3000370:	eb0004ed 	bl	a300172c <printf>
a3000374:	e1a04005 	mov	r4, r5
a3000378:	ea00000b 	b	a30003ac <hexdump+0x60>
a300037c:	e3140003 	tst	r4, #3	; 0x3
a3000380:	1a000000 	bne	a3000388 <hexdump+0x3c>
a3000384:	eb0004e8 	bl	a300172c <printf>
a3000388:	e1540007 	cmp	r4, r7
a300038c:	e59f00a0 	ldr	r0, [pc, #160]	; a3000434 <.text+0x434>
a3000390:	3a000001 	bcc	a300039c <hexdump+0x50>
a3000394:	eb0004e4 	bl	a300172c <printf>
a3000398:	ea000002 	b	a30003a8 <hexdump+0x5c>
a300039c:	e7d41008 	ldrb	r1, [r4, r8]
a30003a0:	e59f0090 	ldr	r0, [pc, #144]	; a3000438 <.text+0x438>
a30003a4:	eb0004e0 	bl	a300172c <printf>
a30003a8:	e2844001 	add	r4, r4, #1	; 0x1
a30003ac:	e2856010 	add	r6, r5, #16	; 0x10
a30003b0:	e1540006 	cmp	r4, r6
a30003b4:	e59f0080 	ldr	r0, [pc, #128]	; a300043c <.text+0x43c>
a30003b8:	3affffef 	bcc	a300037c <hexdump+0x30>
a30003bc:	e59f007c 	ldr	r0, [pc, #124]	; a3000440 <.text+0x440>
a30003c0:	eb0004d9 	bl	a300172c <printf>
a30003c4:	e0884005 	add	r4, r8, r5
a30003c8:	ea00000c 	b	a3000400 <hexdump+0xb4>
a30003cc:	e1550007 	cmp	r5, r7
a30003d0:	3a000001 	bcc	a30003dc <hexdump+0x90>
a30003d4:	eb0004d4 	bl	a300172c <printf>
a30003d8:	ea000006 	b	a30003f8 <hexdump+0xac>
a30003dc:	e5d43000 	ldrb	r3, [r4]
a30003e0:	e59f005c 	ldr	r0, [pc, #92]	; a3000444 <.text+0x444>
a30003e4:	e2431021 	sub	r1, r3, #33	; 0x21
a30003e8:	e351005d 	cmp	r1, #93	; 0x5d
a30003ec:	91a01003 	movls	r1, r3
a30003f0:	83a0102e 	movhi	r1, #46	; 0x2e
a30003f4:	eb0004cc 	bl	a300172c <printf>
a30003f8:	e2855001 	add	r5, r5, #1	; 0x1
a30003fc:	e2844001 	add	r4, r4, #1	; 0x1
a3000400:	e1550006 	cmp	r5, r6
a3000404:	e59f0030 	ldr	r0, [pc, #48]	; a300043c <.text+0x43c>
a3000408:	3affffef 	bcc	a30003cc <hexdump+0x80>
a300040c:	e59f0034 	ldr	r0, [pc, #52]	; a3000448 <.text+0x448>
a3000410:	eb0004c5 	bl	a300172c <printf>
a3000414:	e1a05006 	mov	r5, r6
a3000418:	e1550007 	cmp	r5, r7
a300041c:	3affffd1 	bcc	a3000368 <hexdump+0x1c>
a3000420:	e59f0024 	ldr	r0, [pc, #36]	; a300044c <.text+0x44c>
a3000424:	e8bd41f0 	ldmia	sp!, {r4, r5, r6, r7, r8, lr}
a3000428:	ea0004bf 	b	a300172c <printf>
a300042c:	a3001a48 	movwge	r1, #2632	; 0xa48
a3000430:	a3001a98 	movwge	r1, #2712	; 0xa98
a3000434:	a3001ab0 	movwge	r1, #2736	; 0xab0
a3000438:	a3001ab8 	movwge	r1, #2744	; 0xab8
a300043c:	a3001aa8 	movwge	r1, #2728	; 0xaa8
a3000440:	a3001ac0 	movwge	r1, #2752	; 0xac0
a3000444:	a3001ac8 	movwge	r1, #2760	; 0xac8
a3000448:	a3001ad0 	movwge	r1, #2768	; 0xad0
a300044c:	a3001ad8 	movwge	r1, #2776	; 0xad8

a3000450 <wire_exception_handler>:
a3000450:	e1a0c100 	mov	ip, r0, lsl #2
a3000454:	e59c1000 	ldr	r1, [ip]
a3000458:	e59f30dc 	ldr	r3, [pc, #220]	; a300053c <.text+0x53c>
a300045c:	e92d4010 	stmdb	sp!, {r4, lr}
a3000460:	e1a0e000 	mov	lr, r0
a3000464:	e59f00d4 	ldr	r0, [pc, #212]	; a3000540 <.text+0x540>
a3000468:	e1a02a01 	mov	r2, r1, lsl #20
a300046c:	e1813003 	orr	r3, r1, r3
a3000470:	e1a02a22 	mov	r2, r2, lsr #20
a3000474:	e0331000 	eors	r1, r3, r0
a3000478:	e08c2002 	add	r2, ip, r2
a300047c:	e3e00000 	mvn	r0, #0	; 0x0
a3000480:	1a00002c 	bne	a3000538 <wire_exception_handler+0xe8>
a3000484:	e35e0003 	cmp	lr, #3	; 0x3
a3000488:	e59f40b4 	ldr	r4, [pc, #180]	; a3000544 <.text+0x544>
a300048c:	e1a00001 	mov	r0, r1
a3000490:	e592c008 	ldr	ip, [r2, #8]
a3000494:	1a000009 	bne	a30004c0 <wire_exception_handler+0x70>
a3000498:	e59f30a8 	ldr	r3, [pc, #168]	; a3000548 <.text+0x548>
a300049c:	e59c2000 	ldr	r2, [ip]
a30004a0:	e583c000 	str	ip, [r3]
a30004a4:	e59f30a0 	ldr	r3, [pc, #160]	; a300054c <.text+0x54c>
a30004a8:	e5842000 	str	r2, [r4]
a30004ac:	e59c2004 	ldr	r2, [ip, #4]
a30004b0:	e58c3000 	str	r3, [ip]
a30004b4:	e59f3094 	ldr	r3, [pc, #148]	; a3000550 <.text+0x550>
a30004b8:	e5842004 	str	r2, [r4, #4]
a30004bc:	ea00000c 	b	a30004f4 <wire_exception_handler+0xa4>
a30004c0:	e35e0002 	cmp	lr, #2	; 0x2
a30004c4:	e59f4088 	ldr	r4, [pc, #136]	; a3000554 <.text+0x554>
a30004c8:	e1a00001 	mov	r0, r1
a30004cc:	1a00000a 	bne	a30004fc <wire_exception_handler+0xac>
a30004d0:	e59f3080 	ldr	r3, [pc, #128]	; a3000558 <.text+0x558>
a30004d4:	e59c2000 	ldr	r2, [ip]
a30004d8:	e583c000 	str	ip, [r3]
a30004dc:	e59f3068 	ldr	r3, [pc, #104]	; a300054c <.text+0x54c>
a30004e0:	e5842000 	str	r2, [r4]
a30004e4:	e59c2004 	ldr	r2, [ip, #4]
a30004e8:	e58c3000 	str	r3, [ip]
a30004ec:	e59f3068 	ldr	r3, [pc, #104]	; a300055c <.text+0x55c>
a30004f0:	e5842004 	str	r2, [r4, #4]
a30004f4:	e58c3004 	str	r3, [ip, #4]
a30004f8:	e8bd8010 	ldmia	sp!, {r4, pc}
a30004fc:	e35e0006 	cmp	lr, #6	; 0x6
a3000500:	e59f4058 	ldr	r4, [pc, #88]	; a3000560 <.text+0x560>
a3000504:	e1a00001 	mov	r0, r1
a3000508:	1a00000a 	bne	a3000538 <wire_exception_handler+0xe8>
a300050c:	e59f3050 	ldr	r3, [pc, #80]	; a3000564 <.text+0x564>
a3000510:	e59c2000 	ldr	r2, [ip]
a3000514:	e1a00001 	mov	r0, r1
a3000518:	e583c000 	str	ip, [r3]
a300051c:	e59f3028 	ldr	r3, [pc, #40]	; a300054c <.text+0x54c>
a3000520:	e5842000 	str	r2, [r4]
a3000524:	e59c2004 	ldr	r2, [ip, #4]
a3000528:	e58c3000 	str	r3, [ip]
a300052c:	e59f3034 	ldr	r3, [pc, #52]	; a3000568 <.text+0x568>
a3000530:	e5842004 	str	r2, [r4, #4]
a3000534:	e58c3004 	str	r3, [ip, #4]
a3000538:	e8bd8010 	ldmia	sp!, {r4, pc}
a300053c:	00800fff 	streqd	r0, [r0], pc
a3000540:	e59fffff 	ldr	pc, [pc, #4095]	; a3001547 <mutex_unlock+0xcb>
a3000544:	a3001ec4 	movwge	r1, #3780	; 0xec4
a3000548:	a3001ea8 	movwge	r1, #3752	; 0xea8
a300054c:	e51ff004 	ldr	pc, [pc, #-4]	; a3000550 <.text+0x550>
a3000550:	a300091c 	movwge	r0, #2332	; 0x91c
a3000554:	a3001eb4 	movwge	r1, #3764	; 0xeb4
a3000558:	a3001eac 	movwge	r1, #3756	; 0xeac
a300055c:	a3000964 	movwge	r0, #2404	; 0x964
a3000560:	a3001ebc 	movwge	r1, #3772	; 0xebc
a3000564:	a3001eb0 	movwge	r1, #3760	; 0xeb0
a3000568:	a3000d58 	movwge	r0, #3416	; 0xd58

a300056c <setup_user_stack>:
a300056c:	e12fff1e 	bx	lr

a3000570 <restore_handlers>:
a3000570:	e92d4010 	stmdb	sp!, {r4, lr}
a3000574:	e59f40d4 	ldr	r4, [pc, #212]	; a3000650 <.text+0x650>
a3000578:	e5943000 	ldr	r3, [r4]
a300057c:	e3530000 	cmp	r3, #0	; 0x0
a3000580:	0a00000d 	beq	a30005bc <restore_handlers+0x4c>
a3000584:	e59f30c8 	ldr	r3, [pc, #200]	; a3000654 <.text+0x654>
a3000588:	e5933000 	ldr	r3, [r3]
a300058c:	e3530001 	cmp	r3, #1	; 0x1
a3000590:	1a000001 	bne	a300059c <restore_handlers+0x2c>
a3000594:	e59f00bc 	ldr	r0, [pc, #188]	; a3000658 <.text+0x658>
a3000598:	eb000461 	bl	a3001724 <puts>
a300059c:	e59f10b8 	ldr	r1, [pc, #184]	; a300065c <.text+0x65c>
a30005a0:	e5940000 	ldr	r0, [r4]
a30005a4:	e5912000 	ldr	r2, [r1]
a30005a8:	e1a03000 	mov	r3, r0
a30005ac:	e4832004 	str	r2, [r3], #4
a30005b0:	e5912004 	ldr	r2, [r1, #4]
a30005b4:	e5843000 	str	r3, [r4]
a30005b8:	e5802004 	str	r2, [r0, #4]
a30005bc:	e59f409c 	ldr	r4, [pc, #156]	; a3000660 <.text+0x660>
a30005c0:	e5943000 	ldr	r3, [r4]
a30005c4:	e3530000 	cmp	r3, #0	; 0x0
a30005c8:	0a00000d 	beq	a3000604 <restore_handlers+0x94>
a30005cc:	e59f3080 	ldr	r3, [pc, #128]	; a3000654 <.text+0x654>
a30005d0:	e5933000 	ldr	r3, [r3]
a30005d4:	e3530001 	cmp	r3, #1	; 0x1
a30005d8:	1a000001 	bne	a30005e4 <restore_handlers+0x74>
a30005dc:	e59f0080 	ldr	r0, [pc, #128]	; a3000664 <.text+0x664>
a30005e0:	eb00044f 	bl	a3001724 <puts>
a30005e4:	e59f107c 	ldr	r1, [pc, #124]	; a3000668 <.text+0x668>
a30005e8:	e5940000 	ldr	r0, [r4]
a30005ec:	e5912000 	ldr	r2, [r1]
a30005f0:	e1a03000 	mov	r3, r0
a30005f4:	e4832004 	str	r2, [r3], #4
a30005f8:	e5912004 	ldr	r2, [r1, #4]
a30005fc:	e5843000 	str	r3, [r4]
a3000600:	e5802004 	str	r2, [r0, #4]
a3000604:	e59f4060 	ldr	r4, [pc, #96]	; a300066c <.text+0x66c>
a3000608:	e5943000 	ldr	r3, [r4]
a300060c:	e3530000 	cmp	r3, #0	; 0x0
a3000610:	0a00000d 	beq	a300064c <restore_handlers+0xdc>
a3000614:	e59f3038 	ldr	r3, [pc, #56]	; a3000654 <.text+0x654>
a3000618:	e5933000 	ldr	r3, [r3]
a300061c:	e3530001 	cmp	r3, #1	; 0x1
a3000620:	1a000001 	bne	a300062c <restore_handlers+0xbc>
a3000624:	e59f0044 	ldr	r0, [pc, #68]	; a3000670 <.text+0x670>
a3000628:	eb00043d 	bl	a3001724 <puts>
a300062c:	e59f1040 	ldr	r1, [pc, #64]	; a3000674 <.text+0x674>
a3000630:	e5940000 	ldr	r0, [r4]
a3000634:	e5912000 	ldr	r2, [r1]
a3000638:	e1a03000 	mov	r3, r0
a300063c:	e4832004 	str	r2, [r3], #4
a3000640:	e5912004 	ldr	r2, [r1, #4]
a3000644:	e5843000 	str	r3, [r4]
a3000648:	e5802004 	str	r2, [r0, #4]
a300064c:	e8bd8010 	ldmia	sp!, {r4, pc}
a3000650:	a3001eb0 	movwge	r1, #3760	; 0xeb0
a3000654:	a3001ea0 	movwge	r1, #3744	; 0xea0
a3000658:	a3001b28 	movwge	r1, #2856	; 0xb28
a300065c:	a3001ebc 	movwge	r1, #3772	; 0xebc
a3000660:	a3001eac 	movwge	r1, #3756	; 0xeac
a3000664:	a3001b40 	movwge	r1, #2880	; 0xb40
a3000668:	a3001eb4 	movwge	r1, #3764	; 0xeb4
a300066c:	a3001ea8 	movwge	r1, #3752	; 0xea8
a3000670:	a3001b58 	movwge	r1, #2904	; 0xb58
a3000674:	a3001ec4 	movwge	r1, #3780	; 0xec4

a3000678 <setup_irq_stack>:
a3000678:	e10f3000 	mrs	r3, CPSR
a300067c:	e3a020d2 	mov	r2, #210	; 0xd2
a3000680:	e129f002 	msr	CPSR_fc, r2
a3000684:	e59f2008 	ldr	r2, [pc, #8]	; a3000694 <.text+0x694>
a3000688:	e1a0d002 	mov	sp, r2
a300068c:	e129f003 	msr	CPSR_fc, r3
a3000690:	e12fff1e 	bx	lr
a3000694:	a3002814 	movwge	r2, #2068	; 0x814

a3000698 <setup_abort_stack>:
a3000698:	e10f3000 	mrs	r3, CPSR
a300069c:	e3a020d7 	mov	r2, #215	; 0xd7
a30006a0:	e129f002 	msr	CPSR_fc, r2
a30006a4:	e59f2008 	ldr	r2, [pc, #8]	; a30006b4 <.text+0x6b4>
a30006a8:	e1a0d002 	mov	sp, r2
a30006ac:	e129f003 	msr	CPSR_fc, r3
a30006b0:	e12fff1e 	bx	lr
a30006b4:	a3002414 	movwge	r2, #1044	; 0x414

a30006b8 <dev_init>:
a30006b8:	e59f2028 	ldr	r2, [pc, #40]	; a30006e8 <.text+0x6e8>
a30006bc:	e3a03f7d 	mov	r3, #500	; 0x1f4
a30006c0:	e3a01000 	mov	r1, #0	; 0x0
a30006c4:	e5823014 	str	r3, [r2, #20]
a30006c8:	e2433e19 	sub	r3, r3, #400	; 0x190
a30006cc:	e5823004 	str	r3, [r2, #4]
a30006d0:	e2833064 	add	r3, r3, #100	; 0x64
a30006d4:	e582300c 	str	r3, [r2, #12]
a30006d8:	e5821010 	str	r1, [r2, #16]
a30006dc:	e5821000 	str	r1, [r2]
a30006e0:	e5821008 	str	r1, [r2, #8]
a30006e4:	e12fff1e 	bx	lr
a30006e8:	a3001ecc 	movwge	r1, #3788	; 0xecc

a30006ec <dev_update>:
a30006ec:	e92d40f0 	stmdb	sp!, {r4, r5, r6, r7, lr}
a30006f0:	e59f5064 	ldr	r5, [pc, #100]	; a300075c <.text+0x75c>
a30006f4:	e59f6064 	ldr	r6, [pc, #100]	; a3000760 <.text+0x760>
a30006f8:	e1a07000 	mov	r7, r0
a30006fc:	e5953004 	ldr	r3, [r5, #4]
a3000700:	e1570003 	cmp	r7, r3
a3000704:	25954000 	ldrcs	r4, [r5]
a3000708:	2a000006 	bcs	a3000728 <dev_update+0x3c>
a300070c:	ea00000b 	b	a3000740 <dev_update+0x54>
a3000710:	e5d41001 	ldrb	r1, [r4, #1]
a3000714:	eb000321 	bl	a30013a0 <runqueue_add>
a3000718:	e5942030 	ldr	r2, [r4, #48]
a300071c:	e3a03000 	mov	r3, #0	; 0x0
a3000720:	e5843030 	str	r3, [r4, #48]
a3000724:	e1a04002 	mov	r4, r2
a3000728:	e2540000 	subs	r0, r4, #0	; 0x0
a300072c:	1afffff7 	bne	a3000710 <dev_update+0x24>
a3000730:	e5953004 	ldr	r3, [r5, #4]
a3000734:	e5962000 	ldr	r2, [r6]
a3000738:	e0833002 	add	r3, r3, r2
a300073c:	e5853004 	str	r3, [r5, #4]
a3000740:	e59f301c 	ldr	r3, [pc, #28]	; a3000764 <.text+0x764>
a3000744:	e2855008 	add	r5, r5, #8	; 0x8
a3000748:	e2866004 	add	r6, r6, #4	; 0x4
a300074c:	e1550003 	cmp	r5, r3
a3000750:	1affffe9 	bne	a30006fc <dev_update+0x10>
a3000754:	e8bd40f0 	ldmia	sp!, {r4, r5, r6, r7, lr}
a3000758:	ea0002cb 	b	a300128c <dispatch_save>
a300075c:	a3001ecc 	movwge	r1, #3788	; 0xecc
a3000760:	a3001b70 	movwge	r1, #2928	; 0xb70
a3000764:	a3001ee4 	movwge	r1, #3812	; 0xee4

a3000768 <dev_wait>:
a3000768:	e92d4010 	stmdb	sp!, {r4, lr}
a300076c:	e1a04000 	mov	r4, r0
a3000770:	eb0002b0 	bl	a3001238 <get_cur_tcb>
a3000774:	e59f2010 	ldr	r2, [pc, #16]	; a300078c <.text+0x78c>
a3000778:	e7923184 	ldr	r3, [r2, r4, lsl #3]
a300077c:	e5803030 	str	r3, [r0, #48]
a3000780:	e7820184 	str	r0, [r2, r4, lsl #3]
a3000784:	e8bd4010 	ldmia	sp!, {r4, lr}
a3000788:	ea0002ae 	b	a3001248 <dispatch_sleep>
a300078c:	a3001ecc 	movwge	r1, #3788	; 0xecc

a3000790 <isascii>:
a3000790:	e350007f 	cmp	r0, #127	; 0x7f
a3000794:	83a00000 	movhi	r0, #0	; 0x0
a3000798:	93a00001 	movls	r0, #1	; 0x1
a300079c:	e12fff1e 	bx	lr

a30007a0 <iscntrl>:
a30007a0:	e2400020 	sub	r0, r0, #32	; 0x20
a30007a4:	e350005e 	cmp	r0, #94	; 0x5e
a30007a8:	93a00000 	movls	r0, #0	; 0x0
a30007ac:	83a00001 	movhi	r0, #1	; 0x1
a30007b0:	e12fff1e 	bx	lr

a30007b4 <isdigit>:
a30007b4:	e2400030 	sub	r0, r0, #48	; 0x30
a30007b8:	e3500009 	cmp	r0, #9	; 0x9
a30007bc:	83a00000 	movhi	r0, #0	; 0x0
a30007c0:	93a00001 	movls	r0, #1	; 0x1
a30007c4:	e12fff1e 	bx	lr

a30007c8 <isgraph>:
a30007c8:	e2400021 	sub	r0, r0, #33	; 0x21
a30007cc:	e350005d 	cmp	r0, #93	; 0x5d
a30007d0:	83a00000 	movhi	r0, #0	; 0x0
a30007d4:	93a00001 	movls	r0, #1	; 0x1
a30007d8:	e12fff1e 	bx	lr

a30007dc <islower>:
a30007dc:	e2400061 	sub	r0, r0, #97	; 0x61
a30007e0:	e3500019 	cmp	r0, #25	; 0x19
a30007e4:	83a00000 	movhi	r0, #0	; 0x0
a30007e8:	93a00001 	movls	r0, #1	; 0x1
a30007ec:	e12fff1e 	bx	lr

a30007f0 <isprint>:
a30007f0:	e2400020 	sub	r0, r0, #32	; 0x20
a30007f4:	e350005e 	cmp	r0, #94	; 0x5e
a30007f8:	83a00000 	movhi	r0, #0	; 0x0
a30007fc:	93a00001 	movls	r0, #1	; 0x1
a3000800:	e12fff1e 	bx	lr

a3000804 <isspace>:
a3000804:	e350000c 	cmp	r0, #12	; 0xc
a3000808:	13500020 	cmpne	r0, #32	; 0x20
a300080c:	0a000007 	beq	a3000830 <isspace+0x2c>
a3000810:	e350000d 	cmp	r0, #13	; 0xd
a3000814:	1350000a 	cmpne	r0, #10	; 0xa
a3000818:	0a000004 	beq	a3000830 <isspace+0x2c>
a300081c:	e350000b 	cmp	r0, #11	; 0xb
a3000820:	13500009 	cmpne	r0, #9	; 0x9
a3000824:	13a00000 	movne	r0, #0	; 0x0
a3000828:	03a00001 	moveq	r0, #1	; 0x1
a300082c:	e12fff1e 	bx	lr
a3000830:	e3a00001 	mov	r0, #1	; 0x1
a3000834:	e12fff1e 	bx	lr

a3000838 <isupper>:
a3000838:	e2400041 	sub	r0, r0, #65	; 0x41
a300083c:	e3500019 	cmp	r0, #25	; 0x19
a3000840:	83a00000 	movhi	r0, #0	; 0x0
a3000844:	93a00001 	movls	r0, #1	; 0x1
a3000848:	e12fff1e 	bx	lr

a300084c <isalpha>:
a300084c:	e2403061 	sub	r3, r0, #97	; 0x61
a3000850:	e3530019 	cmp	r3, #25	; 0x19
a3000854:	e2400041 	sub	r0, r0, #65	; 0x41
a3000858:	e3a03001 	mov	r3, #1	; 0x1
a300085c:	9a000002 	bls	a300086c <isalpha+0x20>
a3000860:	e3500019 	cmp	r0, #25	; 0x19
a3000864:	83a03000 	movhi	r3, #0	; 0x0
a3000868:	93a03001 	movls	r3, #1	; 0x1
a300086c:	e1a00003 	mov	r0, r3
a3000870:	e12fff1e 	bx	lr

a3000874 <isalnum>:
a3000874:	e92d4010 	stmdb	sp!, {r4, lr}
a3000878:	e1a04000 	mov	r4, r0
a300087c:	ebfffff2 	bl	a300084c <isalpha>
a3000880:	e3500000 	cmp	r0, #0	; 0x0
a3000884:	e2444030 	sub	r4, r4, #48	; 0x30
a3000888:	e3a00001 	mov	r0, #1	; 0x1
a300088c:	1a000002 	bne	a300089c <isalnum+0x28>
a3000890:	e3540009 	cmp	r4, #9	; 0x9
a3000894:	83a00000 	movhi	r0, #0	; 0x0
a3000898:	93a00001 	movls	r0, #1	; 0x1
a300089c:	e8bd8010 	ldmia	sp!, {r4, pc}

a30008a0 <tolower>:
a30008a0:	e2403041 	sub	r3, r0, #65	; 0x41
a30008a4:	e3530019 	cmp	r3, #25	; 0x19
a30008a8:	92800020 	addls	r0, r0, #32	; 0x20
a30008ac:	e12fff1e 	bx	lr

a30008b0 <isxdigit>:
a30008b0:	e2403030 	sub	r3, r0, #48	; 0x30
a30008b4:	e3530009 	cmp	r3, #9	; 0x9
a30008b8:	e2402041 	sub	r2, r0, #65	; 0x41
a30008bc:	9a000006 	bls	a30008dc <isxdigit+0x2c>
a30008c0:	e3520005 	cmp	r2, #5	; 0x5
a30008c4:	e2400061 	sub	r0, r0, #97	; 0x61
a30008c8:	9a000003 	bls	a30008dc <isxdigit+0x2c>
a30008cc:	e3500005 	cmp	r0, #5	; 0x5
a30008d0:	83a00000 	movhi	r0, #0	; 0x0
a30008d4:	93a00001 	movls	r0, #1	; 0x1
a30008d8:	e12fff1e 	bx	lr
a30008dc:	e3a00001 	mov	r0, #1	; 0x1
a30008e0:	e12fff1e 	bx	lr

a30008e4 <ispunct>:
a30008e4:	e2403021 	sub	r3, r0, #33	; 0x21
a30008e8:	e353005d 	cmp	r3, #93	; 0x5d
a30008ec:	e52de004 	str	lr, [sp, #-4]!
a30008f0:	e3a03000 	mov	r3, #0	; 0x0
a30008f4:	8a000002 	bhi	a3000904 <ispunct+0x20>
a30008f8:	ebffffdd 	bl	a3000874 <isalnum>
a30008fc:	e2703001 	rsbs	r3, r0, #1	; 0x1
a3000900:	33a03000 	movcc	r3, #0	; 0x0
a3000904:	e1a00003 	mov	r0, r3
a3000908:	e49df004 	ldr	pc, [sp], #4

a300090c <toupper>:
a300090c:	e2403061 	sub	r3, r0, #97	; 0x61
a3000910:	e3530019 	cmp	r3, #25	; 0x19
a3000914:	92400020 	subls	r0, r0, #32	; 0x20
a3000918:	e12fff1e 	bx	lr

a300091c <abort_handler>:
a300091c:	e92d5fff 	stmdb	sp!, {r0, r1, r2, r3, r4, r5, r6, r7, r8, r9, sl, fp, ip, lr}
a3000920:	e10fc000 	mrs	ip, CPSR
a3000924:	e14f6000 	mrs	r6, SPSR
a3000928:	e1a07006 	mov	r7, r6
a300092c:	e316000f 	tst	r6, #15	; 0xf
a3000930:	0386600f 	orreq	r6, r6, #15	; 0xf
a3000934:	e129f006 	msr	CPSR_fc, r6
a3000938:	e1a00008 	mov	r0, r8
a300093c:	e1a01009 	mov	r1, r9
a3000940:	e1a0200a 	mov	r2, sl
a3000944:	e1a0300b 	mov	r3, fp
a3000948:	e1a0400c 	mov	r4, ip
a300094c:	e1a0500e 	mov	r5, lr
a3000950:	e1a0600d 	mov	r6, sp
a3000954:	e129f00c 	msr	CPSR_fc, ip
a3000958:	e92d00ff 	stmdb	sp!, {r0, r1, r2, r3, r4, r5, r6, r7}
a300095c:	e1a0000d 	mov	r0, sp
a3000960:	eafffda8 	b	a3000008 <register_dump>

a3000964 <S_HANDLER>:
a3000964:	e92d5fff 	stmdb	sp!, {r0, r1, r2, r3, r4, r5, r6, r7, r8, r9, sl, fp, ip, lr}
a3000968:	e59fc040 	ldr	ip, [pc, #64]	; a30009b0 <.text+0x9b0>
a300096c:	e14f5000 	mrs	r5, SPSR
a3000970:	e58c5000 	str	r5, [ip]
a3000974:	e59fc038 	ldr	ip, [pc, #56]	; a30009b4 <.text+0x9b4>
a3000978:	e59c8000 	ldr	r8, [ip]
a300097c:	e10f0000 	mrs	r0, CPSR
a3000980:	e3c00080 	bic	r0, r0, #128	; 0x80
a3000984:	e129f000 	msr	CPSR_fc, r0
a3000988:	e1a0100d 	mov	r1, sp
a300098c:	e51e0004 	ldr	r0, [lr, #-4]
a3000990:	e200000f 	and	r0, r0, #15	; 0xf
a3000994:	eb000096 	bl	a3000bf4 <c_swi_handler>
a3000998:	e59fc010 	ldr	ip, [pc, #16]	; a30009b0 <.text+0x9b0>
a300099c:	e59c5000 	ldr	r5, [ip]
a30009a0:	e169f005 	msr	SPSR_fc, r5
a30009a4:	e58d0000 	str	r0, [sp]
a30009a8:	e8bd5fff 	ldmia	sp!, {r0, r1, r2, r3, r4, r5, r6, r7, r8, r9, sl, fp, ip, lr}
a30009ac:	e1b0f00e 	movs	pc, lr
a30009b0:	a3002010 	movwge	r2, #16	; 0x10
a30009b4:	a3002014 	movwge	r2, #20	; 0x14

a30009b8 <_exit>:
a30009b8:	e3a014a3 	mov	r1, #-1560281088	; 0xa3000000
a30009bc:	e2411008 	sub	r1, r1, #8	; 0x8
a30009c0:	e591f000 	ldr	pc, [r1]

a30009c4 <_enable_user_prog>:
a30009c4:	e92d5ffe 	stmdb	sp!, {r1, r2, r3, r4, r5, r6, r7, r8, r9, sl, fp, ip, lr}
a30009c8:	e3a034a3 	mov	r3, #-1560281088	; 0xa3000000
a30009cc:	e2433004 	sub	r3, r3, #4	; 0x4
a30009d0:	e583d000 	str	sp, [r3]
a30009d4:	e2433004 	sub	r3, r3, #4	; 0x4
a30009d8:	e28f200c 	add	r2, pc, #12	; 0xc
a30009dc:	e5832000 	str	r2, [r3]
a30009e0:	e329f050 	msr	CPSR_fc, #80	; 0x50
a30009e4:	e1a0d000 	mov	sp, r0
a30009e8:	e1a0f001 	mov	pc, r1
a30009ec:	e10f2000 	mrs	r2, CPSR
a30009f0:	e3c220c0 	bic	r2, r2, #192	; 0xc0
a30009f4:	e129f002 	msr	CPSR_fc, r2
a30009f8:	e3a014a3 	mov	r1, #-1560281088	; 0xa3000000
a30009fc:	e2411004 	sub	r1, r1, #4	; 0x4
a3000a00:	e591d000 	ldr	sp, [r1]
a3000a04:	e8bd5ffe 	ldmia	sp!, {r1, r2, r3, r4, r5, r6, r7, r8, r9, sl, fp, ip, lr}
a3000a08:	e1a0f00e 	mov	pc, lr

a3000a0c <_check_inst>:
a3000a0c:	e92d5ffe 	stmdb	sp!, {r1, r2, r3, r4, r5, r6, r7, r8, r9, sl, fp, ip, lr}
a3000a10:	e3c000ff 	bic	r0, r0, #255	; 0xff
a3000a14:	e3c00c0f 	bic	r0, r0, #3840	; 0xf00
a3000a18:	e8bd5ffe 	ldmia	sp!, {r1, r2, r3, r4, r5, r6, r7, r8, r9, sl, fp, ip, lr}
a3000a1c:	e1a0f00e 	mov	pc, lr

a3000a20 <_get_imm>:
a3000a20:	e92d5ffe 	stmdb	sp!, {r1, r2, r3, r4, r5, r6, r7, r8, r9, sl, fp, ip, lr}
a3000a24:	e59f1008 	ldr	r1, [pc, #8]	; a3000a34 <.text+0xa34>
a3000a28:	e1c00001 	bic	r0, r0, r1
a3000a2c:	e8bd5ffe 	ldmia	sp!, {r1, r2, r3, r4, r5, r6, r7, r8, r9, sl, fp, ip, lr}
a3000a30:	e1a0f00e 	mov	pc, lr
a3000a34:	fffff000 	undefined instruction 0xfffff000

a3000a38 <setup_stack>:
a3000a38:	e52de004 	str	lr, [sp, #-4]!
a3000a3c:	e0822101 	add	r2, r2, r1, lsl #2
a3000a40:	e2400008 	sub	r0, r0, #8	; 0x8
a3000a44:	e2422004 	sub	r2, r2, #4	; 0x4
a3000a48:	e1a0c001 	mov	ip, r1
a3000a4c:	ea000002 	b	a3000a5c <setup_stack+0x24>
a3000a50:	e5923004 	ldr	r3, [r2, #4]
a3000a54:	e5003004 	str	r3, [r0, #-4]
a3000a58:	e1a0000e 	mov	r0, lr
a3000a5c:	e25cc001 	subs	ip, ip, #1	; 0x1
a3000a60:	e2422004 	sub	r2, r2, #4	; 0x4
a3000a64:	e240e004 	sub	lr, r0, #4	; 0x4
a3000a68:	5afffff8 	bpl	a3000a50 <setup_stack+0x18>
a3000a6c:	e5001004 	str	r1, [r0, #-4]
a3000a70:	e1a0000e 	mov	r0, lr
a3000a74:	e49df004 	ldr	pc, [sp], #4

a3000a78 <uninstall_handler>:
a3000a78:	e5903000 	ldr	r3, [r0]
a3000a7c:	e5902008 	ldr	r2, [r0, #8]
a3000a80:	e5823000 	str	r3, [r2]
a3000a84:	e5903004 	ldr	r3, [r0, #4]
a3000a88:	e5823004 	str	r3, [r2, #4]
a3000a8c:	e12fff1e 	bx	lr

a3000a90 <initialize_timer>:
a3000a90:	e59f304c 	ldr	r3, [pc, #76]	; a3000ae4 <.text+0xae4>
a3000a94:	e52de004 	str	lr, [sp, #-4]!
a3000a98:	e5933000 	ldr	r3, [r3]
a3000a9c:	e59f0044 	ldr	r0, [pc, #68]	; a3000ae8 <.text+0xae8>
a3000aa0:	e3530001 	cmp	r3, #1	; 0x1
a3000aa4:	1a000000 	bne	a3000aac <initialize_timer+0x1c>
a3000aa8:	eb00031d 	bl	a3001724 <puts>
a3000aac:	e59f1038 	ldr	r1, [pc, #56]	; a3000aec <.text+0xaec>
a3000ab0:	e3a03303 	mov	r3, #201326592	; 0xc000000
a3000ab4:	e59f2034 	ldr	r2, [pc, #52]	; a3000af0 <.text+0xaf0>
a3000ab8:	e5813004 	str	r3, [r1, #4]
a3000abc:	e59f3030 	ldr	r3, [pc, #48]	; a3000af4 <.text+0xaf4>
a3000ac0:	e3a00000 	mov	r0, #0	; 0x0
a3000ac4:	e5810008 	str	r0, [r1, #8]
a3000ac8:	e5823004 	str	r3, [r2, #4]
a3000acc:	e3a03002 	mov	r3, #2	; 0x2
a3000ad0:	e5820010 	str	r0, [r2, #16]
a3000ad4:	e582301c 	str	r3, [r2, #28]
a3000ad8:	e3e03000 	mvn	r3, #0	; 0x0
a3000adc:	e5823014 	str	r3, [r2, #20]
a3000ae0:	e49df004 	ldr	pc, [sp], #4
a3000ae4:	a3001ea0 	movwge	r1, #3744	; 0xea0
a3000ae8:	a3001b80 	movwge	r1, #2944	; 0xb80
a3000aec:	40d00000 	sbcmis	r0, r0, r0
a3000af0:	40a00000 	adcmi	r0, r0, r0
a3000af4:	001c2000 	andeqs	r2, ip, r0

a3000af8 <uninitialize_timer>:
a3000af8:	e59f302c 	ldr	r3, [pc, #44]	; a3000b2c <.text+0xb2c>
a3000afc:	e52de004 	str	lr, [sp, #-4]!
a3000b00:	e5933000 	ldr	r3, [r3]
a3000b04:	e59f0024 	ldr	r0, [pc, #36]	; a3000b30 <.text+0xb30>
a3000b08:	e3530001 	cmp	r3, #1	; 0x1
a3000b0c:	1a000000 	bne	a3000b14 <uninitialize_timer+0x1c>
a3000b10:	eb000303 	bl	a3001724 <puts>
a3000b14:	e59f2018 	ldr	r2, [pc, #24]	; a3000b34 <.text+0xb34>
a3000b18:	e3a03000 	mov	r3, #0	; 0x0
a3000b1c:	e5823004 	str	r3, [r2, #4]
a3000b20:	e2422603 	sub	r2, r2, #3145728	; 0x300000
a3000b24:	e582301c 	str	r3, [r2, #28]
a3000b28:	e49df004 	ldr	pc, [sp], #4
a3000b2c:	a3001ea0 	movwge	r1, #3744	; 0xea0
a3000b30:	a3001ba8 	movwge	r1, #2984	; 0xba8
a3000b34:	40d00000 	sbcmis	r0, r0, r0

a3000b38 <c_irq_handler>:
a3000b38:	e92d4070 	stmdb	sp!, {r4, r5, r6, lr}
a3000b3c:	e59f6080 	ldr	r6, [pc, #128]	; a3000bc4 <.text+0xbc4>
a3000b40:	e59f5080 	ldr	r5, [pc, #128]	; a3000bc8 <.text+0xbc8>
a3000b44:	e59f0080 	ldr	r0, [pc, #128]	; a3000bcc <.text+0xbcc>
a3000b48:	e5963000 	ldr	r3, [r6]
a3000b4c:	e5954014 	ldr	r4, [r5, #20]
a3000b50:	e3530001 	cmp	r3, #1	; 0x1
a3000b54:	1a000000 	bne	a3000b5c <c_irq_handler+0x24>
a3000b58:	eb0002f1 	bl	a3001724 <puts>
a3000b5c:	e3140002 	tst	r4, #2	; 0x2
a3000b60:	0a000016 	beq	a3000bc0 <c_irq_handler+0x88>
a3000b64:	e5963000 	ldr	r3, [r6]
a3000b68:	e59f0060 	ldr	r0, [pc, #96]	; a3000bd0 <.text+0xbd0>
a3000b6c:	e3530001 	cmp	r3, #1	; 0x1
a3000b70:	1a000000 	bne	a3000b78 <c_irq_handler+0x40>
a3000b74:	eb0002ea 	bl	a3001724 <puts>
a3000b78:	e3a03000 	mov	r3, #0	; 0x0
a3000b7c:	e5853010 	str	r3, [r5, #16]
a3000b80:	e59f304c 	ldr	r3, [pc, #76]	; a3000bd4 <.text+0xbd4>
a3000b84:	e59f204c 	ldr	r2, [pc, #76]	; a3000bd8 <.text+0xbd8>
a3000b88:	e5853004 	str	r3, [r5, #4]
a3000b8c:	e3e03000 	mvn	r3, #0	; 0x0
a3000b90:	e5853014 	str	r3, [r5, #20]
a3000b94:	e5923000 	ldr	r3, [r2]
a3000b98:	e2833f7d 	add	r3, r3, #500	; 0x1f4
a3000b9c:	e5823000 	str	r3, [r2]
a3000ba0:	e5920000 	ldr	r0, [r2]
a3000ba4:	ebfffed0 	bl	a30006ec <dev_update>
a3000ba8:	e5963000 	ldr	r3, [r6]
a3000bac:	e59f0028 	ldr	r0, [pc, #40]	; a3000bdc <.text+0xbdc>
a3000bb0:	e3530001 	cmp	r3, #1	; 0x1
a3000bb4:	1a000001 	bne	a3000bc0 <c_irq_handler+0x88>
a3000bb8:	e8bd4070 	ldmia	sp!, {r4, r5, r6, lr}
a3000bbc:	ea0002d8 	b	a3001724 <puts>
a3000bc0:	e8bd8070 	ldmia	sp!, {r4, r5, r6, pc}
a3000bc4:	a3001ea0 	movwge	r1, #3744	; 0xea0
a3000bc8:	40a00000 	adcmi	r0, r0, r0
a3000bcc:	a3001bd8 	movwge	r1, #3032	; 0xbd8
a3000bd0:	a3001bf0 	movwge	r1, #3056	; 0xbf0
a3000bd4:	001c2000 	andeqs	r2, ip, r0
a3000bd8:	a3001eec 	movwge	r1, #3820	; 0xeec
a3000bdc:	a3001c08 	movwge	r1, #3080	; 0xc08

a3000be0 <R_HANDLER>:
a3000be0:	e92d5fff 	stmdb	sp!, {r0, r1, r2, r3, r4, r5, r6, r7, r8, r9, sl, fp, ip, lr}
a3000be4:	ebffffd3 	bl	a3000b38 <c_irq_handler>
a3000be8:	e8bd5fff 	ldmia	sp!, {r0, r1, r2, r3, r4, r5, r6, r7, r8, r9, sl, fp, ip, lr}
a3000bec:	e25ef004 	subs	pc, lr, #4	; 0x4

a3000bf0 <c_exit>:
a3000bf0:	eaffff70 	b	a30009b8 <_exit>

a3000bf4 <c_swi_handler>:
a3000bf4:	e59f3100 	ldr	r3, [pc, #256]	; a3000cfc <.text+0xcfc>
a3000bf8:	e92d4030 	stmdb	sp!, {r4, r5, lr}
a3000bfc:	e5933000 	ldr	r3, [r3]
a3000c00:	e1a05000 	mov	r5, r0
a3000c04:	e1a04001 	mov	r4, r1
a3000c08:	e3530001 	cmp	r3, #1	; 0x1
a3000c0c:	1a000002 	bne	a3000c1c <c_swi_handler+0x28>
a3000c10:	e59f00e8 	ldr	r0, [pc, #232]	; a3000d00 <.text+0xd00>
a3000c14:	e1a01005 	mov	r1, r5
a3000c18:	eb0002c3 	bl	a300172c <printf>
a3000c1c:	e2453001 	sub	r3, r5, #1	; 0x1
a3000c20:	e3530013 	cmp	r3, #19	; 0x13
a3000c24:	979ff103 	ldrls	pc, [pc, r3, lsl #2]
a3000c28:	ea00002f 	b	a3000cec <.text+0xcec>
a3000c2c:	a3000c7c 	movwge	r0, #3196	; 0xc7c
a3000c30:	a3000cec 	movwge	r0, #3308	; 0xcec
a3000c34:	a3000c88 	movwge	r0, #3208	; 0xc88
a3000c38:	a3000c94 	movwge	r0, #3220	; 0xc94
a3000c3c:	a3000cec 	movwge	r0, #3308	; 0xcec
a3000c40:	a3000ca0 	movwge	r0, #3232	; 0xca0
a3000c44:	a3000ca8 	movwge	r0, #3240	; 0xca8
a3000c48:	a3000cec 	movwge	r0, #3308	; 0xcec
a3000c4c:	a3000cec 	movwge	r0, #3308	; 0xcec
a3000c50:	a3000cb4 	movwge	r0, #3252	; 0xcb4
a3000c54:	a3000cec 	movwge	r0, #3308	; 0xcec
a3000c58:	a3000cec 	movwge	r0, #3308	; 0xcec
a3000c5c:	a3000cec 	movwge	r0, #3308	; 0xcec
a3000c60:	a3000cec 	movwge	r0, #3308	; 0xcec
a3000c64:	a3000cc0 	movwge	r0, #3264	; 0xcc0
a3000c68:	a3000cc8 	movwge	r0, #3272	; 0xcc8
a3000c6c:	a3000cd4 	movwge	r0, #3284	; 0xcd4
a3000c70:	a3000cec 	movwge	r0, #3308	; 0xcec
a3000c74:	a3000cec 	movwge	r0, #3308	; 0xcec
a3000c78:	a3000ce0 	movwge	r0, #3296	; 0xce0
a3000c7c:	e5940000 	ldr	r0, [r4]
a3000c80:	ebffffda 	bl	a3000bf0 <c_exit>
a3000c84:	ea00001a 	b	a3000cf4 <.text+0xcf4>
a3000c88:	e8940007 	ldmia	r4, {r0, r1, r2}
a3000c8c:	e8bd4030 	ldmia	sp!, {r4, r5, lr}
a3000c90:	ea000073 	b	a3000e64 <read_syscall>
a3000c94:	e8940007 	ldmia	r4, {r0, r1, r2}
a3000c98:	e8bd4030 	ldmia	sp!, {r4, r5, lr}
a3000c9c:	ea000047 	b	a3000dc0 <write_syscall>
a3000ca0:	e8bd4030 	ldmia	sp!, {r4, r5, lr}
a3000ca4:	ea0000cb 	b	a3000fd8 <time_syscall>
a3000ca8:	e5940000 	ldr	r0, [r4]
a3000cac:	eb0000d3 	bl	a3001000 <sleep_syscall>
a3000cb0:	ea00000f 	b	a3000cf4 <.text+0xcf4>
a3000cb4:	e8940003 	ldmia	r4, {r0, r1}
a3000cb8:	e8bd4030 	ldmia	sp!, {r4, r5, lr}
a3000cbc:	ea0000a8 	b	a3000f64 <task_create>
a3000cc0:	e8bd4030 	ldmia	sp!, {r4, r5, lr}
a3000cc4:	ea000231 	b	a3001590 <mutex_create>
a3000cc8:	e5940000 	ldr	r0, [r4]
a3000ccc:	e8bd4030 	ldmia	sp!, {r4, r5, lr}
a3000cd0:	ea00024c 	b	a3001608 <mutex_lock>
a3000cd4:	e5940000 	ldr	r0, [r4]
a3000cd8:	e8bd4030 	ldmia	sp!, {r4, r5, lr}
a3000cdc:	ea0001e6 	b	a300147c <mutex_unlock>
a3000ce0:	e5940000 	ldr	r0, [r4]
a3000ce4:	e8bd4030 	ldmia	sp!, {r4, r5, lr}
a3000ce8:	ea000098 	b	a3000f50 <event_wait>
a3000cec:	e59f0010 	ldr	r0, [pc, #16]	; a3000d04 <.text+0xd04>
a3000cf0:	eb00008e 	bl	a3000f30 <invalid_syscall>
a3000cf4:	e3a00000 	mov	r0, #0	; 0x0
a3000cf8:	e8bd8030 	ldmia	sp!, {r4, r5, pc}
a3000cfc:	a3001ea0 	movwge	r1, #3744	; 0xea0
a3000d00:	a3001c20 	movwge	r1, #3104	; 0xc20
a3000d04:	0badc0de 	bleq	a1b71084 <_start-0x148ef7c>

a3000d08 <reg_read>:
a3000d08:	e2800101 	add	r0, r0, #1073741824	; 0x40000000
a3000d0c:	e5900000 	ldr	r0, [r0]
a3000d10:	e12fff1e 	bx	lr

a3000d14 <reg_write>:
a3000d14:	e2800101 	add	r0, r0, #1073741824	; 0x40000000
a3000d18:	e5801000 	str	r1, [r0]
a3000d1c:	e12fff1e 	bx	lr

a3000d20 <reg_set>:
a3000d20:	e2800101 	add	r0, r0, #1073741824	; 0x40000000
a3000d24:	e5903000 	ldr	r3, [r0]
a3000d28:	e1833001 	orr	r3, r3, r1
a3000d2c:	e5803000 	str	r3, [r0]
a3000d30:	e12fff1e 	bx	lr

a3000d34 <reg_clear>:
a3000d34:	e2800101 	add	r0, r0, #1073741824	; 0x40000000
a3000d38:	e5903000 	ldr	r3, [r0]
a3000d3c:	e1c33001 	bic	r3, r3, r1
a3000d40:	e5803000 	str	r3, [r0]
a3000d44:	e12fff1e 	bx	lr

a3000d48 <read_cpsr>:
a3000d48:	e10f0000 	mrs	r0, CPSR
a3000d4c:	e12fff1e 	bx	lr

a3000d50 <write_cpsr>:
a3000d50:	e129f000 	msr	CPSR_fc, r0
a3000d54:	e12fff1e 	bx	lr

a3000d58 <irq_wrapper>:
a3000d58:	e59ff050 	ldr	pc, [pc, #80]	; a3000db0 <.text+0xdb0>
a3000d5c:	e24ee004 	sub	lr, lr, #4	; 0x4
a3000d60:	e59fd04c 	ldr	sp, [pc, #76]	; a3000db4 <.text+0xdb4>
a3000d64:	e92d0003 	stmdb	sp!, {r0, r1}
a3000d68:	e14f0000 	mrs	r0, SPSR
a3000d6c:	e1a0100e 	mov	r1, lr
a3000d70:	e321f093 	msr	CPSR_c, #147	; 0x93
a3000d74:	e169f000 	msr	SPSR_fc, r0
a3000d78:	e92d0002 	stmdb	sp!, {r1}
a3000d7c:	e59f1034 	ldr	r1, [pc, #52]	; a3000db8 <.text+0xdb8>
a3000d80:	e8910003 	ldmia	r1, {r0, r1}
a3000d84:	e92d510f 	stmdb	sp!, {r0, r1, r2, r3, r8, ip, lr}
a3000d88:	e14f0000 	mrs	r0, SPSR
a3000d8c:	e94d6001 	stmdb	sp, {r0, sp, lr}^
a3000d90:	e24dd00c 	sub	sp, sp, #12	; 0xc
a3000d94:	e59fc020 	ldr	ip, [pc, #32]	; a3000dbc <.text+0xdbc>
a3000d98:	e59c8000 	ldr	r8, [ip]
a3000d9c:	ebffff65 	bl	a3000b38 <c_irq_handler>
a3000da0:	e8dd6001 	ldmia	sp, {r0, sp, lr}^
a3000da4:	e28dd00c 	add	sp, sp, #12	; 0xc
a3000da8:	e169f000 	msr	SPSR_fc, r0
a3000dac:	e8fdd10f 	ldmia	sp!, {r0, r1, r2, r3, r8, ip, lr, pc}^
a3000db0:	deadbeef 	cdple	14, 10, cr11, cr13, cr15, {7}
a3000db4:	a3001f00 	movwge	r1, #3840	; 0xf00
a3000db8:	a3001ef8 	movwge	r1, #3832	; 0xef8
a3000dbc:	a3002014 	movwge	r2, #20	; 0x14

a3000dc0 <write_syscall>:
a3000dc0:	e3500001 	cmp	r0, #1	; 0x1
a3000dc4:	e92d40f0 	stmdb	sp!, {r4, r5, r6, r7, lr}
a3000dc8:	e1a07001 	mov	r7, r1
a3000dcc:	e1a06002 	mov	r6, r2
a3000dd0:	0a000007 	beq	a3000df4 <write_syscall+0x34>
a3000dd4:	e59f307c 	ldr	r3, [pc, #124]	; a3000e58 <.text+0xe58>
a3000dd8:	e5933000 	ldr	r3, [r3]
a3000ddc:	e3530001 	cmp	r3, #1	; 0x1
a3000de0:	1a000001 	bne	a3000dec <write_syscall+0x2c>
a3000de4:	e59f0070 	ldr	r0, [pc, #112]	; a3000e5c <.text+0xe5c>
a3000de8:	eb00024f 	bl	a300172c <printf>
a3000dec:	e3e00008 	mvn	r0, #8	; 0x8
a3000df0:	e8bd80f0 	ldmia	sp!, {r4, r5, r6, r7, pc}
a3000df4:	e1a00001 	mov	r0, r1
a3000df8:	e3a0320a 	mov	r3, #-1610612736	; 0xa0000000
a3000dfc:	e1a01002 	mov	r1, r2
a3000e00:	e3a02401 	mov	r2, #16777216	; 0x1000000
a3000e04:	ebfffd3a 	bl	a30002f4 <valid_addr>
a3000e08:	e3500001 	cmp	r0, #1	; 0x1
a3000e0c:	11a04006 	movne	r4, r6
a3000e10:	13a05000 	movne	r5, #0	; 0x0
a3000e14:	1a00000a 	bne	a3000e44 <write_syscall+0x84>
a3000e18:	e59f3038 	ldr	r3, [pc, #56]	; a3000e58 <.text+0xe58>
a3000e1c:	e5933000 	ldr	r3, [r3]
a3000e20:	e3530001 	cmp	r3, #1	; 0x1
a3000e24:	1a000001 	bne	a3000e30 <write_syscall+0x70>
a3000e28:	e59f0030 	ldr	r0, [pc, #48]	; a3000e60 <.text+0xe60>
a3000e2c:	eb00023e 	bl	a300172c <printf>
a3000e30:	e3e0000d 	mvn	r0, #13	; 0xd
a3000e34:	e8bd80f0 	ldmia	sp!, {r4, r5, r6, r7, pc}
a3000e38:	e7d50007 	ldrb	r0, [r5, r7]
a3000e3c:	e2855001 	add	r5, r5, #1	; 0x1
a3000e40:	eb000235 	bl	a300171c <putc>
a3000e44:	e3540000 	cmp	r4, #0	; 0x0
a3000e48:	e2444001 	sub	r4, r4, #1	; 0x1
a3000e4c:	1afffff9 	bne	a3000e38 <write_syscall+0x78>
a3000e50:	e1a00006 	mov	r0, r6
a3000e54:	e8bd80f0 	ldmia	sp!, {r4, r5, r6, r7, pc}
a3000e58:	a3001ea0 	movwge	r1, #3744	; 0xea0
a3000e5c:	a3001c40 	movwge	r1, #3136	; 0xc40
a3000e60:	a3001c58 	movwge	r1, #3160	; 0xc58

a3000e64 <read_syscall>:
a3000e64:	e92d4070 	stmdb	sp!, {r4, r5, r6, lr}
a3000e68:	e2504000 	subs	r4, r0, #0	; 0x0
a3000e6c:	e1a05001 	mov	r5, r1
a3000e70:	e1a06002 	mov	r6, r2
a3000e74:	0a000001 	beq	a3000e80 <read_syscall+0x1c>
a3000e78:	e3e00008 	mvn	r0, #8	; 0x8
a3000e7c:	e8bd8070 	ldmia	sp!, {r4, r5, r6, pc}
a3000e80:	e1a00001 	mov	r0, r1
a3000e84:	e3a0320a 	mov	r3, #-1610612736	; 0xa0000000
a3000e88:	e1a01002 	mov	r1, r2
a3000e8c:	e3a02401 	mov	r2, #16777216	; 0x1000000
a3000e90:	ebfffd17 	bl	a30002f4 <valid_addr>
a3000e94:	e3500001 	cmp	r0, #1	; 0x1
a3000e98:	1a00001f 	bne	a3000f1c <read_syscall+0xb8>
a3000e9c:	e3e0000d 	mvn	r0, #13	; 0xd
a3000ea0:	e8bd8070 	ldmia	sp!, {r4, r5, r6, pc}
a3000ea4:	eb000218 	bl	a300170c <getc>
a3000ea8:	e20000ff 	and	r0, r0, #255	; 0xff
a3000eac:	e350000a 	cmp	r0, #10	; 0xa
a3000eb0:	0a000012 	beq	a3000f00 <read_syscall+0x9c>
a3000eb4:	8a000003 	bhi	a3000ec8 <read_syscall+0x64>
a3000eb8:	e3500004 	cmp	r0, #4	; 0x4
a3000ebc:	0a000006 	beq	a3000edc <read_syscall+0x78>
a3000ec0:	e3500008 	cmp	r0, #8	; 0x8
a3000ec4:	ea000002 	b	a3000ed4 <read_syscall+0x70>
a3000ec8:	e350000d 	cmp	r0, #13	; 0xd
a3000ecc:	0a00000a 	beq	a3000efc <read_syscall+0x98>
a3000ed0:	e350007f 	cmp	r0, #127	; 0x7f
a3000ed4:	1a00000d 	bne	a3000f10 <read_syscall+0xac>
a3000ed8:	ea000001 	b	a3000ee4 <read_syscall+0x80>
a3000edc:	e1a00004 	mov	r0, r4
a3000ee0:	e8bd8070 	ldmia	sp!, {r4, r5, r6, pc}
a3000ee4:	e2444001 	sub	r4, r4, #1	; 0x1
a3000ee8:	e3a03000 	mov	r3, #0	; 0x0
a3000eec:	e7c53004 	strb	r3, [r5, r4]
a3000ef0:	e59f0034 	ldr	r0, [pc, #52]	; a3000f2c <.text+0xf2c>
a3000ef4:	eb00020a 	bl	a3001724 <puts>
a3000ef8:	ea000007 	b	a3000f1c <read_syscall+0xb8>
a3000efc:	e3a0000a 	mov	r0, #10	; 0xa
a3000f00:	e7c50004 	strb	r0, [r5, r4]
a3000f04:	eb000204 	bl	a300171c <putc>
a3000f08:	e2840001 	add	r0, r4, #1	; 0x1
a3000f0c:	e8bd8070 	ldmia	sp!, {r4, r5, r6, pc}
a3000f10:	e7c50004 	strb	r0, [r5, r4]
a3000f14:	e2844001 	add	r4, r4, #1	; 0x1
a3000f18:	eb0001ff 	bl	a300171c <putc>
a3000f1c:	e1540006 	cmp	r4, r6
a3000f20:	3affffdf 	bcc	a3000ea4 <read_syscall+0x40>
a3000f24:	e1a00004 	mov	r0, r4
a3000f28:	e8bd8070 	ldmia	sp!, {r4, r5, r6, pc}
a3000f2c:	a3001c70 	movwge	r1, #3184	; 0xc70

a3000f30 <invalid_syscall>:
a3000f30:	e1a01000 	mov	r1, r0
a3000f34:	e59f0010 	ldr	r0, [pc, #16]	; a3000f4c <.text+0xf4c>
a3000f38:	eb0001fb 	bl	a300172c <printf>
a3000f3c:	e10f3000 	mrs	r3, CPSR
a3000f40:	e38330c0 	orr	r3, r3, #192	; 0xc0
a3000f44:	e121f003 	msr	CPSR_c, r3
a3000f48:	eafffffe 	b	a3000f48 <invalid_syscall+0x18>
a3000f4c:	a3001c78 	movwge	r1, #3192	; 0xc78

a3000f50 <event_wait>:
a3000f50:	e52de004 	str	lr, [sp, #-4]!
a3000f54:	ebfffe03 	bl	a3000768 <dev_wait>
a3000f58:	eb0000c4 	bl	a3001270 <dispatch_nosave>
a3000f5c:	e3a00001 	mov	r0, #1	; 0x1
a3000f60:	e49df004 	ldr	pc, [sp], #4

a3000f64 <task_create>:
a3000f64:	e92d4030 	stmdb	sp!, {r4, r5, lr}
a3000f68:	e59f505c 	ldr	r5, [pc, #92]	; a3000fcc <.text+0xfcc>
a3000f6c:	e24dd004 	sub	sp, sp, #4	; 0x4
a3000f70:	e58d0000 	str	r0, [sp]
a3000f74:	e5953000 	ldr	r3, [r5]
a3000f78:	e59f0050 	ldr	r0, [pc, #80]	; a3000fd0 <.text+0xfd0>
a3000f7c:	e1a04001 	mov	r4, r1
a3000f80:	e3530001 	cmp	r3, #1	; 0x1
a3000f84:	1a000000 	bne	a3000f8c <task_create+0x28>
a3000f88:	eb0001e5 	bl	a3001724 <puts>
a3000f8c:	e354003e 	cmp	r4, #62	; 0x3e
a3000f90:	e1a01004 	mov	r1, r4
a3000f94:	e1a0000d 	mov	r0, sp
a3000f98:	e3a03016 	mov	r3, #22	; 0x16
a3000f9c:	8a000007 	bhi	a3000fc0 <task_create+0x5c>
a3000fa0:	eb000031 	bl	a300106c <allocate_tasks>
a3000fa4:	e5953000 	ldr	r3, [r5]
a3000fa8:	e59f0024 	ldr	r0, [pc, #36]	; a3000fd4 <.text+0xfd4>
a3000fac:	e3530001 	cmp	r3, #1	; 0x1
a3000fb0:	1a000000 	bne	a3000fb8 <task_create+0x54>
a3000fb4:	eb0001da 	bl	a3001724 <puts>
a3000fb8:	eb0000ac 	bl	a3001270 <dispatch_nosave>
a3000fbc:	e3a03001 	mov	r3, #1	; 0x1
a3000fc0:	e1a00003 	mov	r0, r3
a3000fc4:	e28dd004 	add	sp, sp, #4	; 0x4
a3000fc8:	e8bd8030 	ldmia	sp!, {r4, r5, pc}
a3000fcc:	a3001ea0 	movwge	r1, #3744	; 0xea0
a3000fd0:	a3001ca8 	movwge	r1, #3240	; 0xca8
a3000fd4:	a3001cb8 	movwge	r1, #3256	; 0xcb8

a3000fd8 <time_syscall>:
a3000fd8:	e10f3000 	mrs	r3, CPSR
a3000fdc:	e38330c0 	orr	r3, r3, #192	; 0xc0
a3000fe0:	e121f003 	msr	CPSR_c, r3
a3000fe4:	e59f3010 	ldr	r3, [pc, #16]	; a3000ffc <.text+0xffc>
a3000fe8:	e5930000 	ldr	r0, [r3]
a3000fec:	e10f3000 	mrs	r3, CPSR
a3000ff0:	e3c330c0 	bic	r3, r3, #192	; 0xc0
a3000ff4:	e121f003 	msr	CPSR_c, r3
a3000ff8:	e12fff1e 	bx	lr
a3000ffc:	a3001eec 	movwge	r1, #3820	; 0xeec

a3001000 <sleep_syscall>:
a3001000:	e10f3000 	mrs	r3, CPSR
a3001004:	e38330c0 	orr	r3, r3, #192	; 0xc0
a3001008:	e121f003 	msr	CPSR_c, r3
a300100c:	e59f3040 	ldr	r3, [pc, #64]	; a3001054 <.text+0x1054>
a3001010:	e5932000 	ldr	r2, [r3]
a3001014:	e10f3000 	mrs	r3, CPSR
a3001018:	e3c330c0 	bic	r3, r3, #192	; 0xc0
a300101c:	e121f003 	msr	CPSR_c, r3
a3001020:	e0821000 	add	r1, r2, r0
a3001024:	ea000007 	b	a3001048 <sleep_syscall+0x48>
a3001028:	e10f3000 	mrs	r3, CPSR
a300102c:	e38330c0 	orr	r3, r3, #192	; 0xc0
a3001030:	e121f003 	msr	CPSR_c, r3
a3001034:	e59f3018 	ldr	r3, [pc, #24]	; a3001054 <.text+0x1054>
a3001038:	e5932000 	ldr	r2, [r3]
a300103c:	e10f3000 	mrs	r3, CPSR
a3001040:	e3c330c0 	bic	r3, r3, #192	; 0xc0
a3001044:	e121f003 	msr	CPSR_c, r3
a3001048:	e1520001 	cmp	r2, r1
a300104c:	3afffff5 	bcc	a3001028 <sleep_syscall+0x28>
a3001050:	e12fff1e 	bx	lr
a3001054:	a3001eec 	movwge	r1, #3820	; 0xeec

a3001058 <sched_init>:
a3001058:	e12fff1e 	bx	lr

a300105c <idle>:
a300105c:	e10f3000 	mrs	r3, CPSR
a3001060:	e3c330c0 	bic	r3, r3, #192	; 0xc0
a3001064:	e121f003 	msr	CPSR_c, r3
a3001068:	eafffffe 	b	a3001068 <idle+0xc>

a300106c <allocate_tasks>:
a300106c:	e92d41f0 	stmdb	sp!, {r4, r5, r6, r7, r8, lr}
a3001070:	e59f415c 	ldr	r4, [pc, #348]	; a30011d4 <.text+0x11d4>
a3001074:	e1a05000 	mov	r5, r0
a3001078:	e1a08001 	mov	r8, r1
a300107c:	e5943000 	ldr	r3, [r4]
a3001080:	e3530001 	cmp	r3, #1	; 0x1
a3001084:	1a000001 	bne	a3001090 <allocate_tasks+0x24>
a3001088:	e59f0148 	ldr	r0, [pc, #328]	; a30011d8 <.text+0x11d8>
a300108c:	eb0001a4 	bl	a3001724 <puts>
a3001090:	eb0000b5 	bl	a300136c <runqueue_init>
a3001094:	e5943000 	ldr	r3, [r4]
a3001098:	e3530001 	cmp	r3, #1	; 0x1
a300109c:	1a000001 	bne	a30010a8 <allocate_tasks+0x3c>
a30010a0:	e59f0134 	ldr	r0, [pc, #308]	; a30011dc <.text+0x11dc>
a30010a4:	eb00019e 	bl	a3001724 <puts>
a30010a8:	e1a07005 	mov	r7, r5
a30010ac:	e3a04000 	mov	r4, #0	; 0x0
a30010b0:	e3a05001 	mov	r5, #1	; 0x1
a30010b4:	ea000017 	b	a3001118 <allocate_tasks+0xac>
a30010b8:	e5963000 	ldr	r3, [r6]
a30010bc:	e3530001 	cmp	r3, #1	; 0x1
a30010c0:	1a000000 	bne	a30010c8 <allocate_tasks+0x5c>
a30010c4:	eb000198 	bl	a300172c <printf>
a30010c8:	e59f0110 	ldr	r0, [pc, #272]	; a30011e0 <.text+0x11e0>
a30010cc:	e4973004 	ldr	r3, [r7], #4
a30010d0:	e20510ff 	and	r1, r5, #255	; 0xff
a30010d4:	e0842000 	add	r2, r4, r0
a30010d8:	e7c41000 	strb	r1, [r4, r0]
a30010dc:	e5c21001 	strb	r1, [r2, #1]
a30010e0:	e5930008 	ldr	r0, [r3, #8]
a30010e4:	e5931004 	ldr	r1, [r3, #4]
a30010e8:	e5933000 	ldr	r3, [r3]
a30010ec:	e3a0c000 	mov	ip, #0	; 0x0
a30010f0:	e2844a01 	add	r4, r4, #4096	; 0x1000
a30010f4:	e5823004 	str	r3, [r2, #4]
a30010f8:	e59f30e4 	ldr	r3, [pc, #228]	; a30011e4 <.text+0x11e4>
a30010fc:	e5821008 	str	r1, [r2, #8]
a3001100:	e2855001 	add	r5, r5, #1	; 0x1
a3001104:	e582000c 	str	r0, [r2, #12]
a3001108:	e2844038 	add	r4, r4, #56	; 0x38
a300110c:	e5823028 	str	r3, [r2, #40]
a3001110:	e582c02c 	str	ip, [r2, #44]
a3001114:	e582c030 	str	ip, [r2, #48]
a3001118:	e1550008 	cmp	r5, r8
a300111c:	e59f00c4 	ldr	r0, [pc, #196]	; a30011e8 <.text+0x11e8>
a3001120:	e2451001 	sub	r1, r5, #1	; 0x1
a3001124:	e59f60a8 	ldr	r6, [pc, #168]	; a30011d4 <.text+0x11d4>
a3001128:	1affffe2 	bne	a30010b8 <allocate_tasks+0x4c>
a300112c:	e5963000 	ldr	r3, [r6]
a3001130:	e1a04006 	mov	r4, r6
a3001134:	e3530001 	cmp	r3, #1	; 0x1
a3001138:	1a000001 	bne	a3001144 <allocate_tasks+0xd8>
a300113c:	e59f00a8 	ldr	r0, [pc, #168]	; a30011ec <.text+0x11ec>
a3001140:	eb000177 	bl	a3001724 <puts>
a3001144:	e59f20a4 	ldr	r2, [pc, #164]	; a30011f0 <.text+0x11f0>
a3001148:	e59fc0a4 	ldr	ip, [pc, #164]	; a30011f4 <.text+0x11f4>
a300114c:	e59f30a4 	ldr	r3, [pc, #164]	; a30011f8 <.text+0x11f8>
a3001150:	e3a01041 	mov	r1, #65	; 0x41
a3001154:	e7c2100c 	strb	r1, [r2, ip]
a3001158:	e7c21003 	strb	r1, [r2, r3]
a300115c:	e59f1098 	ldr	r1, [pc, #152]	; a30011fc <.text+0x11fc>
a3001160:	e2833003 	add	r3, r3, #3	; 0x3
a3001164:	e3a00000 	mov	r0, #0	; 0x0
a3001168:	e7821003 	str	r1, [r2, r3]
a300116c:	e59f1070 	ldr	r1, [pc, #112]	; a30011e4 <.text+0x11e4>
a3001170:	e2833008 	add	r3, r3, #8	; 0x8
a3001174:	e7820003 	str	r0, [r2, r3]
a3001178:	e283301c 	add	r3, r3, #28	; 0x1c
a300117c:	e7821003 	str	r1, [r2, r3]
a3001180:	e2833004 	add	r3, r3, #4	; 0x4
a3001184:	e7820003 	str	r0, [r2, r3]
a3001188:	e2833004 	add	r3, r3, #4	; 0x4
a300118c:	e7820003 	str	r0, [r2, r3]
a3001190:	e7d2100c 	ldrb	r1, [r2, ip]
a3001194:	e59f0064 	ldr	r0, [pc, #100]	; a3001200 <.text+0x1200>
a3001198:	eb000080 	bl	a30013a0 <runqueue_add>
a300119c:	e5943000 	ldr	r3, [r4]
a30011a0:	e3530001 	cmp	r3, #1	; 0x1
a30011a4:	1a000001 	bne	a30011b0 <allocate_tasks+0x144>
a30011a8:	e59f0054 	ldr	r0, [pc, #84]	; a3001204 <.text+0x1204>
a30011ac:	eb00015c 	bl	a3001724 <puts>
a30011b0:	e59f0048 	ldr	r0, [pc, #72]	; a3001200 <.text+0x1200>
a30011b4:	eb000016 	bl	a3001214 <dispatch_init>
a30011b8:	e5963000 	ldr	r3, [r6]
a30011bc:	e3530001 	cmp	r3, #1	; 0x1
a30011c0:	1a000002 	bne	a30011d0 <allocate_tasks+0x164>
a30011c4:	e59f003c 	ldr	r0, [pc, #60]	; a3001208 <.text+0x1208>
a30011c8:	e8bd41f0 	ldmia	sp!, {r4, r5, r6, r7, r8, lr}
a30011cc:	ea000154 	b	a3001724 <puts>
a30011d0:	e8bd81f0 	ldmia	sp!, {r4, r5, r6, r7, r8, pc}
a30011d4:	a3001ea0 	movwge	r1, #3744	; 0xea0
a30011d8:	a3001cd8 	movwge	r1, #3288	; 0xcd8
a30011dc:	a3001cf0 	movwge	r1, #3312	; 0xcf0
a30011e0:	a3003850 	movwge	r3, #2128	; 0x850
a30011e4:	feedbeef 	cdp2	14, 14, cr11, cr13, cr15, {7}
a30011e8:	a3001d10 	movwge	r1, #3344	; 0xd10
a30011ec:	a3001d38 	movwge	r1, #3384	; 0xd38
a30011f0:	a3002818 	movwge	r2, #2072	; 0x818
a30011f4:	0003fdc8 	andeq	pc, r3, r8, asr #27
a30011f8:	0003fdc9 	andeq	pc, r3, r9, asr #27
a30011fc:	a300105c 	movwge	r1, #92	; 0x5c
a3001200:	a30425e0 	movwge	r2, #17888	; 0x45e0
a3001204:	a3001d68 	movwge	r1, #3432	; 0xd68
a3001208:	a3001d88 	movwge	r1, #3464	; 0xd88

a300120c <assign_schedule>:
a300120c:	e3a00001 	mov	r0, #1	; 0x1
a3001210:	e12fff1e 	bx	lr

a3001214 <dispatch_init>:
a3001214:	e59f3004 	ldr	r3, [pc, #4]	; a3001220 <.text+0x1220>
a3001218:	e5830000 	str	r0, [r3]
a300121c:	e12fff1e 	bx	lr
a3001220:	a3001f00 	movwge	r1, #3840	; 0xf00

a3001224 <get_cur_prio>:
a3001224:	e59f3008 	ldr	r3, [pc, #8]	; a3001234 <.text+0x1234>
a3001228:	e5933000 	ldr	r3, [r3]
a300122c:	e5d30001 	ldrb	r0, [r3, #1]
a3001230:	e12fff1e 	bx	lr
a3001234:	a3001f00 	movwge	r1, #3840	; 0xf00

a3001238 <get_cur_tcb>:
a3001238:	e59f3004 	ldr	r3, [pc, #4]	; a3001244 <.text+0x1244>
a300123c:	e5930000 	ldr	r0, [r3]
a3001240:	e12fff1e 	bx	lr
a3001244:	a3001f00 	movwge	r1, #3840	; 0xf00

a3001248 <dispatch_sleep>:
a3001248:	e92d4030 	stmdb	sp!, {r4, r5, lr}
a300124c:	e59f5018 	ldr	r5, [pc, #24]	; a300126c <.text+0x126c>
a3001250:	e5954000 	ldr	r4, [r5]
a3001254:	eb000078 	bl	a300143c <highest_prio>
a3001258:	eb000062 	bl	a30013e8 <runqueue_remove>
a300125c:	e1a01004 	mov	r1, r4
a3001260:	e5850000 	str	r0, [r5]
a3001264:	e8bd4030 	ldmia	sp!, {r4, r5, lr}
a3001268:	ea000020 	b	a30012f0 <ctx_switch_full>
a300126c:	a3001f00 	movwge	r1, #3840	; 0xf00

a3001270 <dispatch_nosave>:
a3001270:	e52de004 	str	lr, [sp, #-4]!
a3001274:	eb000070 	bl	a300143c <highest_prio>
a3001278:	eb00005a 	bl	a30013e8 <runqueue_remove>
a300127c:	e59f3004 	ldr	r3, [pc, #4]	; a3001288 <.text+0x1288>
a3001280:	e5830000 	str	r0, [r3]
a3001284:	eb000032 	bl	a3001354 <ctx_switch_half>
a3001288:	a3001f00 	movwge	r1, #3840	; 0xf00

a300128c <dispatch_save>:
a300128c:	e92d4030 	stmdb	sp!, {r4, r5, lr}
a3001290:	e59f4024 	ldr	r4, [pc, #36]	; a30012bc <.text+0x12bc>
a3001294:	e5945000 	ldr	r5, [r4]
a3001298:	e5d51001 	ldrb	r1, [r5, #1]
a300129c:	e1a00005 	mov	r0, r5
a30012a0:	eb00003e 	bl	a30013a0 <runqueue_add>
a30012a4:	eb000064 	bl	a300143c <highest_prio>
a30012a8:	eb00004e 	bl	a30013e8 <runqueue_remove>
a30012ac:	e1a01005 	mov	r1, r5
a30012b0:	e5840000 	str	r0, [r4]
a30012b4:	e8bd4030 	ldmia	sp!, {r4, r5, lr}
a30012b8:	ea00000c 	b	a30012f0 <ctx_switch_full>
a30012bc:	a3001f00 	movwge	r1, #3840	; 0xf00

a30012c0 <launch_task>:
a30012c0:	e1a00005 	mov	r0, r5
a30012c4:	e3a01000 	mov	r1, #0	; 0x0
a30012c8:	e3a02000 	mov	r2, #0	; 0x0
a30012cc:	e3a03000 	mov	r3, #0	; 0x0
a30012d0:	e3a05000 	mov	r5, #0	; 0x0
a30012d4:	e3a08000 	mov	r8, #0	; 0x0
a30012d8:	e3a0c000 	mov	ip, #0	; 0x0
a30012dc:	e321f010 	msr	CPSR_c, #16	; 0x10
a30012e0:	e1a0d006 	mov	sp, r6
a30012e4:	e3a06000 	mov	r6, #0	; 0x0
a30012e8:	e59fe074 	ldr	lr, [pc, #116]	; a3001364 <.text+0x1364>
a30012ec:	e1a0f004 	mov	pc, r4

a30012f0 <ctx_switch_full>:
a30012f0:	e4814004 	str	r4, [r1], #4
a30012f4:	e4815004 	str	r5, [r1], #4
a30012f8:	e4816004 	str	r6, [r1], #4
a30012fc:	e4817004 	str	r7, [r1], #4
a3001300:	e4818004 	str	r8, [r1], #4
a3001304:	e4819004 	str	r9, [r1], #4
a3001308:	e481a004 	str	sl, [r1], #4
a300130c:	e481b004 	str	fp, [r1], #4
a3001310:	e481d004 	str	sp, [r1], #4
a3001314:	e481e004 	str	lr, [r1], #4
a3001318:	e5904028 	ldr	r4, [r0, #40]
a300131c:	e59f5044 	ldr	r5, [pc, #68]	; a3001368 <.text+0x1368>
a3001320:	e1540005 	cmp	r4, r5
a3001324:	0a00000a 	beq	a3001354 <ctx_switch_half>
a3001328:	e4904004 	ldr	r4, [r0], #4
a300132c:	e4905004 	ldr	r5, [r0], #4
a3001330:	e4906004 	ldr	r6, [r0], #4
a3001334:	e4907004 	ldr	r7, [r0], #4
a3001338:	e4908004 	ldr	r8, [r0], #4
a300133c:	e4909004 	ldr	r9, [r0], #4
a3001340:	e490a004 	ldr	sl, [r0], #4
a3001344:	e490b004 	ldr	fp, [r0], #4
a3001348:	e490d004 	ldr	sp, [r0], #4
a300134c:	e490e004 	ldr	lr, [r0], #4
a3001350:	e1a0f00e 	mov	pc, lr

a3001354 <ctx_switch_half>:
a3001354:	e4904004 	ldr	r4, [r0], #4
a3001358:	e4905004 	ldr	r5, [r0], #4
a300135c:	e4906004 	ldr	r6, [r0], #4
a3001360:	eaffffd6 	b	a30012c0 <launch_task>
a3001364:	deadbeef 	cdple	14, 10, cr11, cr13, cr15, {7}
a3001368:	feedbeef 	cdp2	14, 14, cr11, cr13, cr15, {7}

a300136c <runqueue_init>:
a300136c:	e59f3020 	ldr	r3, [pc, #32]	; a3001394 <.text+0x1394>
a3001370:	e59f1020 	ldr	r1, [pc, #32]	; a3001398 <.text+0x1398>
a3001374:	e3a02000 	mov	r2, #0	; 0x0
a3001378:	e5c32000 	strb	r2, [r3]
a300137c:	e3a03000 	mov	r3, #0	; 0x0
a3001380:	e4c13001 	strb	r3, [r1], #1
a3001384:	e59f3010 	ldr	r3, [pc, #16]	; a300139c <.text+0x139c>
a3001388:	e1510003 	cmp	r1, r3
a300138c:	1afffffa 	bne	a300137c <runqueue_init+0x10>
a3001390:	e12fff1e 	bx	lr
a3001394:	a300200c 	movwge	r2, #12	; 0xc
a3001398:	a3002004 	movwge	r2, #4	; 0x4
a300139c:	a300200b 	movwge	r2, #11	; 0xb

a30013a0 <runqueue_add>:
a30013a0:	e92d4030 	stmdb	sp!, {r4, r5, lr}
a30013a4:	e59fe030 	ldr	lr, [pc, #48]	; a30013dc <.text+0x13dc>
a30013a8:	e20140ff 	and	r4, r1, #255	; 0xff
a30013ac:	e1a021a4 	mov	r2, r4, lsr #3
a30013b0:	e59f5028 	ldr	r5, [pc, #40]	; a30013e0 <.text+0x13e0>
a30013b4:	e7de3002 	ldrb	r3, [lr, r2]
a30013b8:	e2011007 	and	r1, r1, #7	; 0x7
a30013bc:	e5d5c000 	ldrb	ip, [r5]
a30013c0:	e0233001 	eor	r3, r3, r1
a30013c4:	e7ce3002 	strb	r3, [lr, r2]
a30013c8:	e59f3014 	ldr	r3, [pc, #20]	; a30013e4 <.text+0x13e4>
a30013cc:	e022c00c 	eor	ip, r2, ip
a30013d0:	e5c5c000 	strb	ip, [r5]
a30013d4:	e7830104 	str	r0, [r3, r4, lsl #2]
a30013d8:	e8bd8030 	ldmia	sp!, {r4, r5, pc}
a30013dc:	a3002004 	movwge	r2, #4	; 0x4
a30013e0:	a300200c 	movwge	r2, #12	; 0xc
a30013e4:	a3001f04 	movwge	r1, #3844	; 0xf04

a30013e8 <runqueue_remove>:
a30013e8:	e92d4070 	stmdb	sp!, {r4, r5, r6, lr}
a30013ec:	e59fe03c 	ldr	lr, [pc, #60]	; a3001430 <.text+0x1430>
a30013f0:	e200c0ff 	and	ip, r0, #255	; 0xff
a30013f4:	e59f6038 	ldr	r6, [pc, #56]	; a3001434 <.text+0x1434>
a30013f8:	e59f4038 	ldr	r4, [pc, #56]	; a3001438 <.text+0x1438>
a30013fc:	e1a021ac 	mov	r2, ip, lsr #3
a3001400:	e7de3002 	ldrb	r3, [lr, r2]
a3001404:	e5d61000 	ldrb	r1, [r6]
a3001408:	e794510c 	ldr	r5, [r4, ip, lsl #2]
a300140c:	e2000007 	and	r0, r0, #7	; 0x7
a3001410:	e0233000 	eor	r3, r3, r0
a3001414:	e0221001 	eor	r1, r2, r1
a3001418:	e7ce3002 	strb	r3, [lr, r2]
a300141c:	e1a00005 	mov	r0, r5
a3001420:	e3a03000 	mov	r3, #0	; 0x0
a3001424:	e784310c 	str	r3, [r4, ip, lsl #2]
a3001428:	e5c61000 	strb	r1, [r6]
a300142c:	e8bd8070 	ldmia	sp!, {r4, r5, r6, pc}
a3001430:	a3002004 	movwge	r2, #4	; 0x4
a3001434:	a300200c 	movwge	r2, #12	; 0xc
a3001438:	a3001f04 	movwge	r1, #3844	; 0xf04

a300143c <highest_prio>:
a300143c:	e59f302c 	ldr	r3, [pc, #44]	; a3001470 <.text+0x1470>
a3001440:	e59f102c 	ldr	r1, [pc, #44]	; a3001474 <.text+0x1474>
a3001444:	e5d33000 	ldrb	r3, [r3]
a3001448:	e3a0003f 	mov	r0, #63	; 0x3f
a300144c:	e7d12003 	ldrb	r2, [r1, r3]
a3001450:	e3520000 	cmp	r2, #0	; 0x0
a3001454:	012fff1e 	bxeq	lr
a3001458:	e59f3018 	ldr	r3, [pc, #24]	; a3001478 <.text+0x1478>
a300145c:	e7d33002 	ldrb	r3, [r3, r2]
a3001460:	e7d13003 	ldrb	r3, [r1, r3]
a3001464:	e0823183 	add	r3, r2, r3, lsl #3
a3001468:	e20300ff 	and	r0, r3, #255	; 0xff
a300146c:	e12fff1e 	bx	lr
a3001470:	a300200c 	movwge	r2, #12	; 0xc
a3001474:	a3001da0 	movwge	r1, #3488	; 0xda0
a3001478:	a3002004 	movwge	r2, #4	; 0x4

a300147c <mutex_unlock>:
a300147c:	e92d40f0 	stmdb	sp!, {r4, r5, r6, r7, lr}
a3001480:	e1a06000 	mov	r6, r0
a3001484:	e10f3000 	mrs	r3, CPSR
a3001488:	e38330c0 	orr	r3, r3, #192	; 0xc0
a300148c:	e121f003 	msr	CPSR_c, r3
a3001490:	e3500000 	cmp	r0, #0	; 0x0
a3001494:	ba000005 	blt	a30014b0 <mutex_unlock+0x34>
a3001498:	e59f30bc 	ldr	r3, [pc, #188]	; a300155c <.text+0x155c>
a300149c:	e59f70bc 	ldr	r7, [pc, #188]	; a3001560 <.text+0x1560>
a30014a0:	e5933000 	ldr	r3, [r3]
a30014a4:	e0875200 	add	r5, r7, r0, lsl #4
a30014a8:	e1500003 	cmp	r0, r3
a30014ac:	da000004 	ble	a30014c4 <mutex_unlock+0x48>
a30014b0:	e10f3000 	mrs	r3, CPSR
a30014b4:	e3c330c0 	bic	r3, r3, #192	; 0xc0
a30014b8:	e121f003 	msr	CPSR_c, r3
a30014bc:	e3e00015 	mvn	r0, #21	; 0x15
a30014c0:	e8bd80f0 	ldmia	sp!, {r4, r5, r6, r7, pc}
a30014c4:	e5954004 	ldr	r4, [r5, #4]
a30014c8:	ebffff5a 	bl	a3001238 <get_cur_tcb>
a30014cc:	e1540000 	cmp	r4, r0
a30014d0:	0a000004 	beq	a30014e8 <mutex_unlock+0x6c>
a30014d4:	e10f3000 	mrs	r3, CPSR
a30014d8:	e3c330c0 	bic	r3, r3, #192	; 0xc0
a30014dc:	e121f003 	msr	CPSR_c, r3
a30014e0:	e3e00000 	mvn	r0, #0	; 0x0
a30014e4:	e8bd80f0 	ldmia	sp!, {r4, r5, r6, r7, pc}
a30014e8:	e595200c 	ldr	r2, [r5, #12]
a30014ec:	e3520000 	cmp	r2, #0	; 0x0
a30014f0:	e1a00002 	mov	r0, r2
a30014f4:	1a000005 	bne	a3001510 <mutex_unlock+0x94>
a30014f8:	e3a03001 	mov	r3, #1	; 0x1
a30014fc:	e7873206 	str	r3, [r7, r6, lsl #4]
a3001500:	e3e03000 	mvn	r3, #0	; 0x0
a3001504:	e5853004 	str	r3, [r5, #4]
a3001508:	e5852008 	str	r2, [r5, #8]
a300150c:	ea000009 	b	a3001538 <mutex_unlock+0xbc>
a3001510:	e5923030 	ldr	r3, [r2, #48]
a3001514:	e585300c 	str	r3, [r5, #12]
a3001518:	e3e03000 	mvn	r3, #0	; 0x0
a300151c:	e5823030 	str	r3, [r2, #48]
a3001520:	e592302c 	ldr	r3, [r2, #44]
a3001524:	e5852004 	str	r2, [r5, #4]
a3001528:	e2833001 	add	r3, r3, #1	; 0x1
a300152c:	e582302c 	str	r3, [r2, #44]
a3001530:	e5d21001 	ldrb	r1, [r2, #1]
a3001534:	ebffff99 	bl	a30013a0 <runqueue_add>
a3001538:	ebffff3e 	bl	a3001238 <get_cur_tcb>
a300153c:	e590302c 	ldr	r3, [r0, #44]
a3001540:	e2433001 	sub	r3, r3, #1	; 0x1
a3001544:	e580302c 	str	r3, [r0, #44]
a3001548:	e10f3000 	mrs	r3, CPSR
a300154c:	e3c330c0 	bic	r3, r3, #192	; 0xc0
a3001550:	e121f003 	msr	CPSR_c, r3
a3001554:	e3a00000 	mov	r0, #0	; 0x0
a3001558:	e8bd80f0 	ldmia	sp!, {r4, r5, r6, r7, pc}
a300155c:	a3043818 	movwge	r3, #18456	; 0x4818
a3001560:	a3043618 	movwge	r3, #17944	; 0x4618

a3001564 <mutex_init>:
a3001564:	e10f3000 	mrs	r3, CPSR
a3001568:	e38330c0 	orr	r3, r3, #192	; 0xc0
a300156c:	e121f003 	msr	CPSR_c, r3
a3001570:	e59f3014 	ldr	r3, [pc, #20]	; a300158c <.text+0x158c>
a3001574:	e3a02000 	mov	r2, #0	; 0x0
a3001578:	e5832000 	str	r2, [r3]
a300157c:	e10f3000 	mrs	r3, CPSR
a3001580:	e3c330c0 	bic	r3, r3, #192	; 0xc0
a3001584:	e121f003 	msr	CPSR_c, r3
a3001588:	e12fff1e 	bx	lr
a300158c:	a3043818 	movwge	r3, #18456	; 0x4818

a3001590 <mutex_create>:
a3001590:	e52de004 	str	lr, [sp, #-4]!
a3001594:	e10f3000 	mrs	r3, CPSR
a3001598:	e38330c0 	orr	r3, r3, #192	; 0xc0
a300159c:	e121f003 	msr	CPSR_c, r3
a30015a0:	e59f0058 	ldr	r0, [pc, #88]	; a3001600 <.text+0x1600>
a30015a4:	e59fe058 	ldr	lr, [pc, #88]	; a3001604 <.text+0x1604>
a30015a8:	e3a0c000 	mov	ip, #0	; 0x0
a30015ac:	e5903000 	ldr	r3, [r0]
a30015b0:	e2832001 	add	r2, r3, #1	; 0x1
a30015b4:	e353001f 	cmp	r3, #31	; 0x1f
a30015b8:	e08e1202 	add	r1, lr, r2, lsl #4
a30015bc:	da000004 	ble	a30015d4 <mutex_create+0x44>
a30015c0:	e10f3000 	mrs	r3, CPSR
a30015c4:	e3c330c0 	bic	r3, r3, #192	; 0xc0
a30015c8:	e121f003 	msr	CPSR_c, r3
a30015cc:	e3e0000b 	mvn	r0, #11	; 0xb
a30015d0:	e49df004 	ldr	pc, [sp], #4
a30015d4:	e3a03001 	mov	r3, #1	; 0x1
a30015d8:	e581c00c 	str	ip, [r1, #12]
a30015dc:	e78e3202 	str	r3, [lr, r2, lsl #4]
a30015e0:	e5802000 	str	r2, [r0]
a30015e4:	e581c008 	str	ip, [r1, #8]
a30015e8:	e581c004 	str	ip, [r1, #4]
a30015ec:	e10f3000 	mrs	r3, CPSR
a30015f0:	e3c330c0 	bic	r3, r3, #192	; 0xc0
a30015f4:	e121f003 	msr	CPSR_c, r3
a30015f8:	e5900000 	ldr	r0, [r0]
a30015fc:	e49df004 	ldr	pc, [sp], #4
a3001600:	a3043818 	movwge	r3, #18456	; 0x4818
a3001604:	a3043618 	movwge	r3, #17944	; 0x4618

a3001608 <mutex_lock>:
a3001608:	e92d4030 	stmdb	sp!, {r4, r5, lr}
a300160c:	e10f3000 	mrs	r3, CPSR
a3001610:	e38330c0 	orr	r3, r3, #192	; 0xc0
a3001614:	e121f003 	msr	CPSR_c, r3
a3001618:	e3500000 	cmp	r0, #0	; 0x0
a300161c:	ba000003 	blt	a3001630 <mutex_lock+0x28>
a3001620:	e59f30d4 	ldr	r3, [pc, #212]	; a30016fc <.text+0x16fc>
a3001624:	e5933000 	ldr	r3, [r3]
a3001628:	e1500003 	cmp	r0, r3
a300162c:	da000004 	ble	a3001644 <mutex_lock+0x3c>
a3001630:	e10f3000 	mrs	r3, CPSR
a3001634:	e3c330c0 	bic	r3, r3, #192	; 0xc0
a3001638:	e121f003 	msr	CPSR_c, r3
a300163c:	e3e00015 	mvn	r0, #21	; 0x15
a3001640:	e8bd8030 	ldmia	sp!, {r4, r5, pc}
a3001644:	e59f20b4 	ldr	r2, [pc, #180]	; a3001700 <.text+0x1700>
a3001648:	e1a04200 	mov	r4, r0, lsl #4
a300164c:	e7923200 	ldr	r3, [r2, r0, lsl #4]
a3001650:	e3530000 	cmp	r3, #0	; 0x0
a3001654:	1a000018 	bne	a30016bc <mutex_lock+0xb4>
a3001658:	e0845002 	add	r5, r4, r2
a300165c:	e5954004 	ldr	r4, [r5, #4]
a3001660:	ebfffef4 	bl	a3001238 <get_cur_tcb>
a3001664:	e1540000 	cmp	r4, r0
a3001668:	1a000004 	bne	a3001680 <mutex_lock+0x78>
a300166c:	e10f3000 	mrs	r3, CPSR
a3001670:	e3c330c0 	bic	r3, r3, #192	; 0xc0
a3001674:	e121f003 	msr	CPSR_c, r3
a3001678:	e3e00039 	mvn	r0, #57	; 0x39
a300167c:	e8bd8030 	ldmia	sp!, {r4, r5, pc}
a3001680:	e595400c 	ldr	r4, [r5, #12]
a3001684:	e3540000 	cmp	r4, #0	; 0x0
a3001688:	1a000002 	bne	a3001698 <mutex_lock+0x90>
a300168c:	ebfffee9 	bl	a3001238 <get_cur_tcb>
a3001690:	e585000c 	str	r0, [r5, #12]
a3001694:	ea000002 	b	a30016a4 <mutex_lock+0x9c>
a3001698:	e5943030 	ldr	r3, [r4, #48]
a300169c:	ebfffee5 	bl	a3001238 <get_cur_tcb>
a30016a0:	e5840030 	str	r0, [r4, #48]
a30016a4:	e10f3000 	mrs	r3, CPSR
a30016a8:	e3c330c0 	bic	r3, r3, #192	; 0xc0
a30016ac:	e121f003 	msr	CPSR_c, r3
a30016b0:	ebfffee4 	bl	a3001248 <dispatch_sleep>
a30016b4:	e3a00000 	mov	r0, #0	; 0x0
a30016b8:	e8bd8030 	ldmia	sp!, {r4, r5, pc}
a30016bc:	e0844002 	add	r4, r4, r2
a30016c0:	e3a03001 	mov	r3, #1	; 0x1
a30016c4:	e3a05000 	mov	r5, #0	; 0x0
a30016c8:	e5843008 	str	r3, [r4, #8]
a30016cc:	e7825200 	str	r5, [r2, r0, lsl #4]
a30016d0:	ebfffed8 	bl	a3001238 <get_cur_tcb>
a30016d4:	e5840004 	str	r0, [r4, #4]
a30016d8:	ebfffed6 	bl	a3001238 <get_cur_tcb>
a30016dc:	e590302c 	ldr	r3, [r0, #44]
a30016e0:	e2833001 	add	r3, r3, #1	; 0x1
a30016e4:	e580302c 	str	r3, [r0, #44]
a30016e8:	e10f3000 	mrs	r3, CPSR
a30016ec:	e3c330c0 	bic	r3, r3, #192	; 0xc0
a30016f0:	e121f003 	msr	CPSR_c, r3
a30016f4:	e1a00005 	mov	r0, r5
a30016f8:	e8bd8030 	ldmia	sp!, {r4, r5, pc}
a30016fc:	a3043818 	movwge	r3, #18456	; 0x4818
a3001700:	a3043618 	movwge	r3, #17944	; 0x4618

a3001704 <dummy>:
a3001704:	e598c020 	ldr	ip, [r8, #32]
a3001708:	e59cf000 	ldr	pc, [ip]

a300170c <getc>:
a300170c:	e598c020 	ldr	ip, [r8, #32]
a3001710:	e59cf004 	ldr	pc, [ip, #4]

a3001714 <tstc>:
a3001714:	e598c020 	ldr	ip, [r8, #32]
a3001718:	e59cf008 	ldr	pc, [ip, #8]

a300171c <putc>:
a300171c:	e598c020 	ldr	ip, [r8, #32]
a3001720:	e59cf00c 	ldr	pc, [ip, #12]

a3001724 <puts>:
a3001724:	e598c020 	ldr	ip, [r8, #32]
a3001728:	e59cf010 	ldr	pc, [ip, #16]

a300172c <printf>:
a300172c:	e598c020 	ldr	ip, [r8, #32]
a3001730:	e59cf014 	ldr	pc, [ip, #20]

a3001734 <install_hdlr>:
a3001734:	e598c020 	ldr	ip, [r8, #32]
a3001738:	e59cf018 	ldr	pc, [ip, #24]

a300173c <free_hdlr>:
a300173c:	e598c020 	ldr	ip, [r8, #32]
a3001740:	e59cf01c 	ldr	pc, [ip, #28]

a3001744 <malloc>:
a3001744:	e598c020 	ldr	ip, [r8, #32]
a3001748:	e59cf020 	ldr	pc, [ip, #32]

a300174c <free>:
a300174c:	e598c020 	ldr	ip, [r8, #32]
a3001750:	e59cf024 	ldr	pc, [ip, #36]

a3001754 <udelay>:
a3001754:	e598c020 	ldr	ip, [r8, #32]
a3001758:	e59cf028 	ldr	pc, [ip, #40]

a300175c <get_timer>:
a300175c:	e598c020 	ldr	ip, [r8, #32]
a3001760:	e59cf02c 	ldr	pc, [ip, #44]

a3001764 <vprintf>:
a3001764:	e598c020 	ldr	ip, [r8, #32]
a3001768:	e59cf030 	ldr	pc, [ip, #48]

a300176c <do_reset>:
a300176c:	e598c020 	ldr	ip, [r8, #32]
a3001770:	e59cf034 	ldr	pc, [ip, #52]

a3001774 <getenv>:
a3001774:	e598c020 	ldr	ip, [r8, #32]
a3001778:	e59cf038 	ldr	pc, [ip, #56]

a300177c <setenv>:
a300177c:	e598c020 	ldr	ip, [r8, #32]
a3001780:	e59cf03c 	ldr	pc, [ip, #60]

a3001784 <simple_strtoul>:
a3001784:	e598c020 	ldr	ip, [r8, #32]
a3001788:	e59cf040 	ldr	pc, [ip, #64]

a300178c <app_startup>:
a300178c:	e59f2018 	ldr	r2, [pc, #24]	; a30017ac <.text+0x17ac>
a3001790:	ea000001 	b	a300179c <app_startup+0x10>
a3001794:	e3a03000 	mov	r3, #0	; 0x0
a3001798:	e4823004 	str	r3, [r2], #4
a300179c:	e59f300c 	ldr	r3, [pc, #12]	; a30017b0 <.text+0x17b0>
a30017a0:	e1520003 	cmp	r2, r3
a30017a4:	3afffffa 	bcc	a3001794 <app_startup+0x8>
a30017a8:	e12fff1e 	bx	lr
a30017ac:	a3001ea4 	movwge	r1, #3748	; 0xea4
a30017b0:	a304381c 	movwge	r3, #18460	; 0x481c
Disassembly of section .rodata:

a30017b8 <dev_freq-0x3b8>:
a30017b8:	46455250 	undefined
a30017bc:	48435445 	stmmida	r3, {r0, r2, r6, sl, ip, lr}^
a30017c0:	4f424120 	svcmi	0x00424120
a30017c4:	2d205452 	cfstrscs	mvf5, [r0, #-328]!
a30017c8:	75616320 	strvcb	r6, [r1, #-800]!
a30017cc:	20646573 	rsbcs	r6, r4, r3, ror r5
a30017d0:	70207962 	eorvc	r7, r0, r2, ror #18
a30017d4:	203d2063 	eorcss	r2, sp, r3, rrx
a30017d8:	30257830 	eorcc	r7, r5, r0, lsr r8
a30017dc:	000a7838 	andeq	r7, sl, r8, lsr r8
a30017e0:	69676552 	stmvsdb	r7!, {r1, r4, r6, r8, sl, sp, lr}^
a30017e4:	72657473 	rsbvc	r7, r5, #1929379840	; 0x73000000
a30017e8:	720a3a73 	andvc	r3, sl, #471040	; 0x73000
a30017ec:	30203a30 	eorcc	r3, r0, r0, lsr sl
a30017f0:	38302578 	ldmccda	r0!, {r3, r4, r5, r6, r8, sl, sp}
a30017f4:	72202c78 	eorvc	r2, r0, #30720	; 0x7800
a30017f8:	30203a31 	eorcc	r3, r0, r1, lsr sl
a30017fc:	38302578 	ldmccda	r0!, {r3, r4, r5, r6, r8, sl, sp}
a3001800:	72202c78 	eorvc	r2, r0, #30720	; 0x7800
a3001804:	30203a32 	eorcc	r3, r0, r2, lsr sl
a3001808:	38302578 	ldmccda	r0!, {r3, r4, r5, r6, r8, sl, sp}
a300180c:	72202c78 	eorvc	r2, r0, #30720	; 0x7800
a3001810:	30203a33 	eorcc	r3, r0, r3, lsr sl
a3001814:	38302578 	ldmccda	r0!, {r3, r4, r5, r6, r8, sl, sp}
a3001818:	720a2c78 	andvc	r2, sl, #30720	; 0x7800
a300181c:	30203a34 	eorcc	r3, r0, r4, lsr sl
a3001820:	38302578 	ldmccda	r0!, {r3, r4, r5, r6, r8, sl, sp}
a3001824:	72202c78 	eorvc	r2, r0, #30720	; 0x7800
a3001828:	30203a35 	eorcc	r3, r0, r5, lsr sl
a300182c:	38302578 	ldmccda	r0!, {r3, r4, r5, r6, r8, sl, sp}
a3001830:	72202c78 	eorvc	r2, r0, #30720	; 0x7800
a3001834:	30203a36 	eorcc	r3, r0, r6, lsr sl
a3001838:	38302578 	ldmccda	r0!, {r3, r4, r5, r6, r8, sl, sp}
a300183c:	72202c78 	eorvc	r2, r0, #30720	; 0x7800
a3001840:	30203a37 	eorcc	r3, r0, r7, lsr sl
a3001844:	38302578 	ldmccda	r0!, {r3, r4, r5, r6, r8, sl, sp}
a3001848:	000a2c78 	andeq	r2, sl, r8, ror ip
a300184c:	00000000 	andeq	r0, r0, r0
a3001850:	203a3872 	eorcss	r3, sl, r2, ror r8
a3001854:	30257830 	eorcc	r7, r5, r0, lsr r8
a3001858:	202c7838 	eorcs	r7, ip, r8, lsr r8
a300185c:	203a3972 	eorcss	r3, sl, r2, ror r9
a3001860:	30257830 	eorcc	r7, r5, r0, lsr r8
a3001864:	202c7838 	eorcs	r7, ip, r8, lsr r8
a3001868:	3a303172 	bcc	a3c0de38 <__bss_end__+0xbca61c>
a300186c:	25783020 	ldrcsb	r3, [r8, #-32]!
a3001870:	2c783830 	ldccsl	8, cr3, [r8], #-192
a3001874:	31317220 	teqcc	r1, r0, lsr #4
a3001878:	7830203a 	ldmvcda	r0!, {r1, r3, r4, r5, sp}
a300187c:	78383025 	ldmvcda	r8!, {r0, r2, r5, ip, sp}
a3001880:	31720a2c 	cmncc	r2, ip, lsr #20
a3001884:	30203a32 	eorcc	r3, r0, r2, lsr sl
a3001888:	38302578 	ldmccda	r0!, {r3, r4, r5, r6, r8, sl, sp}
a300188c:	00202c78 	eoreq	r2, r0, r8, ror ip
a3001890:	203a726c 	eorcss	r7, sl, ip, ror #4
a3001894:	30257830 	eorcc	r7, r5, r0, lsr r8
a3001898:	202c7838 	eorcs	r7, ip, r8, lsr r8
a300189c:	203a7073 	eorcss	r7, sl, r3, ror r0
a30018a0:	30257830 	eorcc	r7, r5, r0, lsr r8
a30018a4:	202c7838 	eorcs	r7, ip, r8, lsr r8
a30018a8:	72737063 	rsbvcs	r7, r3, #99	; 0x63
a30018ac:	7830203a 	ldmvcda	r0!, {r1, r3, r4, r5, sp}
a30018b0:	78383025 	ldmvcda	r8!, {r0, r2, r5, ip, sp}
a30018b4:	0000000a 	andeq	r0, r0, sl
a30018b8:	494e4150 	stmmidb	lr, {r4, r6, r8, lr}^
a30018bc:	00002143 	andeq	r2, r0, r3, asr #2
a30018c0:	6e72654b 	cdpvs	5, 7, cr6, cr2, cr11, {2}
a30018c4:	69206c65 	stmvsdb	r0!, {r0, r2, r5, r6, sl, fp, sp, lr}
a30018c8:	6174696e 	cmnvs	r4, lr, ror #18
a30018cc:	617a696c 	cmnvs	sl, ip, ror #18
a30018d0:	6e6f6974 	mcrvs	9, 3, r6, cr15, cr4, {3}
a30018d4:	0a2e2e2e 	beq	a3b8d194 <__bss_end__+0xb49978>
	...
a30018e0:	69726957 	ldmvsdb	r2!, {r0, r1, r2, r4, r6, r8, fp, sp, lr}^
a30018e4:	6920676e 	stmvsdb	r0!, {r1, r2, r3, r5, r6, r8, r9, sl, sp, lr}
a30018e8:	6261206e 	rsbvs	r2, r1, #110	; 0x6e
a30018ec:	2074726f 	rsbcss	r7, r4, pc, ror #4
a30018f0:	646e6168 	strvsbt	r6, [lr], #-360
a30018f4:	2e72656c 	cdpcs	5, 7, cr6, cr2, cr12, {3}
a30018f8:	000a2e2e 	andeq	r2, sl, lr, lsr #28
a30018fc:	00000000 	andeq	r0, r0, r0
a3001900:	2072646c 	rsbcss	r6, r2, ip, ror #8
a3001904:	202c6370 	eorcs	r6, ip, r0, ror r3
a3001908:	2c63705b 	stccsl	0, cr7, [r3], #-364
a300190c:	6d692320 	stcvsl	3, cr2, [r9, #-128]!
a3001910:	5d64656d 	cfstr64pl	mvdx6, [r4, #-436]!
a3001914:	746f6e20 	strvcbt	r6, [pc], #3616	; a300191c <.rodata+0x164>
a3001918:	636e6520 	cmnvs	lr, #134217728	; 0x8000000
a300191c:	746e756f 	strvcbt	r7, [lr], #-1391
a3001920:	64657265 	strvsbt	r7, [r5], #-613
a3001924:	20746120 	rsbcss	r6, r4, r0, lsr #2
a3001928:	202e6425 	eorcs	r6, lr, r5, lsr #8
a300192c:	74697845 	strvcbt	r7, [r9], #-2117
a3001930:	2e676e69 	cdpcs	14, 6, cr6, cr7, cr9, {3}
a3001934:	0000000a 	andeq	r0, r0, sl
a3001938:	74746553 	ldrvcbt	r6, [r4], #-1363
a300193c:	20676e69 	rsbcs	r6, r7, r9, ror #28
a3001940:	61207075 	teqvs	r0, r5, ror r0
a3001944:	74726f62 	ldrvcbt	r6, [r2], #-3938
a3001948:	61747320 	cmnvs	r4, r0, lsr #6
a300194c:	2e2e6b63 	fnmuldcs	d6, d14, d19
a3001950:	00000a2e 	andeq	r0, r0, lr, lsr #20
a3001954:	00000000 	andeq	r0, r0, r0
a3001958:	69726957 	ldmvsdb	r2!, {r0, r1, r2, r4, r6, r8, fp, sp, lr}^
a300195c:	6920676e 	stmvsdb	r0!, {r1, r2, r3, r5, r6, r8, r9, sl, sp, lr}
a3001960:	7773206e 	ldrvcb	r2, [r3, -lr, rrx]!
a3001964:	61682069 	cmnvs	r8, r9, rrx
a3001968:	656c646e 	strvsb	r6, [ip, #-1134]!
a300196c:	2e2e2e72 	mcrcs	14, 1, r2, cr14, cr2, {3}
a3001970:	0000000a 	andeq	r0, r0, sl
a3001974:	00000000 	andeq	r0, r0, r0
a3001978:	69726957 	ldmvsdb	r2!, {r0, r1, r2, r4, r6, r8, fp, sp, lr}^
a300197c:	6920676e 	stmvsdb	r0!, {r1, r2, r3, r5, r6, r8, r9, sl, sp, lr}
a3001980:	7269206e 	rsbvc	r2, r9, #110	; 0x6e
a3001984:	61682071 	smcvs	33281
a3001988:	656c646e 	strvsb	r6, [ip, #-1134]!
a300198c:	2e2e2e72 	mcrcs	14, 1, r2, cr14, cr2, {3}
a3001990:	0000000a 	andeq	r0, r0, sl
a3001994:	00000000 	andeq	r0, r0, r0
a3001998:	74696e49 	strvcbt	r6, [r9], #-3657
a300199c:	696c6169 	stmvsdb	ip!, {r0, r3, r5, r6, r8, sp, lr}^
a30019a0:	676e697a 	undefined
a30019a4:	6d697420 	cfstrdvs	mvd7, [r9, #-128]!
a30019a8:	2e737265 	cdpcs	2, 7, cr7, cr3, cr5, {3}
a30019ac:	000a2e2e 	andeq	r2, sl, lr, lsr #28
a30019b0:	74746553 	ldrvcbt	r6, [r4], #-1363
a30019b4:	20676e69 	rsbcs	r6, r7, r9, ror #28
a30019b8:	73207075 	teqvc	r0, #117	; 0x75
a30019bc:	6b636174 	blvs	a48d9f94 <__bss_end__+0x1896778>
a30019c0:	0a2e2e2e 	beq	a3b8d280 <__bss_end__+0xb49a64>
a30019c4:	00000000 	andeq	r0, r0, r0
a30019c8:	72617453 	rsbvc	r7, r1, #1392508928	; 0x53000000
a30019cc:	676e6974 	undefined
a30019d0:	65737520 	ldrvsb	r7, [r3, #-1312]!
a30019d4:	72702072 	rsbvcs	r2, r0, #114	; 0x72
a30019d8:	2e2e676f 	cdpcs	7, 2, cr6, cr14, cr15, {3}
a30019dc:	00000a2e 	andeq	r0, r0, lr, lsr #20
a30019e0:	6c6c694b 	stcvsl	9, cr6, [ip], #-300
a30019e4:	20676e69 	rsbcs	r6, r7, r9, ror #28
a30019e8:	656d6974 	strvsb	r6, [sp, #-2420]!
a30019ec:	2e2e7372 	mcrcs	3, 1, r7, cr14, cr2, {3}
a30019f0:	00000a2e 	andeq	r0, r0, lr, lsr #20
a30019f4:	00000000 	andeq	r0, r0, r0
a30019f8:	74736552 	ldrvcbt	r6, [r3], #-1362
a30019fc:	6e69726f 	cdpvs	2, 6, cr7, cr9, cr15, {3}
a3001a00:	61682067 	cmnvs	r8, r7, rrx
a3001a04:	656c646e 	strvsb	r6, [ip, #-1134]!
a3001a08:	2e2e7372 	mcrcs	3, 1, r7, cr14, cr2, {3}
a3001a0c:	00000a2e 	andeq	r0, r0, lr, lsr #20
a3001a10:	74697845 	strvcbt	r7, [r9], #-2117
a3001a14:	20676e69 	rsbcs	r6, r7, r9, ror #28
a3001a18:	6e72656b 	cdpvs	5, 7, cr6, cr2, cr11, {3}
a3001a1c:	0a2e6c65 	beq	a3b9cbb8 <__bss_end__+0xb5939c>
	...
a3001a28:	69766944 	ldmvsdb	r6!, {r2, r6, r8, fp, sp, lr}^
a3001a2c:	62206564 	eorvs	r6, r0, #419430400	; 0x19000000
a3001a30:	657a2079 	ldrvsb	r2, [sl, #-121]!
a3001a34:	2d206f72 	stccs	15, cr6, [r0, #-456]!
a3001a38:	6e49202d 	cdpvs	0, 4, cr2, cr9, cr13, {1}
a3001a3c:	72656b20 	rsbvc	r6, r5, #32768	; 0x8000
a3001a40:	0a6c656e 	beq	a4b1b000 <__bss_end__+0x1ad77e4>
a3001a44:	00000000 	andeq	r0, r0, r0
a3001a48:	2d2d2d2e 	stccs	13, cr2, [sp, #-184]!
a3001a4c:	2d2d2d2d 	stccs	13, cr2, [sp, #-180]!
a3001a50:	2d2d2d2d 	stccs	13, cr2, [sp, #-180]!
a3001a54:	2d2d2d2d 	stccs	13, cr2, [sp, #-180]!
a3001a58:	2d2d2d2d 	stccs	13, cr2, [sp, #-180]!
a3001a5c:	2d2d2d2d 	stccs	13, cr2, [sp, #-180]!
a3001a60:	2d2d2d2d 	stccs	13, cr2, [sp, #-180]!
a3001a64:	2d2d2d2d 	stccs	13, cr2, [sp, #-180]!
a3001a68:	2d2d2d2d 	stccs	13, cr2, [sp, #-180]!
a3001a6c:	2d2d2d2d 	stccs	13, cr2, [sp, #-180]!
a3001a70:	2d2d2d2d 	stccs	13, cr2, [sp, #-180]!
a3001a74:	2d2d2d2d 	stccs	13, cr2, [sp, #-180]!
a3001a78:	2d2d2d2d 	stccs	13, cr2, [sp, #-180]!
a3001a7c:	2d2d2d2d 	stccs	13, cr2, [sp, #-180]!
a3001a80:	2d2d2d2d 	stccs	13, cr2, [sp, #-180]!
a3001a84:	2d2d2d2d 	stccs	13, cr2, [sp, #-180]!
a3001a88:	2d2d2d2d 	stccs	13, cr2, [sp, #-180]!
a3001a8c:	2d2d2d2d 	stccs	13, cr2, [sp, #-180]!
a3001a90:	2d2d2d2d 	stccs	13, cr2, [sp, #-180]!
a3001a94:	00000a2e 	andeq	r0, r0, lr, lsr #20
a3001a98:	3025207c 	eorcc	r2, r5, ip, ror r0
a3001a9c:	20786c38 	rsbcss	r6, r8, r8, lsr ip
a3001aa0:	20202020 	eorcs	r2, r0, r0, lsr #32
a3001aa4:	00000020 	andeq	r0, r0, r0, lsr #32
a3001aa8:	00000020 	andeq	r0, r0, r0, lsr #32
a3001aac:	00000000 	andeq	r0, r0, r0
a3001ab0:	00002020 	andeq	r2, r0, r0, lsr #32
a3001ab4:	00000000 	andeq	r0, r0, r0
a3001ab8:	78323025 	ldmvcda	r2!, {r0, r2, r5, ip, sp}
a3001abc:	00000000 	andeq	r0, r0, r0
a3001ac0:	20202020 	eorcs	r2, r0, r0, lsr #32
a3001ac4:	00202020 	eoreq	r2, r0, r0, lsr #32
a3001ac8:	00006325 	andeq	r6, r0, r5, lsr #6
a3001acc:	00000000 	andeq	r0, r0, r0
a3001ad0:	000a7c20 	andeq	r7, sl, r0, lsr #24
a3001ad4:	00000000 	andeq	r0, r0, r0
a3001ad8:	2d2d2d60 	stccs	13, cr2, [sp, #-384]!
a3001adc:	2d2d2d2d 	stccs	13, cr2, [sp, #-180]!
a3001ae0:	2d2d2d2d 	stccs	13, cr2, [sp, #-180]!
a3001ae4:	2d2d2d2d 	stccs	13, cr2, [sp, #-180]!
a3001ae8:	2d2d2d2d 	stccs	13, cr2, [sp, #-180]!
a3001aec:	2d2d2d2d 	stccs	13, cr2, [sp, #-180]!
a3001af0:	2d2d2d2d 	stccs	13, cr2, [sp, #-180]!
a3001af4:	2d2d2d2d 	stccs	13, cr2, [sp, #-180]!
a3001af8:	2d2d2d2d 	stccs	13, cr2, [sp, #-180]!
a3001afc:	2d2d2d2d 	stccs	13, cr2, [sp, #-180]!
a3001b00:	2d2d2d2d 	stccs	13, cr2, [sp, #-180]!
a3001b04:	2d2d2d2d 	stccs	13, cr2, [sp, #-180]!
a3001b08:	2d2d2d2d 	stccs	13, cr2, [sp, #-180]!
a3001b0c:	2d2d2d2d 	stccs	13, cr2, [sp, #-180]!
a3001b10:	2d2d2d2d 	stccs	13, cr2, [sp, #-180]!
a3001b14:	2d2d2d2d 	stccs	13, cr2, [sp, #-180]!
a3001b18:	2d2d2d2d 	stccs	13, cr2, [sp, #-180]!
a3001b1c:	2d2d2d2d 	stccs	13, cr2, [sp, #-180]!
a3001b20:	2d2d2d2d 	stccs	13, cr2, [sp, #-180]!
a3001b24:	00000a27 	andeq	r0, r0, r7, lsr #20
a3001b28:	6e696e75 	mcrvs	14, 3, r6, cr9, cr5, {3}
a3001b2c:	6c617473 	cfstrdvs	mvd7, [r1], #-460
a3001b30:	676e696c 	strvsb	r6, [lr, -ip, ror #18]!
a3001b34:	71726920 	cmnvc	r2, r0, lsr #18
a3001b38:	0a2e2e2e 	beq	a3b8d3f8 <__bss_end__+0xb49bdc>
a3001b3c:	00000000 	andeq	r0, r0, r0
a3001b40:	6e696e75 	mcrvs	14, 3, r6, cr9, cr5, {3}
a3001b44:	6c617473 	cfstrdvs	mvd7, [r1], #-460
a3001b48:	676e696c 	strvsb	r6, [lr, -ip, ror #18]!
a3001b4c:	69777320 	ldmvsdb	r7!, {r5, r8, r9, ip, sp, lr}^
a3001b50:	0a2e2e2e 	beq	a3b8d410 <__bss_end__+0xb49bf4>
a3001b54:	00000000 	andeq	r0, r0, r0
a3001b58:	6e696e75 	mcrvs	14, 3, r6, cr9, cr5, {3}
a3001b5c:	6c617473 	cfstrdvs	mvd7, [r1], #-460
a3001b60:	676e696c 	strvsb	r6, [lr, -ip, ror #18]!
a3001b64:	74626120 	strvcbt	r6, [r2], #-288
a3001b68:	0a2e2e2e 	beq	a3b8d428 <__bss_end__+0xb49c0c>
a3001b6c:	00000000 	andeq	r0, r0, r0

a3001b70 <dev_freq>:
a3001b70:	00000064 	andeq	r0, r0, r4, rrx
a3001b74:	000000c8 	andeq	r0, r0, r8, asr #1
a3001b78:	000001f4 	streqd	r0, [r0], -r4
a3001b7c:	00000032 	andeq	r0, r0, r2, lsr r0
a3001b80:	656b5f63 	strvsb	r5, [fp, #-3939]!
a3001b84:	6c656e72 	stcvsl	14, cr6, [r5], #-456
a3001b88:	6974755f 	ldmvsdb	r4!, {r0, r1, r2, r3, r4, r6, r8, sl, ip, sp, lr}^
a3001b8c:	693a3a6c 	ldmvsdb	sl!, {r2, r3, r5, r6, r9, fp, ip, sp}
a3001b90:	6974696e 	ldmvsdb	r4!, {r1, r2, r3, r5, r6, r8, fp, sp, lr}^
a3001b94:	657a696c 	ldrvsb	r6, [sl, #-2412]!
a3001b98:	6d69745f 	cfstrdvs	mvd7, [r9, #-380]!
a3001b9c:	3a3a7265 	bcc	a3e9e538 <__bss_end__+0xe5ad1c>
a3001ba0:	2e2e2b2b 	fmuldcs	d2, d14, d27
a3001ba4:	00000a2e 	andeq	r0, r0, lr, lsr #20
a3001ba8:	656b5f63 	strvsb	r5, [fp, #-3939]!
a3001bac:	6c656e72 	stcvsl	14, cr6, [r5], #-456
a3001bb0:	6974755f 	ldmvsdb	r4!, {r0, r1, r2, r3, r4, r6, r8, sl, ip, sp, lr}^
a3001bb4:	753a3a6c 	ldrvc	r3, [sl, #-2668]!
a3001bb8:	696e696e 	stmvsdb	lr!, {r1, r2, r3, r5, r6, r8, fp, sp, lr}^
a3001bbc:	696c6974 	stmvsdb	ip!, {r2, r4, r5, r6, r8, fp, sp, lr}^
a3001bc0:	745f657a 	ldrvcb	r6, [pc], #1402	; a3001bc8 <dev_freq+0x58>
a3001bc4:	72656d69 	rsbvc	r6, r5, #6720	; 0x1a40
a3001bc8:	2d2d3a3a 	fstmdbscs	sp!, {s6-s63}
a3001bcc:	0a2e2e2e 	beq	a3b8d48c <__bss_end__+0xb49c70>
	...
a3001bd8:	72695f63 	rsbvc	r5, r9, #396	; 0x18c
a3001bdc:	61685f71 	smcvs	34289
a3001be0:	656c646e 	strvsb	r6, [ip, #-1134]!
a3001be4:	3a632e72 	bcc	a48cd5b4 <__bss_end__+0x1889d98>
a3001be8:	00000a3a 	andeq	r0, r0, sl, lsr sl
a3001bec:	00000000 	andeq	r0, r0, r0
a3001bf0:	72695f63 	rsbvc	r5, r9, #396	; 0x18c
a3001bf4:	61685f71 	smcvs	34289
a3001bf8:	656c646e 	strvsb	r6, [ip, #-1134]!
a3001bfc:	3a632e72 	bcc	a48cd5cc <__bss_end__+0x1889db0>
a3001c00:	0a2b2b3a 	beq	a3acc8f0 <__bss_end__+0xa890d4>
a3001c04:	00000000 	andeq	r0, r0, r0
a3001c08:	72695f63 	rsbvc	r5, r9, #396	; 0x18c
a3001c0c:	61685f71 	smcvs	34289
a3001c10:	656c646e 	strvsb	r6, [ip, #-1134]!
a3001c14:	3a632e72 	bcc	a48cd5e4 <__bss_end__+0x1889dc8>
a3001c18:	0a2d2d3a 	beq	a3b4d108 <__bss_end__+0xb098ec>
a3001c1c:	00000000 	andeq	r0, r0, r0
a3001c20:	77735f63 	ldrvcb	r5, [r3, -r3, ror #30]!
a3001c24:	61685f69 	cmnvs	r8, r9, ror #30
a3001c28:	656c646e 	strvsb	r6, [ip, #-1134]!
a3001c2c:	203a3a72 	eorcss	r3, sl, r2, ror sl
a3001c30:	5f697773 	svcpl	0x00697773
a3001c34:	206d756e 	rsbcs	r7, sp, lr, ror #10
a3001c38:	6425203d 	strvst	r2, [r5], #-61
a3001c3c:	0000000a 	andeq	r0, r0, sl
a3001c40:	72775f63 	rsbvcs	r5, r7, #396	; 0x18c
a3001c44:	3a657469 	bcc	a495edf0 <__bss_end__+0x191b5d4>
a3001c48:	4245203a 	submi	r2, r5, #58	; 0x3a
a3001c4c:	0a464441 	beq	a4192d58 <__bss_end__+0x114f53c>
	...
a3001c58:	72775f63 	rsbvcs	r5, r7, #396	; 0x18c
a3001c5c:	3a657469 	bcc	a495ee08 <__bss_end__+0x191b5ec>
a3001c60:	4645203a 	undefined
a3001c64:	544c5541 	strplb	r5, [ip], #-1345
a3001c68:	0000000a 	andeq	r0, r0, sl
a3001c6c:	00000000 	andeq	r0, r0, r0
a3001c70:	00082008 	andeq	r2, r8, r8
a3001c74:	00000000 	andeq	r0, r0, r0
a3001c78:	6e72654b 	cdpvs	5, 7, cr6, cr2, cr11, {2}
a3001c7c:	70206c65 	eorvc	r6, r0, r5, ror #24
a3001c80:	63696e61 	cmnvs	r9, #1552	; 0x610
a3001c84:	6e69203a 	mcrvs	0, 3, r2, cr9, cr10, {1}
a3001c88:	696c6176 	stmvsdb	ip!, {r1, r2, r4, r5, r6, r8, sp, lr}^
a3001c8c:	79732064 	ldmvcdb	r3!, {r2, r5, r6, sp}^
a3001c90:	6c616373 	stcvsl	3, cr6, [r1], #-460
a3001c94:	2d2d206c 	stccs	0, cr2, [sp, #-432]!
a3001c98:	25783020 	ldrcsb	r3, [r8, #-32]!
a3001c9c:	0a783830 	beq	a4e0fd64 <__bss_end__+0x1dcc548>
	...
a3001ca8:	6b736174 	blvs	a4cda280 <__bss_end__+0x1c96a64>
a3001cac:	6572635f 	ldrvsb	r6, [r2, #-863]!
a3001cb0:	2b657461 	blcs	a495ee3c <__bss_end__+0x191b620>
a3001cb4:	00000a2b 	andeq	r0, r0, fp, lsr #20
a3001cb8:	6b736174 	blvs	a4cda290 <__bss_end__+0x1c96a74>
a3001cbc:	6572635f 	ldrvsb	r6, [r2, #-863]!
a3001cc0:	2e657461 	cdpcs	4, 6, cr7, cr5, cr1, {3}
a3001cc4:	69642e2e 	stmvsdb	r4!, {r1, r2, r3, r5, r9, sl, fp, sp}^
a3001cc8:	74617073 	strvcbt	r7, [r1], #-115
a3001ccc:	6e696863 	cdpvs	8, 6, cr6, cr9, cr3, {3}
a3001cd0:	00000a67 	andeq	r0, r0, r7, ror #20
a3001cd4:	00000000 	andeq	r0, r0, r0
a3001cd8:	6f6c6c61 	svcvs	0x006c6c61
a3001cdc:	65746163 	ldrvsb	r6, [r4, #-355]!
a3001ce0:	7361745f 	cmnvc	r1, #1593835520	; 0x5f000000
a3001ce4:	2e2e736b 	cdpcs	3, 2, cr7, cr14, cr11, {3}
a3001ce8:	0a2b2b2e 	beq	a3acc9a8 <__bss_end__+0xa8918c>
a3001cec:	00000000 	andeq	r0, r0, r0
a3001cf0:	6f6c6c61 	svcvs	0x006c6c61
a3001cf4:	65746163 	ldrvsb	r6, [r4, #-355]!
a3001cf8:	7361745f 	cmnvc	r1, #1593835520	; 0x5f000000
a3001cfc:	2e2e736b 	cdpcs	3, 2, cr7, cr14, cr11, {3}
a3001d00:	746e652e 	strvcbt	r6, [lr], #-1326
a3001d04:	6e697265 	cdpvs	2, 6, cr7, cr9, cr5, {3}
a3001d08:	6f6c2067 	svcvs	0x006c2067
a3001d0c:	000a706f 	andeq	r7, sl, pc, rrx
a3001d10:	6f6c6c61 	svcvs	0x006c6c61
a3001d14:	65746163 	ldrvsb	r6, [r4, #-355]!
a3001d18:	7361745f 	cmnvc	r1, #1593835520	; 0x5f000000
a3001d1c:	2e2e736b 	cdpcs	3, 2, cr7, cr14, cr11, {3}
a3001d20:	6c6c612e 	stfvse	f6, [ip], #-184
a3001d24:	7461636f 	strvcbt	r6, [r1], #-879
a3001d28:	20676e69 	rsbcs	r6, r7, r9, ror #28
a3001d2c:	6b736174 	blvs	a4cda304 <__bss_end__+0x1c96ae8>
a3001d30:	0a642520 	beq	a490b1b8 <__bss_end__+0x18c799c>
a3001d34:	00000000 	andeq	r0, r0, r0
a3001d38:	6f6c6c61 	svcvs	0x006c6c61
a3001d3c:	65746163 	ldrvsb	r6, [r4, #-355]!
a3001d40:	7361745f 	cmnvc	r1, #1593835520	; 0x5f000000
a3001d44:	2e2e736b 	cdpcs	3, 2, cr7, cr14, cr11, {3}
a3001d48:	6f6f6c2e 	svcvs	0x006f6c2e
a3001d4c:	6f632070 	svcvs	0x00632070
a3001d50:	656c706d 	strvsb	r7, [ip, #-109]!
a3001d54:	202c6574 	eorcs	r6, ip, r4, ror r5
a3001d58:	6e696f64 	cdpvs	15, 6, cr6, cr9, cr4, {3}
a3001d5c:	64692067 	strvsbt	r2, [r9], #-103
a3001d60:	000a656c 	andeq	r6, sl, ip, ror #10
a3001d64:	00000000 	andeq	r0, r0, r0
a3001d68:	6f6c6c61 	svcvs	0x006c6c61
a3001d6c:	65746163 	ldrvsb	r6, [r4, #-355]!
a3001d70:	7361745f 	cmnvc	r1, #1593835520	; 0x5f000000
a3001d74:	2e2e736b 	cdpcs	3, 2, cr7, cr14, cr11, {3}
a3001d78:	6c64692e 	stcvsl	9, cr6, [r4], #-184
a3001d7c:	6f632065 	svcvs	0x00632065
a3001d80:	656c706d 	strvsb	r7, [ip, #-109]!
a3001d84:	000a6574 	andeq	r6, sl, r4, ror r5
a3001d88:	6f6c6c61 	svcvs	0x006c6c61
a3001d8c:	65746163 	ldrvsb	r6, [r4, #-355]!
a3001d90:	7361745f 	cmnvc	r1, #1593835520	; 0x5f000000
a3001d94:	2e2e736b 	cdpcs	3, 2, cr7, cr14, cr11, {3}
a3001d98:	0a2d2d2e 	beq	a3b4d258 <__bss_end__+0xb09a3c>
a3001d9c:	00000000 	andeq	r0, r0, r0

a3001da0 <prio_unmap_table>:
a3001da0:	00010000 	andeq	r0, r1, r0
a3001da4:	00010002 	andeq	r0, r1, r2
a3001da8:	00010003 	andeq	r0, r1, r3
a3001dac:	00010002 	andeq	r0, r1, r2
a3001db0:	00010004 	andeq	r0, r1, r4
a3001db4:	00010002 	andeq	r0, r1, r2
a3001db8:	00010003 	andeq	r0, r1, r3
a3001dbc:	00010002 	andeq	r0, r1, r2
a3001dc0:	00010005 	andeq	r0, r1, r5
a3001dc4:	00010002 	andeq	r0, r1, r2
a3001dc8:	00010003 	andeq	r0, r1, r3
a3001dcc:	00010002 	andeq	r0, r1, r2
a3001dd0:	00010004 	andeq	r0, r1, r4
a3001dd4:	00010002 	andeq	r0, r1, r2
a3001dd8:	00010003 	andeq	r0, r1, r3
a3001ddc:	00010002 	andeq	r0, r1, r2
a3001de0:	00010006 	andeq	r0, r1, r6
a3001de4:	00010002 	andeq	r0, r1, r2
a3001de8:	00010003 	andeq	r0, r1, r3
a3001dec:	00010002 	andeq	r0, r1, r2
a3001df0:	00010004 	andeq	r0, r1, r4
a3001df4:	00010002 	andeq	r0, r1, r2
a3001df8:	00010003 	andeq	r0, r1, r3
a3001dfc:	00010002 	andeq	r0, r1, r2
a3001e00:	00010005 	andeq	r0, r1, r5
a3001e04:	00010002 	andeq	r0, r1, r2
a3001e08:	00010003 	andeq	r0, r1, r3
a3001e0c:	00010002 	andeq	r0, r1, r2
a3001e10:	00010004 	andeq	r0, r1, r4
a3001e14:	00010002 	andeq	r0, r1, r2
a3001e18:	00010003 	andeq	r0, r1, r3
a3001e1c:	00010002 	andeq	r0, r1, r2
a3001e20:	00010007 	andeq	r0, r1, r7
a3001e24:	00010002 	andeq	r0, r1, r2
a3001e28:	00010003 	andeq	r0, r1, r3
a3001e2c:	00010002 	andeq	r0, r1, r2
a3001e30:	00010004 	andeq	r0, r1, r4
a3001e34:	00010002 	andeq	r0, r1, r2
a3001e38:	00010003 	andeq	r0, r1, r3
a3001e3c:	00010002 	andeq	r0, r1, r2
a3001e40:	00010005 	andeq	r0, r1, r5
a3001e44:	00010002 	andeq	r0, r1, r2
a3001e48:	00010003 	andeq	r0, r1, r3
a3001e4c:	00010002 	andeq	r0, r1, r2
a3001e50:	00010004 	andeq	r0, r1, r4
a3001e54:	00010002 	andeq	r0, r1, r2
a3001e58:	00010003 	andeq	r0, r1, r3
a3001e5c:	00010002 	andeq	r0, r1, r2
a3001e60:	00010006 	andeq	r0, r1, r6
a3001e64:	00010002 	andeq	r0, r1, r2
a3001e68:	00010003 	andeq	r0, r1, r3
a3001e6c:	00010002 	andeq	r0, r1, r2
a3001e70:	00010004 	andeq	r0, r1, r4
a3001e74:	00010002 	andeq	r0, r1, r2
a3001e78:	00010003 	andeq	r0, r1, r3
a3001e7c:	00010002 	andeq	r0, r1, r2
a3001e80:	00010005 	andeq	r0, r1, r5
a3001e84:	00010002 	andeq	r0, r1, r2
a3001e88:	00010003 	andeq	r0, r1, r3
a3001e8c:	00010002 	andeq	r0, r1, r2
a3001e90:	00010004 	andeq	r0, r1, r4
a3001e94:	00010002 	andeq	r0, r1, r2
a3001e98:	00010003 	andeq	r0, r1, r3
a3001e9c:	00010002 	andeq	r0, r1, r2
Disassembly of section .data:

a3001ea0 <__data_start>:
a3001ea0:	00000001 	andeq	r0, r0, r1
Disassembly of section .bss:

a3001ea8 <uboot_abt_address>:
a3001ea8:	00000000 	andeq	r0, r0, r0

a3001eac <uboot_swi_address>:
a3001eac:	00000000 	andeq	r0, r0, r0

a3001eb0 <uboot_irq_address>:
a3001eb0:	00000000 	andeq	r0, r0, r0

a3001eb4 <uboot_swi_ins>:
	...

a3001ebc <uboot_irq_ins>:
	...

a3001ec4 <uboot_abt_ins>:
	...

a3001ecc <devices>:
	...

a3001eec <kernel_time>:
a3001eec:	00000000 	andeq	r0, r0, r0

a3001ef0 <sleeping>:
	...

a3001ef8 <irq_stack_lo>:
	...

a3001f00 <irq_stack_hi>:
a3001f00:	00000000 	andeq	r0, r0, r0

a3001f04 <run_list>:
	...

a3002004 <run_bits>:
	...

a300200c <group_run_bits>:
a300200c:	00000000 	andeq	r0, r0, r0

a3002010 <global_data2>:
a3002010:	00000000 	andeq	r0, r0, r0

a3002014 <global_data>:
a3002014:	00000000 	andeq	r0, r0, r0

a3002018 <abort_stack>:
	...

a3002418 <irq_stack>:
	...

a3002818 <system_tcb>:
	...

a3043618 <gtMutex>:
	...

a3043818 <mutexID>:
a3043818:	00000000 	andeq	r0, r0, r0
Disassembly of section .comment:

00000000 <.comment>:
   0:	43434700 	movtmi	r4, #14080	; 0x3700
   4:	4728203a 	undefined
   8:	2029554e 	eorcs	r5, r9, lr, asr #10
   c:	2e312e34 	mrccs	14, 1, r2, cr1, cr4, {1}
  10:	47000031 	smladxmi	r0, r1, r0, r0
  14:	203a4343 	eorcss	r4, sl, r3, asr #6
  18:	554e4728 	strplb	r4, [lr, #-1832]
  1c:	2e342029 	cdpcs	0, 3, cr2, cr4, cr9, {1}
  20:	00312e31 	eoreqs	r2, r1, r1, lsr lr
  24:	43434700 	movtmi	r4, #14080	; 0x3700
  28:	4728203a 	undefined
  2c:	2029554e 	eorcs	r5, r9, lr, asr #10
  30:	2e312e34 	mrccs	14, 1, r2, cr1, cr4, {1}
  34:	47000031 	smladxmi	r0, r1, r0, r0
  38:	203a4343 	eorcss	r4, sl, r3, asr #6
  3c:	554e4728 	strplb	r4, [lr, #-1832]
  40:	2e342029 	cdpcs	0, 3, cr2, cr4, cr9, {1}
  44:	00312e31 	eoreqs	r2, r1, r1, lsr lr
  48:	43434700 	movtmi	r4, #14080	; 0x3700
  4c:	4728203a 	undefined
  50:	2029554e 	eorcs	r5, r9, lr, asr #10
  54:	2e312e34 	mrccs	14, 1, r2, cr1, cr4, {1}
  58:	47000031 	smladxmi	r0, r1, r0, r0
  5c:	203a4343 	eorcss	r4, sl, r3, asr #6
  60:	554e4728 	strplb	r4, [lr, #-1832]
  64:	2e342029 	cdpcs	0, 3, cr2, cr4, cr9, {1}
  68:	00312e31 	eoreqs	r2, r1, r1, lsr lr
  6c:	43434700 	movtmi	r4, #14080	; 0x3700
  70:	4728203a 	undefined
  74:	2029554e 	eorcs	r5, r9, lr, asr #10
  78:	2e312e34 	mrccs	14, 1, r2, cr1, cr4, {1}
  7c:	47000031 	smladxmi	r0, r1, r0, r0
  80:	203a4343 	eorcss	r4, sl, r3, asr #6
  84:	554e4728 	strplb	r4, [lr, #-1832]
  88:	2e342029 	cdpcs	0, 3, cr2, cr4, cr9, {1}
  8c:	00312e31 	eoreqs	r2, r1, r1, lsr lr
  90:	43434700 	movtmi	r4, #14080	; 0x3700
  94:	4728203a 	undefined
  98:	2029554e 	eorcs	r5, r9, lr, asr #10
  9c:	2e312e34 	mrccs	14, 1, r2, cr1, cr4, {1}
  a0:	47000031 	smladxmi	r0, r1, r0, r0
  a4:	203a4343 	eorcss	r4, sl, r3, asr #6
  a8:	554e4728 	strplb	r4, [lr, #-1832]
  ac:	2e342029 	cdpcs	0, 3, cr2, cr4, cr9, {1}
  b0:	00312e31 	eoreqs	r2, r1, r1, lsr lr
  b4:	43434700 	movtmi	r4, #14080	; 0x3700
  b8:	4728203a 	undefined
  bc:	2029554e 	eorcs	r5, r9, lr, asr #10
  c0:	2e312e34 	mrccs	14, 1, r2, cr1, cr4, {1}
  c4:	47000031 	smladxmi	r0, r1, r0, r0
  c8:	203a4343 	eorcss	r4, sl, r3, asr #6
  cc:	554e4728 	strplb	r4, [lr, #-1832]
  d0:	2e342029 	cdpcs	0, 3, cr2, cr4, cr9, {1}
  d4:	00312e31 	eoreqs	r2, r1, r1, lsr lr
  d8:	43434700 	movtmi	r4, #14080	; 0x3700
  dc:	4728203a 	undefined
  e0:	2029554e 	eorcs	r5, r9, lr, asr #10
  e4:	2e312e34 	mrccs	14, 1, r2, cr1, cr4, {1}
  e8:	47000031 	smladxmi	r0, r1, r0, r0
  ec:	203a4343 	eorcss	r4, sl, r3, asr #6
  f0:	554e4728 	strplb	r4, [lr, #-1832]
  f4:	2e342029 	cdpcs	0, 3, cr2, cr4, cr9, {1}
  f8:	00312e31 	eoreqs	r2, r1, r1, lsr lr
  fc:	43434700 	movtmi	r4, #14080	; 0x3700
 100:	4728203a 	undefined
 104:	2029554e 	eorcs	r5, r9, lr, asr #10
 108:	2e312e34 	mrccs	14, 1, r2, cr1, cr4, {1}
 10c:	47000031 	smladxmi	r0, r1, r0, r0
 110:	203a4343 	eorcss	r4, sl, r3, asr #6
 114:	554e4728 	strplb	r4, [lr, #-1832]
 118:	2e342029 	cdpcs	0, 3, cr2, cr4, cr9, {1}
 11c:	00312e31 	eoreqs	r2, r1, r1, lsr lr
 120:	43434700 	movtmi	r4, #14080	; 0x3700
 124:	4728203a 	undefined
 128:	2029554e 	eorcs	r5, r9, lr, asr #10
 12c:	2e312e34 	mrccs	14, 1, r2, cr1, cr4, {1}
 130:	47000031 	smladxmi	r0, r1, r0, r0
 134:	203a4343 	eorcss	r4, sl, r3, asr #6
 138:	554e4728 	strplb	r4, [lr, #-1832]
 13c:	2e342029 	cdpcs	0, 3, cr2, cr4, cr9, {1}
 140:	00312e31 	eoreqs	r2, r1, r1, lsr lr
 144:	43434700 	movtmi	r4, #14080	; 0x3700
 148:	4728203a 	undefined
 14c:	2029554e 	eorcs	r5, r9, lr, asr #10
 150:	2e312e34 	mrccs	14, 1, r2, cr1, cr4, {1}
 154:	47000031 	smladxmi	r0, r1, r0, r0
 158:	203a4343 	eorcss	r4, sl, r3, asr #6
 15c:	554e4728 	strplb	r4, [lr, #-1832]
 160:	2e342029 	cdpcs	0, 3, cr2, cr4, cr9, {1}
 164:	00312e31 	eoreqs	r2, r1, r1, lsr lr
 168:	43434700 	movtmi	r4, #14080	; 0x3700
 16c:	4728203a 	undefined
 170:	2029554e 	eorcs	r5, r9, lr, asr #10
 174:	2e312e34 	mrccs	14, 1, r2, cr1, cr4, {1}
 178:	47000031 	smladxmi	r0, r1, r0, r0
 17c:	203a4343 	eorcss	r4, sl, r3, asr #6
 180:	554e4728 	strplb	r4, [lr, #-1832]
 184:	2e342029 	cdpcs	0, 3, cr2, cr4, cr9, {1}
 188:	00312e31 	eoreqs	r2, r1, r1, lsr lr
 18c:	43434700 	movtmi	r4, #14080	; 0x3700
 190:	4728203a 	undefined
 194:	2029554e 	eorcs	r5, r9, lr, asr #10
 198:	2e312e34 	mrccs	14, 1, r2, cr1, cr4, {1}
 19c:	Address 0x0000019c is out of bounds.

