
kernel/kernel:     file format elf32-littlearm

Disassembly of section .text:

a3000000 <_start>:
a3000000:	e1a02008 	mov	r2, r8
a3000004:	ea000037 	b	a30000e8 <kmain>

a3000008 <register_dump>:
a3000008:	e92d40f0 	stmdb	sp!, {r4, r5, r6, r7, lr}
a300000c:	e5901054 	ldr	r1, [r0, #84]
a3000010:	e1a07000 	mov	r7, r0
a3000014:	e24dd014 	sub	sp, sp, #20	; 0x14
a3000018:	e59f008c 	ldr	r0, [pc, #140]	; a30000ac <.text+0xac>
a300001c:	e2411004 	sub	r1, r1, #4	; 0x4
a3000020:	eb0007b1 	bl	a3001eec <printf>
a3000024:	e597c02c 	ldr	ip, [r7, #44]
a3000028:	e597e030 	ldr	lr, [r7, #48]
a300002c:	e2874034 	add	r4, r7, #52	; 0x34
a3000030:	e8940070 	ldmia	r4, {r4, r5, r6}
a3000034:	e2871020 	add	r1, r7, #32	; 0x20
a3000038:	e891000e 	ldmia	r1, {r1, r2, r3}
a300003c:	e59f006c 	ldr	r0, [pc, #108]	; a30000b0 <.text+0xb0>
a3000040:	e88d5000 	stmia	sp, {ip, lr}
a3000044:	e58d4008 	str	r4, [sp, #8]
a3000048:	e58d500c 	str	r5, [sp, #12]
a300004c:	e58d6010 	str	r6, [sp, #16]
a3000050:	eb0007a5 	bl	a3001eec <printf>
a3000054:	e597301c 	ldr	r3, [r7, #28]
a3000058:	e2033011 	and	r3, r3, #17	; 0x11
a300005c:	e3530011 	cmp	r3, #17	; 0x11
a3000060:	1a000004 	bne	a3000078 <register_dump+0x70>
a3000064:	e597c00c 	ldr	ip, [r7, #12]
a3000068:	e597e010 	ldr	lr, [r7, #16]
a300006c:	e59f0040 	ldr	r0, [pc, #64]	; a30000b4 <.text+0xb4>
a3000070:	e897000e 	ldmia	r7, {r1, r2, r3}
a3000074:	ea000004 	b	a300008c <register_dump+0x84>
a3000078:	e597c04c 	ldr	ip, [r7, #76]
a300007c:	e597e050 	ldr	lr, [r7, #80]
a3000080:	e59f002c 	ldr	r0, [pc, #44]	; a30000b4 <.text+0xb4>
a3000084:	e2871040 	add	r1, r7, #64	; 0x40
a3000088:	e891000e 	ldmia	r1, {r1, r2, r3}
a300008c:	e88d5000 	stmia	sp, {ip, lr}
a3000090:	eb000795 	bl	a3001eec <printf>
a3000094:	e597301c 	ldr	r3, [r7, #28]
a3000098:	e59f0018 	ldr	r0, [pc, #24]	; a30000b8 <.text+0xb8>
a300009c:	e5971014 	ldr	r1, [r7, #20]
a30000a0:	e5972018 	ldr	r2, [r7, #24]
a30000a4:	eb000790 	bl	a3001eec <printf>
a30000a8:	eafffffe 	b	a30000a8 <register_dump+0xa0>
a30000ac:	a3001f78 	movwge	r1, #3960	; 0xf78
a30000b0:	a3001fa0 	movwge	r1, #4000	; 0xfa0
a30000b4:	a3002010 	movwge	r2, #16	; 0x10
a30000b8:	a3002050 	movwge	r2, #80	; 0x50

a30000bc <panic>:
a30000bc:	e92d000f 	stmdb	sp!, {r0, r1, r2, r3}
a30000c0:	e24dd004 	sub	sp, sp, #4	; 0x4
a30000c4:	e28d3008 	add	r3, sp, #8	; 0x8
a30000c8:	e59f0014 	ldr	r0, [pc, #20]	; a30000e4 <.text+0xe4>
a30000cc:	e58d3000 	str	r3, [sp]
a30000d0:	eb000785 	bl	a3001eec <printf>
a30000d4:	e10f3000 	mrs	r3, CPSR
a30000d8:	e38330c0 	orr	r3, r3, #192	; 0xc0
a30000dc:	e121f003 	msr	CPSR_c, r3
a30000e0:	eafffffe 	b	a30000e0 <panic+0x24>
a30000e4:	a3002078 	movwge	r2, #120	; 0x78

a30000e8 <kmain>:
a30000e8:	e92d40f0 	stmdb	sp!, {r4, r5, r6, r7, lr}
a30000ec:	e59f5184 	ldr	r5, [pc, #388]	; a3000278 <.text+0x278>
a30000f0:	e1a06000 	mov	r6, r0
a30000f4:	e1a07001 	mov	r7, r1
a30000f8:	e5953000 	ldr	r3, [r5]
a30000fc:	e1a04002 	mov	r4, r2
a3000100:	e3530001 	cmp	r3, #1	; 0x1
a3000104:	1a000001 	bne	a3000110 <kmain+0x28>
a3000108:	e59f016c 	ldr	r0, [pc, #364]	; a300027c <.text+0x27c>
a300010c:	eb000774 	bl	a3001ee4 <puts>
a3000110:	eb00078d 	bl	a3001f4c <app_startup>
a3000114:	e5953000 	ldr	r3, [r5]
a3000118:	e3530001 	cmp	r3, #1	; 0x1
a300011c:	e59f315c 	ldr	r3, [pc, #348]	; a3000280 <.text+0x280>
a3000120:	e5834000 	str	r4, [r3]
a3000124:	1a000001 	bne	a3000130 <kmain+0x48>
a3000128:	e59f0154 	ldr	r0, [pc, #340]	; a3000284 <.text+0x284>
a300012c:	eb00076c 	bl	a3001ee4 <puts>
a3000130:	e3a00003 	mov	r0, #3	; 0x3
a3000134:	eb0000c6 	bl	a3000454 <wire_exception_handler>
a3000138:	e3700001 	cmn	r0, #1	; 0x1
a300013c:	0a00001d 	beq	a30001b8 <kmain+0xd0>
a3000140:	e5953000 	ldr	r3, [r5]
a3000144:	e3530001 	cmp	r3, #1	; 0x1
a3000148:	1a000001 	bne	a3000154 <kmain+0x6c>
a300014c:	e59f0134 	ldr	r0, [pc, #308]	; a3000288 <.text+0x288>
a3000150:	eb000763 	bl	a3001ee4 <puts>
a3000154:	eb000150 	bl	a300069c <setup_abort_stack>
a3000158:	eb000147 	bl	a300067c <setup_irq_stack>
a300015c:	e5953000 	ldr	r3, [r5]
a3000160:	e3530001 	cmp	r3, #1	; 0x1
a3000164:	1a000001 	bne	a3000170 <kmain+0x88>
a3000168:	e59f011c 	ldr	r0, [pc, #284]	; a300028c <.text+0x28c>
a300016c:	eb00075c 	bl	a3001ee4 <puts>
a3000170:	e3a00002 	mov	r0, #2	; 0x2
a3000174:	eb0000b6 	bl	a3000454 <wire_exception_handler>
a3000178:	e3700001 	cmn	r0, #1	; 0x1
a300017c:	1a000004 	bne	a3000194 <kmain+0xac>
a3000180:	e59f0108 	ldr	r0, [pc, #264]	; a3000290 <.text+0x290>
a3000184:	e3a01008 	mov	r1, #8	; 0x8
a3000188:	eb000757 	bl	a3001eec <printf>
a300018c:	e59f4100 	ldr	r4, [pc, #256]	; a3000294 <.text+0x294>
a3000190:	ea000036 	b	a3000270 <kmain+0x188>
a3000194:	e5953000 	ldr	r3, [r5]
a3000198:	e3530001 	cmp	r3, #1	; 0x1
a300019c:	1a000001 	bne	a30001a8 <kmain+0xc0>
a30001a0:	e59f00f0 	ldr	r0, [pc, #240]	; a3000298 <.text+0x298>
a30001a4:	eb00074e 	bl	a3001ee4 <puts>
a30001a8:	e3a00006 	mov	r0, #6	; 0x6
a30001ac:	eb0000a8 	bl	a3000454 <wire_exception_handler>
a30001b0:	e3700001 	cmn	r0, #1	; 0x1
a30001b4:	1a000002 	bne	a30001c4 <kmain+0xdc>
a30001b8:	e59f00d0 	ldr	r0, [pc, #208]	; a3000290 <.text+0x290>
a30001bc:	e3a0100c 	mov	r1, #12	; 0xc
a30001c0:	eafffff0 	b	a3000188 <kmain+0xa0>
a30001c4:	e5953000 	ldr	r3, [r5]
a30001c8:	e3530001 	cmp	r3, #1	; 0x1
a30001cc:	1a000001 	bne	a30001d8 <kmain+0xf0>
a30001d0:	e59f00c4 	ldr	r0, [pc, #196]	; a300029c <.text+0x29c>
a30001d4:	eb000742 	bl	a3001ee4 <puts>
a30001d8:	eb000264 	bl	a3000b70 <initialize_timer>
a30001dc:	e5953000 	ldr	r3, [r5]
a30001e0:	e3530001 	cmp	r3, #1	; 0x1
a30001e4:	1a000001 	bne	a30001f0 <kmain+0x108>
a30001e8:	e59f00b0 	ldr	r0, [pc, #176]	; a30002a0 <.text+0x2a0>
a30001ec:	eb00073c 	bl	a3001ee4 <puts>
a30001f0:	e1a01006 	mov	r1, r6
a30001f4:	e1a02007 	mov	r2, r7
a30001f8:	e3a004a3 	mov	r0, #-1560281088	; 0xa3000000
a30001fc:	eb000245 	bl	a3000b18 <setup_stack>
a3000200:	e1a04000 	mov	r4, r0
a3000204:	eb000168 	bl	a30007ac <dev_init>
a3000208:	e5953000 	ldr	r3, [r5]
a300020c:	e3530001 	cmp	r3, #1	; 0x1
a3000210:	1a000001 	bne	a300021c <kmain+0x134>
a3000214:	e59f0088 	ldr	r0, [pc, #136]	; a30002a4 <.text+0x2a4>
a3000218:	eb000731 	bl	a3001ee4 <puts>
a300021c:	e1a00004 	mov	r0, r4
a3000220:	e3a0120a 	mov	r1, #-1610612736	; 0xa0000000
a3000224:	eb00021e 	bl	a3000aa4 <_enable_user_prog>
a3000228:	e5953000 	ldr	r3, [r5]
a300022c:	e1a04000 	mov	r4, r0
a3000230:	e3530001 	cmp	r3, #1	; 0x1
a3000234:	1a000001 	bne	a3000240 <kmain+0x158>
a3000238:	e59f0068 	ldr	r0, [pc, #104]	; a30002a8 <.text+0x2a8>
a300023c:	eb000728 	bl	a3001ee4 <puts>
a3000240:	eb000263 	bl	a3000bd4 <uninitialize_timer>
a3000244:	e5953000 	ldr	r3, [r5]
a3000248:	e3530001 	cmp	r3, #1	; 0x1
a300024c:	1a000001 	bne	a3000258 <kmain+0x170>
a3000250:	e59f0054 	ldr	r0, [pc, #84]	; a30002ac <.text+0x2ac>
a3000254:	eb000722 	bl	a3001ee4 <puts>
a3000258:	eb0000c5 	bl	a3000574 <restore_handlers>
a300025c:	e5953000 	ldr	r3, [r5]
a3000260:	e3530001 	cmp	r3, #1	; 0x1
a3000264:	1a000001 	bne	a3000270 <kmain+0x188>
a3000268:	e59f0040 	ldr	r0, [pc, #64]	; a30002b0 <.text+0x2b0>
a300026c:	eb00071c 	bl	a3001ee4 <puts>
a3000270:	e1a00004 	mov	r0, r4
a3000274:	e8bd80f0 	ldmia	sp!, {r4, r5, r6, r7, pc}
a3000278:	a3002e40 	movwge	r2, #3648	; 0xe40
a300027c:	a3002080 	movwge	r2, #128	; 0x80
a3000280:	a3002fac 	movwge	r2, #4012	; 0xfac
a3000284:	a30020a0 	movwge	r2, #160	; 0xa0
a3000288:	a30020f8 	movwge	r2, #248	; 0xf8
a300028c:	a3002118 	movwge	r2, #280	; 0x118
a3000290:	a30020c0 	movwge	r2, #192	; 0xc0
a3000294:	0badc0de 	bleq	a1b70614 <_start-0x148f9ec>
a3000298:	a3002138 	movwge	r2, #312	; 0x138
a300029c:	a3002158 	movwge	r2, #344	; 0x158
a30002a0:	a3002170 	movwge	r2, #368	; 0x170
a30002a4:	a3002188 	movwge	r2, #392	; 0x188
a30002a8:	a30021a0 	movwge	r2, #416	; 0x1a0
a30002ac:	a30021b8 	movwge	r2, #440	; 0x1b8
a30002b0:	a30021d0 	movwge	r2, #464	; 0x1d0

a30002b4 <sum_region>:
a30002b4:	e3a0c000 	mov	ip, #0	; 0x0
a30002b8:	e1a0200c 	mov	r2, ip
a30002bc:	ea000002 	b	a30002cc <sum_region+0x18>
a30002c0:	e7903102 	ldr	r3, [r0, r2, lsl #2]
a30002c4:	e2822001 	add	r2, r2, #1	; 0x1
a30002c8:	e08cc003 	add	ip, ip, r3
a30002cc:	e1520001 	cmp	r2, r1
a30002d0:	1afffffa 	bne	a30002c0 <sum_region+0xc>
a30002d4:	e1a0000c 	mov	r0, ip
a30002d8:	e12fff1e 	bx	lr

a30002dc <ilog2>:
a30002dc:	e3a03000 	mov	r3, #0	; 0x0
a30002e0:	ea000000 	b	a30002e8 <ilog2+0xc>
a30002e4:	e2833001 	add	r3, r3, #1	; 0x1
a30002e8:	e1b000a0 	movs	r0, r0, lsr #1
a30002ec:	1afffffc 	bne	a30002e4 <ilog2+0x8>
a30002f0:	e1a00003 	mov	r0, r3
a30002f4:	e12fff1e 	bx	lr

a30002f8 <valid_addr>:
a30002f8:	e1a0c003 	mov	ip, r3
a30002fc:	e1500003 	cmp	r0, r3
a3000300:	33a03000 	movcc	r3, #0	; 0x0
a3000304:	23a03001 	movcs	r3, #1	; 0x1
a3000308:	e1500002 	cmp	r0, r2
a300030c:	33833001 	orrcc	r3, r3, #1	; 0x1
a3000310:	e3530000 	cmp	r3, #0	; 0x0
a3000314:	e3a03000 	mov	r3, #0	; 0x0
a3000318:	1a000005 	bne	a3000334 <valid_addr+0x3c>
a300031c:	e0902001 	adds	r2, r0, r1
a3000320:	33a03000 	movcc	r3, #0	; 0x0
a3000324:	23a03001 	movcs	r3, #1	; 0x1
a3000328:	e152000c 	cmp	r2, ip
a300032c:	83833001 	orrhi	r3, r3, #1	; 0x1
a3000330:	e2233001 	eor	r3, r3, #1	; 0x1
a3000334:	e1a00003 	mov	r0, r3
a3000338:	e12fff1e 	bx	lr

a300033c <raise>:
a300033c:	e52de004 	str	lr, [sp, #-4]!
a3000340:	e59f0004 	ldr	r0, [pc, #4]	; a300034c <.text+0x34c>
a3000344:	eb0006e6 	bl	a3001ee4 <puts>
a3000348:	eafffffe 	b	a3000348 <raise+0xc>
a300034c:	a30021e8 	movwge	r2, #488	; 0x1e8

a3000350 <hexdump>:
a3000350:	e92d44f0 	stmdb	sp!, {r4, r5, r6, r7, sl, lr}
a3000354:	e1a0a000 	mov	sl, r0
a3000358:	e59f00d0 	ldr	r0, [pc, #208]	; a3000430 <.text+0x430>
a300035c:	e1a07001 	mov	r7, r1
a3000360:	eb0006e1 	bl	a3001eec <printf>
a3000364:	e3a05000 	mov	r5, #0	; 0x0
a3000368:	ea00002b 	b	a300041c <hexdump+0xcc>
a300036c:	e59f00c0 	ldr	r0, [pc, #192]	; a3000434 <.text+0x434>
a3000370:	e1a01005 	mov	r1, r5
a3000374:	eb0006dc 	bl	a3001eec <printf>
a3000378:	e1a04005 	mov	r4, r5
a300037c:	ea00000b 	b	a30003b0 <hexdump+0x60>
a3000380:	e3140003 	tst	r4, #3	; 0x3
a3000384:	1a000000 	bne	a300038c <hexdump+0x3c>
a3000388:	eb0006d7 	bl	a3001eec <printf>
a300038c:	e1540007 	cmp	r4, r7
a3000390:	e59f00a0 	ldr	r0, [pc, #160]	; a3000438 <.text+0x438>
a3000394:	3a000001 	bcc	a30003a0 <hexdump+0x50>
a3000398:	eb0006d3 	bl	a3001eec <printf>
a300039c:	ea000002 	b	a30003ac <hexdump+0x5c>
a30003a0:	e7d4100a 	ldrb	r1, [r4, sl]
a30003a4:	e59f0090 	ldr	r0, [pc, #144]	; a300043c <.text+0x43c>
a30003a8:	eb0006cf 	bl	a3001eec <printf>
a30003ac:	e2844001 	add	r4, r4, #1	; 0x1
a30003b0:	e2856010 	add	r6, r5, #16	; 0x10
a30003b4:	e1540006 	cmp	r4, r6
a30003b8:	e59f0080 	ldr	r0, [pc, #128]	; a3000440 <.text+0x440>
a30003bc:	3affffef 	bcc	a3000380 <hexdump+0x30>
a30003c0:	e59f007c 	ldr	r0, [pc, #124]	; a3000444 <.text+0x444>
a30003c4:	eb0006c8 	bl	a3001eec <printf>
a30003c8:	e08a4005 	add	r4, sl, r5
a30003cc:	ea00000c 	b	a3000404 <hexdump+0xb4>
a30003d0:	e1550007 	cmp	r5, r7
a30003d4:	3a000001 	bcc	a30003e0 <hexdump+0x90>
a30003d8:	eb0006c3 	bl	a3001eec <printf>
a30003dc:	ea000006 	b	a30003fc <hexdump+0xac>
a30003e0:	e5d43000 	ldrb	r3, [r4]
a30003e4:	e59f005c 	ldr	r0, [pc, #92]	; a3000448 <.text+0x448>
a30003e8:	e2431021 	sub	r1, r3, #33	; 0x21
a30003ec:	e351005d 	cmp	r1, #93	; 0x5d
a30003f0:	91a01003 	movls	r1, r3
a30003f4:	83a0102e 	movhi	r1, #46	; 0x2e
a30003f8:	eb0006bb 	bl	a3001eec <printf>
a30003fc:	e2855001 	add	r5, r5, #1	; 0x1
a3000400:	e2844001 	add	r4, r4, #1	; 0x1
a3000404:	e1550006 	cmp	r5, r6
a3000408:	e59f0030 	ldr	r0, [pc, #48]	; a3000440 <.text+0x440>
a300040c:	3affffef 	bcc	a30003d0 <hexdump+0x80>
a3000410:	e59f0034 	ldr	r0, [pc, #52]	; a300044c <.text+0x44c>
a3000414:	eb0006b4 	bl	a3001eec <printf>
a3000418:	e1a05006 	mov	r5, r6
a300041c:	e1550007 	cmp	r5, r7
a3000420:	3affffd1 	bcc	a300036c <hexdump+0x1c>
a3000424:	e59f0024 	ldr	r0, [pc, #36]	; a3000450 <.text+0x450>
a3000428:	e8bd44f0 	ldmia	sp!, {r4, r5, r6, r7, sl, lr}
a300042c:	ea0006ae 	b	a3001eec <printf>
a3000430:	a3002208 	movwge	r2, #520	; 0x208
a3000434:	a3002258 	movwge	r2, #600	; 0x258
a3000438:	a3002270 	movwge	r2, #624	; 0x270
a300043c:	a3002278 	movwge	r2, #632	; 0x278
a3000440:	a3002268 	movwge	r2, #616	; 0x268
a3000444:	a3002280 	movwge	r2, #640	; 0x280
a3000448:	a3002288 	movwge	r2, #648	; 0x288
a300044c:	a3002290 	movwge	r2, #656	; 0x290
a3000450:	a3002298 	movwge	r2, #664	; 0x298

a3000454 <wire_exception_handler>:
a3000454:	e1a0c100 	mov	ip, r0, lsl #2
a3000458:	e59c1000 	ldr	r1, [ip]
a300045c:	e59f30dc 	ldr	r3, [pc, #220]	; a3000540 <.text+0x540>
a3000460:	e92d4010 	stmdb	sp!, {r4, lr}
a3000464:	e1a0e000 	mov	lr, r0
a3000468:	e59f00d4 	ldr	r0, [pc, #212]	; a3000544 <.text+0x544>
a300046c:	e1a02a01 	mov	r2, r1, lsl #20
a3000470:	e1813003 	orr	r3, r1, r3
a3000474:	e1a02a22 	mov	r2, r2, lsr #20
a3000478:	e0331000 	eors	r1, r3, r0
a300047c:	e08c2002 	add	r2, ip, r2
a3000480:	e3e00000 	mvn	r0, #0	; 0x0
a3000484:	1a00002c 	bne	a300053c <wire_exception_handler+0xe8>
a3000488:	e35e0003 	cmp	lr, #3	; 0x3
a300048c:	e59f40b4 	ldr	r4, [pc, #180]	; a3000548 <.text+0x548>
a3000490:	e1a00001 	mov	r0, r1
a3000494:	e592c008 	ldr	ip, [r2, #8]
a3000498:	1a000009 	bne	a30004c4 <wire_exception_handler+0x70>
a300049c:	e59f30a8 	ldr	r3, [pc, #168]	; a300054c <.text+0x54c>
a30004a0:	e59c2000 	ldr	r2, [ip]
a30004a4:	e583c000 	str	ip, [r3]
a30004a8:	e59f30a0 	ldr	r3, [pc, #160]	; a3000550 <.text+0x550>
a30004ac:	e5842000 	str	r2, [r4]
a30004b0:	e59c2004 	ldr	r2, [ip, #4]
a30004b4:	e58c3000 	str	r3, [ip]
a30004b8:	e59f3094 	ldr	r3, [pc, #148]	; a3000554 <.text+0x554>
a30004bc:	e5842004 	str	r2, [r4, #4]
a30004c0:	ea00000c 	b	a30004f8 <wire_exception_handler+0xa4>
a30004c4:	e35e0002 	cmp	lr, #2	; 0x2
a30004c8:	e59f4088 	ldr	r4, [pc, #136]	; a3000558 <.text+0x558>
a30004cc:	e1a00001 	mov	r0, r1
a30004d0:	1a00000a 	bne	a3000500 <wire_exception_handler+0xac>
a30004d4:	e59f3080 	ldr	r3, [pc, #128]	; a300055c <.text+0x55c>
a30004d8:	e59c2000 	ldr	r2, [ip]
a30004dc:	e583c000 	str	ip, [r3]
a30004e0:	e59f3068 	ldr	r3, [pc, #104]	; a3000550 <.text+0x550>
a30004e4:	e5842000 	str	r2, [r4]
a30004e8:	e59c2004 	ldr	r2, [ip, #4]
a30004ec:	e58c3000 	str	r3, [ip]
a30004f0:	e59f3068 	ldr	r3, [pc, #104]	; a3000560 <.text+0x560>
a30004f4:	e5842004 	str	r2, [r4, #4]
a30004f8:	e58c3004 	str	r3, [ip, #4]
a30004fc:	e8bd8010 	ldmia	sp!, {r4, pc}
a3000500:	e35e0006 	cmp	lr, #6	; 0x6
a3000504:	e59f4058 	ldr	r4, [pc, #88]	; a3000564 <.text+0x564>
a3000508:	e1a00001 	mov	r0, r1
a300050c:	1a00000a 	bne	a300053c <wire_exception_handler+0xe8>
a3000510:	e59f3050 	ldr	r3, [pc, #80]	; a3000568 <.text+0x568>
a3000514:	e59c2000 	ldr	r2, [ip]
a3000518:	e1a00001 	mov	r0, r1
a300051c:	e583c000 	str	ip, [r3]
a3000520:	e59f3028 	ldr	r3, [pc, #40]	; a3000550 <.text+0x550>
a3000524:	e5842000 	str	r2, [r4]
a3000528:	e59c2004 	ldr	r2, [ip, #4]
a300052c:	e58c3000 	str	r3, [ip]
a3000530:	e59f3034 	ldr	r3, [pc, #52]	; a300056c <.text+0x56c>
a3000534:	e5842004 	str	r2, [r4, #4]
a3000538:	e58c3004 	str	r3, [ip, #4]
a300053c:	e8bd8010 	ldmia	sp!, {r4, pc}
a3000540:	00800fff 	streqd	r0, [r0], pc
a3000544:	e59fffff 	ldr	pc, [pc, #4095]	; a300154b <dispatch_sleep+0x93>
a3000548:	a3002e60 	movwge	r2, #3680	; 0xe60
a300054c:	a3002e44 	movwge	r2, #3652	; 0xe44
a3000550:	e51ff004 	ldr	pc, [pc, #-4]	; a3000554 <.text+0x554>
a3000554:	a30009fc 	movwge	r0, #2556	; 0x9fc
a3000558:	a3002e50 	movwge	r2, #3664	; 0xe50
a300055c:	a3002e48 	movwge	r2, #3656	; 0xe48
a3000560:	a3000a50 	movwge	r0, #2640	; 0xa50
a3000564:	a3002e58 	movwge	r2, #3672	; 0xe58
a3000568:	a3002e4c 	movwge	r2, #3660	; 0xe4c
a300056c:	a3000e44 	movwge	r0, #3652	; 0xe44

a3000570 <setup_user_stack>:
a3000570:	e12fff1e 	bx	lr

a3000574 <restore_handlers>:
a3000574:	e92d4010 	stmdb	sp!, {r4, lr}
a3000578:	e59f40d4 	ldr	r4, [pc, #212]	; a3000654 <.text+0x654>
a300057c:	e5943000 	ldr	r3, [r4]
a3000580:	e3530000 	cmp	r3, #0	; 0x0
a3000584:	0a00000d 	beq	a30005c0 <restore_handlers+0x4c>
a3000588:	e59f30c8 	ldr	r3, [pc, #200]	; a3000658 <.text+0x658>
a300058c:	e5933000 	ldr	r3, [r3]
a3000590:	e3530001 	cmp	r3, #1	; 0x1
a3000594:	1a000001 	bne	a30005a0 <restore_handlers+0x2c>
a3000598:	e59f00bc 	ldr	r0, [pc, #188]	; a300065c <.text+0x65c>
a300059c:	eb000650 	bl	a3001ee4 <puts>
a30005a0:	e59f10b8 	ldr	r1, [pc, #184]	; a3000660 <.text+0x660>
a30005a4:	e5940000 	ldr	r0, [r4]
a30005a8:	e5912000 	ldr	r2, [r1]
a30005ac:	e1a03000 	mov	r3, r0
a30005b0:	e4832004 	str	r2, [r3], #4
a30005b4:	e5912004 	ldr	r2, [r1, #4]
a30005b8:	e5843000 	str	r3, [r4]
a30005bc:	e5802004 	str	r2, [r0, #4]
a30005c0:	e59f409c 	ldr	r4, [pc, #156]	; a3000664 <.text+0x664>
a30005c4:	e5943000 	ldr	r3, [r4]
a30005c8:	e3530000 	cmp	r3, #0	; 0x0
a30005cc:	0a00000d 	beq	a3000608 <restore_handlers+0x94>
a30005d0:	e59f3080 	ldr	r3, [pc, #128]	; a3000658 <.text+0x658>
a30005d4:	e5933000 	ldr	r3, [r3]
a30005d8:	e3530001 	cmp	r3, #1	; 0x1
a30005dc:	1a000001 	bne	a30005e8 <restore_handlers+0x74>
a30005e0:	e59f0080 	ldr	r0, [pc, #128]	; a3000668 <.text+0x668>
a30005e4:	eb00063e 	bl	a3001ee4 <puts>
a30005e8:	e59f107c 	ldr	r1, [pc, #124]	; a300066c <.text+0x66c>
a30005ec:	e5940000 	ldr	r0, [r4]
a30005f0:	e5912000 	ldr	r2, [r1]
a30005f4:	e1a03000 	mov	r3, r0
a30005f8:	e4832004 	str	r2, [r3], #4
a30005fc:	e5912004 	ldr	r2, [r1, #4]
a3000600:	e5843000 	str	r3, [r4]
a3000604:	e5802004 	str	r2, [r0, #4]
a3000608:	e59f4060 	ldr	r4, [pc, #96]	; a3000670 <.text+0x670>
a300060c:	e5943000 	ldr	r3, [r4]
a3000610:	e3530000 	cmp	r3, #0	; 0x0
a3000614:	0a00000d 	beq	a3000650 <restore_handlers+0xdc>
a3000618:	e59f3038 	ldr	r3, [pc, #56]	; a3000658 <.text+0x658>
a300061c:	e5933000 	ldr	r3, [r3]
a3000620:	e3530001 	cmp	r3, #1	; 0x1
a3000624:	1a000001 	bne	a3000630 <restore_handlers+0xbc>
a3000628:	e59f0044 	ldr	r0, [pc, #68]	; a3000674 <.text+0x674>
a300062c:	eb00062c 	bl	a3001ee4 <puts>
a3000630:	e59f1040 	ldr	r1, [pc, #64]	; a3000678 <.text+0x678>
a3000634:	e5940000 	ldr	r0, [r4]
a3000638:	e5912000 	ldr	r2, [r1]
a300063c:	e1a03000 	mov	r3, r0
a3000640:	e4832004 	str	r2, [r3], #4
a3000644:	e5912004 	ldr	r2, [r1, #4]
a3000648:	e5843000 	str	r3, [r4]
a300064c:	e5802004 	str	r2, [r0, #4]
a3000650:	e8bd8010 	ldmia	sp!, {r4, pc}
a3000654:	a3002e4c 	movwge	r2, #3660	; 0xe4c
a3000658:	a3002e40 	movwge	r2, #3648	; 0xe40
a300065c:	a30022e8 	movwge	r2, #744	; 0x2e8
a3000660:	a3002e58 	movwge	r2, #3672	; 0xe58
a3000664:	a3002e48 	movwge	r2, #3656	; 0xe48
a3000668:	a3002300 	movwge	r2, #768	; 0x300
a300066c:	a3002e50 	movwge	r2, #3664	; 0xe50
a3000670:	a3002e44 	movwge	r2, #3652	; 0xe44
a3000674:	a3002318 	movwge	r2, #792	; 0x318
a3000678:	a3002e60 	movwge	r2, #3680	; 0xe60

a300067c <setup_irq_stack>:
a300067c:	e10f3000 	mrs	r3, CPSR
a3000680:	e3a020d2 	mov	r2, #210	; 0xd2
a3000684:	e129f002 	msr	CPSR_fc, r2
a3000688:	e59f2008 	ldr	r2, [pc, #8]	; a3000698 <.text+0x698>
a300068c:	e1a0d002 	mov	sp, r2
a3000690:	e129f003 	msr	CPSR_fc, r3
a3000694:	e12fff1e 	bx	lr
a3000698:	a30037ac 	movwge	r3, #1964	; 0x7ac

a300069c <setup_abort_stack>:
a300069c:	e10f3000 	mrs	r3, CPSR
a30006a0:	e3a020d7 	mov	r2, #215	; 0xd7
a30006a4:	e129f002 	msr	CPSR_fc, r2
a30006a8:	e59f2008 	ldr	r2, [pc, #8]	; a30006b8 <.text+0x6b8>
a30006ac:	e1a0d002 	mov	sp, r2
a30006b0:	e129f003 	msr	CPSR_fc, r3
a30006b4:	e12fff1e 	bx	lr
a30006b8:	a30033ac 	movwge	r3, #940	; 0x3ac

a30006bc <dev_update>:
a30006bc:	e92d46f0 	stmdb	sp!, {r4, r5, r6, r7, r9, sl, lr}
a30006c0:	e1a09000 	mov	r9, r0
a30006c4:	e10f3000 	mrs	r3, CPSR
a30006c8:	e38330c0 	orr	r3, r3, #192	; 0xc0
a30006cc:	e121f003 	msr	CPSR_c, r3
a30006d0:	e59f50c0 	ldr	r5, [pc, #192]	; a3000798 <.text+0x798>
a30006d4:	e59fa0c0 	ldr	sl, [pc, #192]	; a300079c <.text+0x79c>
a30006d8:	e3a07000 	mov	r7, #0	; 0x0
a30006dc:	e1a06007 	mov	r6, r7
a30006e0:	e5953004 	ldr	r3, [r5, #4]
a30006e4:	e1590003 	cmp	r9, r3
a30006e8:	3a00001e 	bcc	a3000768 <dev_update+0xac>
a30006ec:	e59f30ac 	ldr	r3, [pc, #172]	; a30007a0 <.text+0x7a0>
a30006f0:	e5933000 	ldr	r3, [r3]
a30006f4:	e3530001 	cmp	r3, #1	; 0x1
a30006f8:	1a000002 	bne	a3000708 <dev_update+0x4c>
a30006fc:	e59f00a0 	ldr	r0, [pc, #160]	; a30007a4 <.text+0x7a4>
a3000700:	e1a01006 	mov	r1, r6
a3000704:	eb0005f8 	bl	a3001eec <printf>
a3000708:	e5954000 	ldr	r4, [r5]
a300070c:	ea00000f 	b	a3000750 <dev_update+0x94>
a3000710:	e5d41001 	ldrb	r1, [r4, #1]
a3000714:	eb000448 	bl	a300183c <runqueue_add>
a3000718:	e59f3080 	ldr	r3, [pc, #128]	; a30007a0 <.text+0x7a0>
a300071c:	e3a07001 	mov	r7, #1	; 0x1
a3000720:	e59f0080 	ldr	r0, [pc, #128]	; a30007a8 <.text+0x7a8>
a3000724:	e5933000 	ldr	r3, [r3]
a3000728:	e1a01006 	mov	r1, r6
a300072c:	e1530007 	cmp	r3, r7
a3000730:	1a000002 	bne	a3000740 <dev_update+0x84>
a3000734:	e5d42001 	ldrb	r2, [r4, #1]
a3000738:	e5943030 	ldr	r3, [r4, #48]
a300073c:	eb0005ea 	bl	a3001eec <printf>
a3000740:	e5942030 	ldr	r2, [r4, #48]
a3000744:	e3a03000 	mov	r3, #0	; 0x0
a3000748:	e5843030 	str	r3, [r4, #48]
a300074c:	e1a04002 	mov	r4, r2
a3000750:	e2540000 	subs	r0, r4, #0	; 0x0
a3000754:	1affffed 	bne	a3000710 <dev_update+0x54>
a3000758:	e5953004 	ldr	r3, [r5, #4]
a300075c:	e59a2000 	ldr	r2, [sl]
a3000760:	e0833002 	add	r3, r3, r2
a3000764:	e5853004 	str	r3, [r5, #4]
a3000768:	e2866001 	add	r6, r6, #1	; 0x1
a300076c:	e3560003 	cmp	r6, #3	; 0x3
a3000770:	e2855008 	add	r5, r5, #8	; 0x8
a3000774:	e28aa004 	add	sl, sl, #4	; 0x4
a3000778:	1affffd8 	bne	a30006e0 <dev_update+0x24>
a300077c:	e3570001 	cmp	r7, #1	; 0x1
a3000780:	1a000000 	bne	a3000788 <dev_update+0xcc>
a3000784:	eb000397 	bl	a30015e8 <dispatch_save>
a3000788:	e10f3000 	mrs	r3, CPSR
a300078c:	e3c330c0 	bic	r3, r3, #192	; 0xc0
a3000790:	e121f003 	msr	CPSR_c, r3
a3000794:	e8bd86f0 	ldmia	sp!, {r4, r5, r6, r7, r9, sl, pc}
a3000798:	a3002e68 	movwge	r2, #3688	; 0xe68
a300079c:	a30023cc 	movwge	r2, #972	; 0x3cc
a30007a0:	a3002e40 	movwge	r2, #3648	; 0xe40
a30007a4:	a3002330 	movwge	r2, #816	; 0x330
a30007a8:	a3002350 	movwge	r2, #848	; 0x350

a30007ac <dev_init>:
a30007ac:	e10f3000 	mrs	r3, CPSR
a30007b0:	e38330c0 	orr	r3, r3, #192	; 0xc0
a30007b4:	e121f003 	msr	CPSR_c, r3
a30007b8:	e59f2028 	ldr	r2, [pc, #40]	; a30007e8 <.text+0x7e8>
a30007bc:	e3a03000 	mov	r3, #0	; 0x0
a30007c0:	e5823014 	str	r3, [r2, #20]
a30007c4:	e5823000 	str	r3, [r2]
a30007c8:	e5823004 	str	r3, [r2, #4]
a30007cc:	e5823008 	str	r3, [r2, #8]
a30007d0:	e582300c 	str	r3, [r2, #12]
a30007d4:	e5823010 	str	r3, [r2, #16]
a30007d8:	e10f3000 	mrs	r3, CPSR
a30007dc:	e3c330c0 	bic	r3, r3, #192	; 0xc0
a30007e0:	e121f003 	msr	CPSR_c, r3
a30007e4:	e12fff1e 	bx	lr
a30007e8:	a3002e68 	movwge	r2, #3688	; 0xe68

a30007ec <dev_wait>:
a30007ec:	e92d4030 	stmdb	sp!, {r4, r5, lr}
a30007f0:	e1a04000 	mov	r4, r0
a30007f4:	e10f3000 	mrs	r3, CPSR
a30007f8:	e38330c0 	orr	r3, r3, #192	; 0xc0
a30007fc:	e121f003 	msr	CPSR_c, r3
a3000800:	e59f5058 	ldr	r5, [pc, #88]	; a3000860 <.text+0x860>
a3000804:	e59f0058 	ldr	r0, [pc, #88]	; a3000864 <.text+0x864>
a3000808:	e5953000 	ldr	r3, [r5]
a300080c:	e3530001 	cmp	r3, #1	; 0x1
a3000810:	1a000000 	bne	a3000818 <dev_wait+0x2c>
a3000814:	eb0005b2 	bl	a3001ee4 <puts>
a3000818:	eb0002e3 	bl	a30013ac <get_cur_tcb>
a300081c:	e59f3044 	ldr	r3, [pc, #68]	; a3000868 <.text+0x868>
a3000820:	e5952000 	ldr	r2, [r5]
a3000824:	e1a0e000 	mov	lr, r0
a3000828:	e793c184 	ldr	ip, [r3, r4, lsl #3]
a300082c:	e3520001 	cmp	r2, #1	; 0x1
a3000830:	e1a01004 	mov	r1, r4
a3000834:	e58ec030 	str	ip, [lr, #48]
a3000838:	e59f002c 	ldr	r0, [pc, #44]	; a300086c <.text+0x86c>
a300083c:	e783e184 	str	lr, [r3, r4, lsl #3]
a3000840:	1a000002 	bne	a3000850 <dev_wait+0x64>
a3000844:	e5de2001 	ldrb	r2, [lr, #1]
a3000848:	e59e3030 	ldr	r3, [lr, #48]
a300084c:	eb0005a6 	bl	a3001eec <printf>
a3000850:	e10f3000 	mrs	r3, CPSR
a3000854:	e3c330c0 	bic	r3, r3, #192	; 0xc0
a3000858:	e121f003 	msr	CPSR_c, r3
a300085c:	e8bd8030 	ldmia	sp!, {r4, r5, pc}
a3000860:	a3002e40 	movwge	r2, #3648	; 0xe40
a3000864:	a3002388 	movwge	r2, #904	; 0x388
a3000868:	a3002e68 	movwge	r2, #3688	; 0xe68
a300086c:	a3002398 	movwge	r2, #920	; 0x398

a3000870 <isascii>:
a3000870:	e350007f 	cmp	r0, #127	; 0x7f
a3000874:	83a00000 	movhi	r0, #0	; 0x0
a3000878:	93a00001 	movls	r0, #1	; 0x1
a300087c:	e12fff1e 	bx	lr

a3000880 <iscntrl>:
a3000880:	e2400020 	sub	r0, r0, #32	; 0x20
a3000884:	e350005e 	cmp	r0, #94	; 0x5e
a3000888:	93a00000 	movls	r0, #0	; 0x0
a300088c:	83a00001 	movhi	r0, #1	; 0x1
a3000890:	e12fff1e 	bx	lr

a3000894 <isdigit>:
a3000894:	e2400030 	sub	r0, r0, #48	; 0x30
a3000898:	e3500009 	cmp	r0, #9	; 0x9
a300089c:	83a00000 	movhi	r0, #0	; 0x0
a30008a0:	93a00001 	movls	r0, #1	; 0x1
a30008a4:	e12fff1e 	bx	lr

a30008a8 <isgraph>:
a30008a8:	e2400021 	sub	r0, r0, #33	; 0x21
a30008ac:	e350005d 	cmp	r0, #93	; 0x5d
a30008b0:	83a00000 	movhi	r0, #0	; 0x0
a30008b4:	93a00001 	movls	r0, #1	; 0x1
a30008b8:	e12fff1e 	bx	lr

a30008bc <islower>:
a30008bc:	e2400061 	sub	r0, r0, #97	; 0x61
a30008c0:	e3500019 	cmp	r0, #25	; 0x19
a30008c4:	83a00000 	movhi	r0, #0	; 0x0
a30008c8:	93a00001 	movls	r0, #1	; 0x1
a30008cc:	e12fff1e 	bx	lr

a30008d0 <isprint>:
a30008d0:	e2400020 	sub	r0, r0, #32	; 0x20
a30008d4:	e350005e 	cmp	r0, #94	; 0x5e
a30008d8:	83a00000 	movhi	r0, #0	; 0x0
a30008dc:	93a00001 	movls	r0, #1	; 0x1
a30008e0:	e12fff1e 	bx	lr

a30008e4 <isspace>:
a30008e4:	e350000c 	cmp	r0, #12	; 0xc
a30008e8:	13500020 	cmpne	r0, #32	; 0x20
a30008ec:	0a000007 	beq	a3000910 <isspace+0x2c>
a30008f0:	e350000d 	cmp	r0, #13	; 0xd
a30008f4:	1350000a 	cmpne	r0, #10	; 0xa
a30008f8:	0a000004 	beq	a3000910 <isspace+0x2c>
a30008fc:	e350000b 	cmp	r0, #11	; 0xb
a3000900:	13500009 	cmpne	r0, #9	; 0x9
a3000904:	13a00000 	movne	r0, #0	; 0x0
a3000908:	03a00001 	moveq	r0, #1	; 0x1
a300090c:	e12fff1e 	bx	lr
a3000910:	e3a00001 	mov	r0, #1	; 0x1
a3000914:	e12fff1e 	bx	lr

a3000918 <isupper>:
a3000918:	e2400041 	sub	r0, r0, #65	; 0x41
a300091c:	e3500019 	cmp	r0, #25	; 0x19
a3000920:	83a00000 	movhi	r0, #0	; 0x0
a3000924:	93a00001 	movls	r0, #1	; 0x1
a3000928:	e12fff1e 	bx	lr

a300092c <isalpha>:
a300092c:	e2403061 	sub	r3, r0, #97	; 0x61
a3000930:	e3530019 	cmp	r3, #25	; 0x19
a3000934:	e2400041 	sub	r0, r0, #65	; 0x41
a3000938:	e3a03001 	mov	r3, #1	; 0x1
a300093c:	9a000002 	bls	a300094c <isalpha+0x20>
a3000940:	e3500019 	cmp	r0, #25	; 0x19
a3000944:	83a03000 	movhi	r3, #0	; 0x0
a3000948:	93a03001 	movls	r3, #1	; 0x1
a300094c:	e1a00003 	mov	r0, r3
a3000950:	e12fff1e 	bx	lr

a3000954 <isalnum>:
a3000954:	e92d4010 	stmdb	sp!, {r4, lr}
a3000958:	e1a04000 	mov	r4, r0
a300095c:	ebfffff2 	bl	a300092c <isalpha>
a3000960:	e3500000 	cmp	r0, #0	; 0x0
a3000964:	e2444030 	sub	r4, r4, #48	; 0x30
a3000968:	e3a00001 	mov	r0, #1	; 0x1
a300096c:	1a000002 	bne	a300097c <isalnum+0x28>
a3000970:	e3540009 	cmp	r4, #9	; 0x9
a3000974:	83a00000 	movhi	r0, #0	; 0x0
a3000978:	93a00001 	movls	r0, #1	; 0x1
a300097c:	e8bd8010 	ldmia	sp!, {r4, pc}

a3000980 <tolower>:
a3000980:	e2403041 	sub	r3, r0, #65	; 0x41
a3000984:	e3530019 	cmp	r3, #25	; 0x19
a3000988:	92800020 	addls	r0, r0, #32	; 0x20
a300098c:	e12fff1e 	bx	lr

a3000990 <isxdigit>:
a3000990:	e2403030 	sub	r3, r0, #48	; 0x30
a3000994:	e3530009 	cmp	r3, #9	; 0x9
a3000998:	e2402041 	sub	r2, r0, #65	; 0x41
a300099c:	9a000006 	bls	a30009bc <isxdigit+0x2c>
a30009a0:	e3520005 	cmp	r2, #5	; 0x5
a30009a4:	e2400061 	sub	r0, r0, #97	; 0x61
a30009a8:	9a000003 	bls	a30009bc <isxdigit+0x2c>
a30009ac:	e3500005 	cmp	r0, #5	; 0x5
a30009b0:	83a00000 	movhi	r0, #0	; 0x0
a30009b4:	93a00001 	movls	r0, #1	; 0x1
a30009b8:	e12fff1e 	bx	lr
a30009bc:	e3a00001 	mov	r0, #1	; 0x1
a30009c0:	e12fff1e 	bx	lr

a30009c4 <ispunct>:
a30009c4:	e2403021 	sub	r3, r0, #33	; 0x21
a30009c8:	e353005d 	cmp	r3, #93	; 0x5d
a30009cc:	e52de004 	str	lr, [sp, #-4]!
a30009d0:	e3a03000 	mov	r3, #0	; 0x0
a30009d4:	8a000002 	bhi	a30009e4 <ispunct+0x20>
a30009d8:	ebffffdd 	bl	a3000954 <isalnum>
a30009dc:	e2703001 	rsbs	r3, r0, #1	; 0x1
a30009e0:	33a03000 	movcc	r3, #0	; 0x0
a30009e4:	e1a00003 	mov	r0, r3
a30009e8:	e49df004 	ldr	pc, [sp], #4

a30009ec <toupper>:
a30009ec:	e2403061 	sub	r3, r0, #97	; 0x61
a30009f0:	e3530019 	cmp	r3, #25	; 0x19
a30009f4:	92400020 	subls	r0, r0, #32	; 0x20
a30009f8:	e12fff1e 	bx	lr

a30009fc <abort_handler>:
a30009fc:	e92d5fff 	stmdb	sp!, {r0, r1, r2, r3, r4, r5, r6, r7, r8, r9, sl, fp, ip, lr}
a3000a00:	e10fc000 	mrs	ip, CPSR
a3000a04:	e14f6000 	mrs	r6, SPSR
a3000a08:	e1a07006 	mov	r7, r6
a3000a0c:	e316000f 	tst	r6, #15	; 0xf
a3000a10:	0386600f 	orreq	r6, r6, #15	; 0xf
a3000a14:	e129f006 	msr	CPSR_fc, r6
a3000a18:	e1a00008 	mov	r0, r8
a3000a1c:	e1a01009 	mov	r1, r9
a3000a20:	e1a0200a 	mov	r2, sl
a3000a24:	e1a0300b 	mov	r3, fp
a3000a28:	e1a0400c 	mov	r4, ip
a3000a2c:	e1a0500e 	mov	r5, lr
a3000a30:	e1a0600d 	mov	r6, sp
a3000a34:	e129f00c 	msr	CPSR_fc, ip
a3000a38:	e92d00ff 	stmdb	sp!, {r0, r1, r2, r3, r4, r5, r6, r7}
a3000a3c:	e1a0000d 	mov	r0, sp
a3000a40:	e59fc004 	ldr	ip, [pc, #4]	; a3000a4c <.text+0xa4c>
a3000a44:	e59c8000 	ldr	r8, [ip]
a3000a48:	eafffd6e 	b	a3000008 <register_dump>
a3000a4c:	a3002fac 	movwge	r2, #4012	; 0xfac

a3000a50 <S_HANDLER>:
a3000a50:	e92d5fff 	stmdb	sp!, {r0, r1, r2, r3, r4, r5, r6, r7, r8, r9, sl, fp, ip, lr}
a3000a54:	e1a0100d 	mov	r1, sp
a3000a58:	e14f0000 	mrs	r0, SPSR
a3000a5c:	e94d6001 	stmdb	sp, {r0, sp, lr}^
a3000a60:	e24dd00c 	sub	sp, sp, #12	; 0xc
a3000a64:	e321f013 	msr	CPSR_c, #19	; 0x13
a3000a68:	e59fc024 	ldr	ip, [pc, #36]	; a3000a94 <.text+0xa94>
a3000a6c:	e59c8000 	ldr	r8, [ip]
a3000a70:	e51e0004 	ldr	r0, [lr, #-4]
a3000a74:	e3e0c0ff 	mvn	ip, #255	; 0xff
a3000a78:	e1c0000c 	bic	r0, r0, ip
a3000a7c:	eb00007b 	bl	a3000c70 <c_swi_handler>
a3000a80:	e321f093 	msr	CPSR_c, #147	; 0x93
a3000a84:	e8dd6001 	ldmia	sp, {r0, sp, lr}^
a3000a88:	e28dd00c 	add	sp, sp, #12	; 0xc
a3000a8c:	e169f000 	msr	SPSR_fc, r0
a3000a90:	e8fd9fff 	ldmia	sp!, {r0, r1, r2, r3, r4, r5, r6, r7, r8, r9, sl, fp, ip, pc}^
a3000a94:	a3002fac 	movwge	r2, #4012	; 0xfac

a3000a98 <_exit>:
a3000a98:	e3a014a3 	mov	r1, #-1560281088	; 0xa3000000
a3000a9c:	e2411008 	sub	r1, r1, #8	; 0x8
a3000aa0:	e591f000 	ldr	pc, [r1]

a3000aa4 <_enable_user_prog>:
a3000aa4:	e92d5ffe 	stmdb	sp!, {r1, r2, r3, r4, r5, r6, r7, r8, r9, sl, fp, ip, lr}
a3000aa8:	e3a034a3 	mov	r3, #-1560281088	; 0xa3000000
a3000aac:	e2433004 	sub	r3, r3, #4	; 0x4
a3000ab0:	e583d000 	str	sp, [r3]
a3000ab4:	e2433004 	sub	r3, r3, #4	; 0x4
a3000ab8:	e28f200c 	add	r2, pc, #12	; 0xc
a3000abc:	e5832000 	str	r2, [r3]
a3000ac0:	e329f050 	msr	CPSR_fc, #80	; 0x50
a3000ac4:	e1a0d000 	mov	sp, r0
a3000ac8:	e1a0f001 	mov	pc, r1
a3000acc:	e10f2000 	mrs	r2, CPSR
a3000ad0:	e3c220c0 	bic	r2, r2, #192	; 0xc0
a3000ad4:	e129f002 	msr	CPSR_fc, r2
a3000ad8:	e3a014a3 	mov	r1, #-1560281088	; 0xa3000000
a3000adc:	e2411004 	sub	r1, r1, #4	; 0x4
a3000ae0:	e591d000 	ldr	sp, [r1]
a3000ae4:	e8bd5ffe 	ldmia	sp!, {r1, r2, r3, r4, r5, r6, r7, r8, r9, sl, fp, ip, lr}
a3000ae8:	e1a0f00e 	mov	pc, lr

a3000aec <_check_inst>:
a3000aec:	e92d5ffe 	stmdb	sp!, {r1, r2, r3, r4, r5, r6, r7, r8, r9, sl, fp, ip, lr}
a3000af0:	e3c000ff 	bic	r0, r0, #255	; 0xff
a3000af4:	e3c00c0f 	bic	r0, r0, #3840	; 0xf00
a3000af8:	e8bd5ffe 	ldmia	sp!, {r1, r2, r3, r4, r5, r6, r7, r8, r9, sl, fp, ip, lr}
a3000afc:	e1a0f00e 	mov	pc, lr

a3000b00 <_get_imm>:
a3000b00:	e92d5ffe 	stmdb	sp!, {r1, r2, r3, r4, r5, r6, r7, r8, r9, sl, fp, ip, lr}
a3000b04:	e59f1008 	ldr	r1, [pc, #8]	; a3000b14 <.text+0xb14>
a3000b08:	e1c00001 	bic	r0, r0, r1
a3000b0c:	e8bd5ffe 	ldmia	sp!, {r1, r2, r3, r4, r5, r6, r7, r8, r9, sl, fp, ip, lr}
a3000b10:	e1a0f00e 	mov	pc, lr
a3000b14:	fffff000 	undefined instruction 0xfffff000

a3000b18 <setup_stack>:
a3000b18:	e52de004 	str	lr, [sp, #-4]!
a3000b1c:	e0822101 	add	r2, r2, r1, lsl #2
a3000b20:	e2400008 	sub	r0, r0, #8	; 0x8
a3000b24:	e2422004 	sub	r2, r2, #4	; 0x4
a3000b28:	e1a0c001 	mov	ip, r1
a3000b2c:	ea000002 	b	a3000b3c <setup_stack+0x24>
a3000b30:	e5923004 	ldr	r3, [r2, #4]
a3000b34:	e5003004 	str	r3, [r0, #-4]
a3000b38:	e1a0000e 	mov	r0, lr
a3000b3c:	e25cc001 	subs	ip, ip, #1	; 0x1
a3000b40:	e2422004 	sub	r2, r2, #4	; 0x4
a3000b44:	e240e004 	sub	lr, r0, #4	; 0x4
a3000b48:	5afffff8 	bpl	a3000b30 <setup_stack+0x18>
a3000b4c:	e5001004 	str	r1, [r0, #-4]
a3000b50:	e1a0000e 	mov	r0, lr
a3000b54:	e49df004 	ldr	pc, [sp], #4

a3000b58 <uninstall_handler>:
a3000b58:	e5903000 	ldr	r3, [r0]
a3000b5c:	e5902008 	ldr	r2, [r0, #8]
a3000b60:	e5823000 	str	r3, [r2]
a3000b64:	e5903004 	ldr	r3, [r0, #4]
a3000b68:	e5823004 	str	r3, [r2, #4]
a3000b6c:	e12fff1e 	bx	lr

a3000b70 <initialize_timer>:
a3000b70:	e59f304c 	ldr	r3, [pc, #76]	; a3000bc4 <.text+0xbc4>
a3000b74:	e52de004 	str	lr, [sp, #-4]!
a3000b78:	e5933000 	ldr	r3, [r3]
a3000b7c:	e59f0044 	ldr	r0, [pc, #68]	; a3000bc8 <.text+0xbc8>
a3000b80:	e3530001 	cmp	r3, #1	; 0x1
a3000b84:	1a000000 	bne	a3000b8c <initialize_timer+0x1c>
a3000b88:	eb0004d5 	bl	a3001ee4 <puts>
a3000b8c:	e59f1038 	ldr	r1, [pc, #56]	; a3000bcc <.text+0xbcc>
a3000b90:	e59f2038 	ldr	r2, [pc, #56]	; a3000bd0 <.text+0xbd0>
a3000b94:	e3a03303 	mov	r3, #201326592	; 0xc000000
a3000b98:	e5813004 	str	r3, [r1, #4]
a3000b9c:	e3a00000 	mov	r0, #0	; 0x0
a3000ba0:	e3a03b12 	mov	r3, #18432	; 0x4800
a3000ba4:	e5810008 	str	r0, [r1, #8]
a3000ba8:	e5823004 	str	r3, [r2, #4]
a3000bac:	e3a03002 	mov	r3, #2	; 0x2
a3000bb0:	e5820010 	str	r0, [r2, #16]
a3000bb4:	e582301c 	str	r3, [r2, #28]
a3000bb8:	e3e03000 	mvn	r3, #0	; 0x0
a3000bbc:	e5823014 	str	r3, [r2, #20]
a3000bc0:	e49df004 	ldr	pc, [sp], #4
a3000bc4:	a3002e40 	movwge	r2, #3648	; 0xe40
a3000bc8:	a30023e0 	movwge	r2, #992	; 0x3e0
a3000bcc:	40d00000 	sbcmis	r0, r0, r0
a3000bd0:	40a00000 	adcmi	r0, r0, r0

a3000bd4 <uninitialize_timer>:
a3000bd4:	e59f302c 	ldr	r3, [pc, #44]	; a3000c08 <.text+0xc08>
a3000bd8:	e52de004 	str	lr, [sp, #-4]!
a3000bdc:	e5933000 	ldr	r3, [r3]
a3000be0:	e59f0024 	ldr	r0, [pc, #36]	; a3000c0c <.text+0xc0c>
a3000be4:	e3530001 	cmp	r3, #1	; 0x1
a3000be8:	1a000000 	bne	a3000bf0 <uninitialize_timer+0x1c>
a3000bec:	eb0004bc 	bl	a3001ee4 <puts>
a3000bf0:	e59f2018 	ldr	r2, [pc, #24]	; a3000c10 <.text+0xc10>
a3000bf4:	e3a03000 	mov	r3, #0	; 0x0
a3000bf8:	e5823004 	str	r3, [r2, #4]
a3000bfc:	e2422603 	sub	r2, r2, #3145728	; 0x300000
a3000c00:	e582301c 	str	r3, [r2, #28]
a3000c04:	e49df004 	ldr	pc, [sp], #4
a3000c08:	a3002e40 	movwge	r2, #3648	; 0xe40
a3000c0c:	a3002408 	movwge	r2, #1032	; 0x408
a3000c10:	40d00000 	sbcmis	r0, r0, r0

a3000c14 <c_irq_handler>:
a3000c14:	e59f2038 	ldr	r2, [pc, #56]	; a3000c54 <.text+0xc54>
a3000c18:	e59f0038 	ldr	r0, [pc, #56]	; a3000c58 <.text+0xc58>
a3000c1c:	e5923014 	ldr	r3, [r2, #20]
a3000c20:	e3130002 	tst	r3, #2	; 0x2
a3000c24:	012fff1e 	bxeq	lr
a3000c28:	e3a03000 	mov	r3, #0	; 0x0
a3000c2c:	e5823010 	str	r3, [r2, #16]
a3000c30:	e2833b12 	add	r3, r3, #18432	; 0x4800
a3000c34:	e5823004 	str	r3, [r2, #4]
a3000c38:	e3e03000 	mvn	r3, #0	; 0x0
a3000c3c:	e5823014 	str	r3, [r2, #20]
a3000c40:	e5903000 	ldr	r3, [r0]
a3000c44:	e2833005 	add	r3, r3, #5	; 0x5
a3000c48:	e5803000 	str	r3, [r0]
a3000c4c:	e5900000 	ldr	r0, [r0]
a3000c50:	eafffe99 	b	a30006bc <dev_update>
a3000c54:	40a00000 	adcmi	r0, r0, r0
a3000c58:	a3002e88 	movwge	r2, #3720	; 0xe88

a3000c5c <R_HANDLER>:
a3000c5c:	e92d5fff 	stmdb	sp!, {r0, r1, r2, r3, r4, r5, r6, r7, r8, r9, sl, fp, ip, lr}
a3000c60:	ebffffeb 	bl	a3000c14 <c_irq_handler>
a3000c64:	e8bd5fff 	ldmia	sp!, {r0, r1, r2, r3, r4, r5, r6, r7, r8, r9, sl, fp, ip, lr}
a3000c68:	e25ef004 	subs	pc, lr, #4	; 0x4

a3000c6c <c_exit>:
a3000c6c:	eaffff89 	b	a3000a98 <_exit>

a3000c70 <c_swi_handler>:
a3000c70:	e92d4030 	stmdb	sp!, {r4, r5, lr}
a3000c74:	e24dd028 	sub	sp, sp, #40	; 0x28
a3000c78:	e1a04001 	mov	r4, r1
a3000c7c:	e1a05000 	mov	r5, r0
a3000c80:	eb0001c9 	bl	a30013ac <get_cur_tcb>
a3000c84:	e1a0e00d 	mov	lr, sp
a3000c88:	e280c004 	add	ip, r0, #4	; 0x4
a3000c8c:	e8bc000f 	ldmia	ip!, {r0, r1, r2, r3}
a3000c90:	e8ae000f 	stmia	lr!, {r0, r1, r2, r3}
a3000c94:	e8bc000f 	ldmia	ip!, {r0, r1, r2, r3}
a3000c98:	e8ae000f 	stmia	lr!, {r0, r1, r2, r3}
a3000c9c:	e89c0003 	ldmia	ip, {r0, r1}
a3000ca0:	e88e0003 	stmia	lr, {r0, r1}
a3000ca4:	e10f3000 	mrs	r3, CPSR
a3000ca8:	e3c330c0 	bic	r3, r3, #192	; 0xc0
a3000cac:	e121f003 	msr	CPSR_c, r3
a3000cb0:	e59f3130 	ldr	r3, [pc, #304]	; a3000de8 <.text+0xde8>
a3000cb4:	e5933000 	ldr	r3, [r3]
a3000cb8:	e3530001 	cmp	r3, #1	; 0x1
a3000cbc:	1a000002 	bne	a3000ccc <c_swi_handler+0x5c>
a3000cc0:	e59f0124 	ldr	r0, [pc, #292]	; a3000dec <.text+0xdec>
a3000cc4:	e1a01005 	mov	r1, r5
a3000cc8:	eb000487 	bl	a3001eec <printf>
a3000ccc:	e2453001 	sub	r3, r5, #1	; 0x1
a3000cd0:	e3530013 	cmp	r3, #19	; 0x13
a3000cd4:	979ff103 	ldrls	pc, [pc, r3, lsl #2]
a3000cd8:	ea000031 	b	a3000da4 <.text+0xda4>
a3000cdc:	a3000d2c 	movwge	r0, #3372	; 0xd2c
a3000ce0:	a3000da4 	movwge	r0, #3492	; 0xda4
a3000ce4:	a3000d38 	movwge	r0, #3384	; 0xd38
a3000ce8:	a3000d44 	movwge	r0, #3396	; 0xd44
a3000cec:	a3000da4 	movwge	r0, #3492	; 0xda4
a3000cf0:	a3000d50 	movwge	r0, #3408	; 0xd50
a3000cf4:	a3000d58 	movwge	r0, #3416	; 0xd58
a3000cf8:	a3000da4 	movwge	r0, #3492	; 0xda4
a3000cfc:	a3000da4 	movwge	r0, #3492	; 0xda4
a3000d00:	a3000d68 	movwge	r0, #3432	; 0xd68
a3000d04:	a3000da4 	movwge	r0, #3492	; 0xda4
a3000d08:	a3000da4 	movwge	r0, #3492	; 0xda4
a3000d0c:	a3000da4 	movwge	r0, #3492	; 0xda4
a3000d10:	a3000da4 	movwge	r0, #3492	; 0xda4
a3000d14:	a3000d74 	movwge	r0, #3444	; 0xd74
a3000d18:	a3000d7c 	movwge	r0, #3452	; 0xd7c
a3000d1c:	a3000d88 	movwge	r0, #3464	; 0xd88
a3000d20:	a3000da4 	movwge	r0, #3492	; 0xda4
a3000d24:	a3000da4 	movwge	r0, #3492	; 0xda4
a3000d28:	a3000d94 	movwge	r0, #3476	; 0xd94
a3000d2c:	e5940000 	ldr	r0, [r4]
a3000d30:	ebffffcd 	bl	a3000c6c <c_exit>
a3000d34:	ea000009 	b	a3000d60 <.text+0xd60>
a3000d38:	e8940007 	ldmia	r4, {r0, r1, r2}
a3000d3c:	eb000081 	bl	a3000f48 <read_syscall>
a3000d40:	ea000015 	b	a3000d9c <.text+0xd9c>
a3000d44:	e8940007 	ldmia	r4, {r0, r1, r2}
a3000d48:	eb000055 	bl	a3000ea4 <write_syscall>
a3000d4c:	ea000012 	b	a3000d9c <.text+0xd9c>
a3000d50:	eb0000f5 	bl	a300112c <time_syscall>
a3000d54:	ea000010 	b	a3000d9c <.text+0xd9c>
a3000d58:	e5940000 	ldr	r0, [r4]
a3000d5c:	eb0000fc 	bl	a3001154 <sleep_syscall>
a3000d60:	e3a04000 	mov	r4, #0	; 0x0
a3000d64:	ea000010 	b	a3000dac <.text+0xdac>
a3000d68:	e8940003 	ldmia	r4, {r0, r1}
a3000d6c:	eb0000b0 	bl	a3001034 <task_create>
a3000d70:	ea000009 	b	a3000d9c <.text+0xd9c>
a3000d74:	eb00037b 	bl	a3001b68 <mutex_create>
a3000d78:	ea000007 	b	a3000d9c <.text+0xd9c>
a3000d7c:	e5940000 	ldr	r0, [r4]
a3000d80:	eb0003b9 	bl	a3001c6c <mutex_lock>
a3000d84:	ea000004 	b	a3000d9c <.text+0xd9c>
a3000d88:	e5940000 	ldr	r0, [r4]
a3000d8c:	eb0002c8 	bl	a30018b4 <mutex_unlock>
a3000d90:	ea000001 	b	a3000d9c <.text+0xd9c>
a3000d94:	e5940000 	ldr	r0, [r4]
a3000d98:	eb0000c8 	bl	a30010c0 <event_wait>
a3000d9c:	e1a04000 	mov	r4, r0
a3000da0:	ea000001 	b	a3000dac <.text+0xdac>
a3000da4:	e59f0044 	ldr	r0, [pc, #68]	; a3000df0 <.text+0xdf0>
a3000da8:	eb000099 	bl	a3001014 <invalid_syscall>
a3000dac:	e10f3000 	mrs	r3, CPSR
a3000db0:	e38330c0 	orr	r3, r3, #192	; 0xc0
a3000db4:	e121f003 	msr	CPSR_c, r3
a3000db8:	eb00017b 	bl	a30013ac <get_cur_tcb>
a3000dbc:	e1a0c00d 	mov	ip, sp
a3000dc0:	e280e004 	add	lr, r0, #4	; 0x4
a3000dc4:	e8bc000f 	ldmia	ip!, {r0, r1, r2, r3}
a3000dc8:	e8ae000f 	stmia	lr!, {r0, r1, r2, r3}
a3000dcc:	e8bc000f 	ldmia	ip!, {r0, r1, r2, r3}
a3000dd0:	e8ae000f 	stmia	lr!, {r0, r1, r2, r3}
a3000dd4:	e89c0003 	ldmia	ip, {r0, r1}
a3000dd8:	e88e0003 	stmia	lr, {r0, r1}
a3000ddc:	e1a00004 	mov	r0, r4
a3000de0:	e28dd028 	add	sp, sp, #40	; 0x28
a3000de4:	e8bd8030 	ldmia	sp!, {r4, r5, pc}
a3000de8:	a3002e40 	movwge	r2, #3648	; 0xe40
a3000dec:	a3002438 	movwge	r2, #1080	; 0x438
a3000df0:	0badc0de 	bleq	a1b71170 <_start-0x148ee90>

a3000df4 <reg_read>:
a3000df4:	e2800101 	add	r0, r0, #1073741824	; 0x40000000
a3000df8:	e5900000 	ldr	r0, [r0]
a3000dfc:	e12fff1e 	bx	lr

a3000e00 <reg_write>:
a3000e00:	e2800101 	add	r0, r0, #1073741824	; 0x40000000
a3000e04:	e5801000 	str	r1, [r0]
a3000e08:	e12fff1e 	bx	lr

a3000e0c <reg_set>:
a3000e0c:	e2800101 	add	r0, r0, #1073741824	; 0x40000000
a3000e10:	e5903000 	ldr	r3, [r0]
a3000e14:	e1833001 	orr	r3, r3, r1
a3000e18:	e5803000 	str	r3, [r0]
a3000e1c:	e12fff1e 	bx	lr

a3000e20 <reg_clear>:
a3000e20:	e2800101 	add	r0, r0, #1073741824	; 0x40000000
a3000e24:	e5903000 	ldr	r3, [r0]
a3000e28:	e1c33001 	bic	r3, r3, r1
a3000e2c:	e5803000 	str	r3, [r0]
a3000e30:	e12fff1e 	bx	lr

a3000e34 <read_cpsr>:
a3000e34:	e10f0000 	mrs	r0, CPSR
a3000e38:	e12fff1e 	bx	lr

a3000e3c <write_cpsr>:
a3000e3c:	e129f000 	msr	CPSR_fc, r0
a3000e40:	e12fff1e 	bx	lr

a3000e44 <irq_wrapper>:
a3000e44:	e24ee004 	sub	lr, lr, #4	; 0x4
a3000e48:	e59fd048 	ldr	sp, [pc, #72]	; a3000e98 <.text+0xe98>
a3000e4c:	e92d0003 	stmdb	sp!, {r0, r1}
a3000e50:	e14f0000 	mrs	r0, SPSR
a3000e54:	e1a0100e 	mov	r1, lr
a3000e58:	e321f093 	msr	CPSR_c, #147	; 0x93
a3000e5c:	e169f000 	msr	SPSR_fc, r0
a3000e60:	e92d0002 	stmdb	sp!, {r1}
a3000e64:	e59f1030 	ldr	r1, [pc, #48]	; a3000e9c <.text+0xe9c>
a3000e68:	e8910003 	ldmia	r1, {r0, r1}
a3000e6c:	e92d510f 	stmdb	sp!, {r0, r1, r2, r3, r8, ip, lr}
a3000e70:	e14f0000 	mrs	r0, SPSR
a3000e74:	e94d6001 	stmdb	sp, {r0, sp, lr}^
a3000e78:	e24dd00c 	sub	sp, sp, #12	; 0xc
a3000e7c:	e59fc01c 	ldr	ip, [pc, #28]	; a3000ea0 <.text+0xea0>
a3000e80:	e59c8000 	ldr	r8, [ip]
a3000e84:	ebffff62 	bl	a3000c14 <c_irq_handler>
a3000e88:	e8dd6001 	ldmia	sp, {r0, sp, lr}^
a3000e8c:	e28dd00c 	add	sp, sp, #12	; 0xc
a3000e90:	e169f000 	msr	SPSR_fc, r0
a3000e94:	e8fdd10f 	ldmia	sp!, {r0, r1, r2, r3, r8, ip, lr, pc}^
a3000e98:	a3002e98 	movwge	r2, #3736	; 0xe98
a3000e9c:	a3002e90 	movwge	r2, #3728	; 0xe90
a3000ea0:	a3002fac 	movwge	r2, #4012	; 0xfac

a3000ea4 <write_syscall>:
a3000ea4:	e3500001 	cmp	r0, #1	; 0x1
a3000ea8:	e92d40f0 	stmdb	sp!, {r4, r5, r6, r7, lr}
a3000eac:	e1a07001 	mov	r7, r1
a3000eb0:	e1a06002 	mov	r6, r2
a3000eb4:	0a000007 	beq	a3000ed8 <write_syscall+0x34>
a3000eb8:	e59f307c 	ldr	r3, [pc, #124]	; a3000f3c <.text+0xf3c>
a3000ebc:	e5933000 	ldr	r3, [r3]
a3000ec0:	e3530001 	cmp	r3, #1	; 0x1
a3000ec4:	1a000001 	bne	a3000ed0 <write_syscall+0x2c>
a3000ec8:	e59f0070 	ldr	r0, [pc, #112]	; a3000f40 <.text+0xf40>
a3000ecc:	eb000406 	bl	a3001eec <printf>
a3000ed0:	e3e00008 	mvn	r0, #8	; 0x8
a3000ed4:	e8bd80f0 	ldmia	sp!, {r4, r5, r6, r7, pc}
a3000ed8:	e1a00001 	mov	r0, r1
a3000edc:	e3a0320a 	mov	r3, #-1610612736	; 0xa0000000
a3000ee0:	e1a01002 	mov	r1, r2
a3000ee4:	e3a02401 	mov	r2, #16777216	; 0x1000000
a3000ee8:	ebfffd02 	bl	a30002f8 <valid_addr>
a3000eec:	e3500001 	cmp	r0, #1	; 0x1
a3000ef0:	11a04006 	movne	r4, r6
a3000ef4:	13a05000 	movne	r5, #0	; 0x0
a3000ef8:	1a00000a 	bne	a3000f28 <write_syscall+0x84>
a3000efc:	e59f3038 	ldr	r3, [pc, #56]	; a3000f3c <.text+0xf3c>
a3000f00:	e5933000 	ldr	r3, [r3]
a3000f04:	e3530001 	cmp	r3, #1	; 0x1
a3000f08:	1a000001 	bne	a3000f14 <write_syscall+0x70>
a3000f0c:	e59f0030 	ldr	r0, [pc, #48]	; a3000f44 <.text+0xf44>
a3000f10:	eb0003f5 	bl	a3001eec <printf>
a3000f14:	e3e0000d 	mvn	r0, #13	; 0xd
a3000f18:	e8bd80f0 	ldmia	sp!, {r4, r5, r6, r7, pc}
a3000f1c:	e7d50007 	ldrb	r0, [r5, r7]
a3000f20:	e2855001 	add	r5, r5, #1	; 0x1
a3000f24:	eb0003ec 	bl	a3001edc <putc>
a3000f28:	e3540000 	cmp	r4, #0	; 0x0
a3000f2c:	e2444001 	sub	r4, r4, #1	; 0x1
a3000f30:	1afffff9 	bne	a3000f1c <write_syscall+0x78>
a3000f34:	e1a00006 	mov	r0, r6
a3000f38:	e8bd80f0 	ldmia	sp!, {r4, r5, r6, r7, pc}
a3000f3c:	a3002e40 	movwge	r2, #3648	; 0xe40
a3000f40:	a3002458 	movwge	r2, #1112	; 0x458
a3000f44:	a3002470 	movwge	r2, #1136	; 0x470

a3000f48 <read_syscall>:
a3000f48:	e92d4070 	stmdb	sp!, {r4, r5, r6, lr}
a3000f4c:	e2504000 	subs	r4, r0, #0	; 0x0
a3000f50:	e1a05001 	mov	r5, r1
a3000f54:	e1a06002 	mov	r6, r2
a3000f58:	0a000001 	beq	a3000f64 <read_syscall+0x1c>
a3000f5c:	e3e00008 	mvn	r0, #8	; 0x8
a3000f60:	e8bd8070 	ldmia	sp!, {r4, r5, r6, pc}
a3000f64:	e1a00001 	mov	r0, r1
a3000f68:	e3a0320a 	mov	r3, #-1610612736	; 0xa0000000
a3000f6c:	e1a01002 	mov	r1, r2
a3000f70:	e3a02401 	mov	r2, #16777216	; 0x1000000
a3000f74:	ebfffcdf 	bl	a30002f8 <valid_addr>
a3000f78:	e3500001 	cmp	r0, #1	; 0x1
a3000f7c:	1a00001f 	bne	a3001000 <read_syscall+0xb8>
a3000f80:	e3e0000d 	mvn	r0, #13	; 0xd
a3000f84:	e8bd8070 	ldmia	sp!, {r4, r5, r6, pc}
a3000f88:	eb0003cf 	bl	a3001ecc <getc>
a3000f8c:	e20000ff 	and	r0, r0, #255	; 0xff
a3000f90:	e350000a 	cmp	r0, #10	; 0xa
a3000f94:	0a000012 	beq	a3000fe4 <read_syscall+0x9c>
a3000f98:	8a000003 	bhi	a3000fac <read_syscall+0x64>
a3000f9c:	e3500004 	cmp	r0, #4	; 0x4
a3000fa0:	0a000006 	beq	a3000fc0 <read_syscall+0x78>
a3000fa4:	e3500008 	cmp	r0, #8	; 0x8
a3000fa8:	ea000002 	b	a3000fb8 <read_syscall+0x70>
a3000fac:	e350000d 	cmp	r0, #13	; 0xd
a3000fb0:	0a00000a 	beq	a3000fe0 <read_syscall+0x98>
a3000fb4:	e350007f 	cmp	r0, #127	; 0x7f
a3000fb8:	1a00000d 	bne	a3000ff4 <read_syscall+0xac>
a3000fbc:	ea000001 	b	a3000fc8 <read_syscall+0x80>
a3000fc0:	e1a00004 	mov	r0, r4
a3000fc4:	e8bd8070 	ldmia	sp!, {r4, r5, r6, pc}
a3000fc8:	e2444001 	sub	r4, r4, #1	; 0x1
a3000fcc:	e3a03000 	mov	r3, #0	; 0x0
a3000fd0:	e7c53004 	strb	r3, [r5, r4]
a3000fd4:	e59f0034 	ldr	r0, [pc, #52]	; a3001010 <.text+0x1010>
a3000fd8:	eb0003c1 	bl	a3001ee4 <puts>
a3000fdc:	ea000007 	b	a3001000 <read_syscall+0xb8>
a3000fe0:	e3a0000a 	mov	r0, #10	; 0xa
a3000fe4:	e7c50004 	strb	r0, [r5, r4]
a3000fe8:	eb0003bb 	bl	a3001edc <putc>
a3000fec:	e2840001 	add	r0, r4, #1	; 0x1
a3000ff0:	e8bd8070 	ldmia	sp!, {r4, r5, r6, pc}
a3000ff4:	e7c50004 	strb	r0, [r5, r4]
a3000ff8:	e2844001 	add	r4, r4, #1	; 0x1
a3000ffc:	eb0003b6 	bl	a3001edc <putc>
a3001000:	e1540006 	cmp	r4, r6
a3001004:	3affffdf 	bcc	a3000f88 <read_syscall+0x40>
a3001008:	e1a00004 	mov	r0, r4
a300100c:	e8bd8070 	ldmia	sp!, {r4, r5, r6, pc}
a3001010:	a3002488 	movwge	r2, #1160	; 0x488

a3001014 <invalid_syscall>:
a3001014:	e1a01000 	mov	r1, r0
a3001018:	e59f0010 	ldr	r0, [pc, #16]	; a3001030 <.text+0x1030>
a300101c:	eb0003b2 	bl	a3001eec <printf>
a3001020:	e10f3000 	mrs	r3, CPSR
a3001024:	e38330c0 	orr	r3, r3, #192	; 0xc0
a3001028:	e121f003 	msr	CPSR_c, r3
a300102c:	eafffffe 	b	a300102c <invalid_syscall+0x18>
a3001030:	a3002490 	movwge	r2, #1168	; 0x490

a3001034 <task_create>:
a3001034:	e92d4030 	stmdb	sp!, {r4, r5, lr}
a3001038:	e24dd004 	sub	sp, sp, #4	; 0x4
a300103c:	e58d0000 	str	r0, [sp]
a3001040:	e1a04001 	mov	r4, r1
a3001044:	e10f3000 	mrs	r3, CPSR
a3001048:	e38330c0 	orr	r3, r3, #192	; 0xc0
a300104c:	e121f003 	msr	CPSR_c, r3
a3001050:	e59f505c 	ldr	r5, [pc, #92]	; a30010b4 <.text+0x10b4>
a3001054:	e59f005c 	ldr	r0, [pc, #92]	; a30010b8 <.text+0x10b8>
a3001058:	e5953000 	ldr	r3, [r5]
a300105c:	e3530001 	cmp	r3, #1	; 0x1
a3001060:	1a000000 	bne	a3001068 <task_create+0x34>
a3001064:	eb00039e 	bl	a3001ee4 <puts>
a3001068:	e354003e 	cmp	r4, #62	; 0x3e
a300106c:	e1a01004 	mov	r1, r4
a3001070:	e1a0000d 	mov	r0, sp
a3001074:	e3a03016 	mov	r3, #22	; 0x16
a3001078:	8a00000a 	bhi	a30010a8 <task_create+0x74>
a300107c:	eb00004f 	bl	a30011c0 <allocate_tasks>
a3001080:	e5953000 	ldr	r3, [r5]
a3001084:	e59f0030 	ldr	r0, [pc, #48]	; a30010bc <.text+0x10bc>
a3001088:	e3530001 	cmp	r3, #1	; 0x1
a300108c:	1a000000 	bne	a3001094 <task_create+0x60>
a3001090:	eb000393 	bl	a3001ee4 <puts>
a3001094:	eb000132 	bl	a3001564 <dispatch_nosave>
a3001098:	e10f3000 	mrs	r3, CPSR
a300109c:	e3c330c0 	bic	r3, r3, #192	; 0xc0
a30010a0:	e121f003 	msr	CPSR_c, r3
a30010a4:	e3a03001 	mov	r3, #1	; 0x1
a30010a8:	e1a00003 	mov	r0, r3
a30010ac:	e28dd004 	add	sp, sp, #4	; 0x4
a30010b0:	e8bd8030 	ldmia	sp!, {r4, r5, pc}
a30010b4:	a3002e40 	movwge	r2, #3648	; 0xe40
a30010b8:	a30024c0 	movwge	r2, #1216	; 0x4c0
a30010bc:	a30024d0 	movwge	r2, #1232	; 0x4d0

a30010c0 <event_wait>:
a30010c0:	e92d4030 	stmdb	sp!, {r4, r5, lr}
a30010c4:	e1a04000 	mov	r4, r0
a30010c8:	e10f3000 	mrs	r3, CPSR
a30010cc:	e38330c0 	orr	r3, r3, #192	; 0xc0
a30010d0:	e121f003 	msr	CPSR_c, r3
a30010d4:	e59f5044 	ldr	r5, [pc, #68]	; a3001120 <.text+0x1120>
a30010d8:	e59f0044 	ldr	r0, [pc, #68]	; a3001124 <.text+0x1124>
a30010dc:	e5953000 	ldr	r3, [r5]
a30010e0:	e3530001 	cmp	r3, #1	; 0x1
a30010e4:	1a000000 	bne	a30010ec <event_wait+0x2c>
a30010e8:	eb00037d 	bl	a3001ee4 <puts>
a30010ec:	e1a00004 	mov	r0, r4
a30010f0:	ebfffdbd 	bl	a30007ec <dev_wait>
a30010f4:	e5953000 	ldr	r3, [r5]
a30010f8:	e59f0028 	ldr	r0, [pc, #40]	; a3001128 <.text+0x1128>
a30010fc:	e3530001 	cmp	r3, #1	; 0x1
a3001100:	1a000000 	bne	a3001108 <event_wait+0x48>
a3001104:	eb000376 	bl	a3001ee4 <puts>
a3001108:	eb0000ea 	bl	a30014b8 <dispatch_sleep>
a300110c:	e10f3000 	mrs	r3, CPSR
a3001110:	e3c330c0 	bic	r3, r3, #192	; 0xc0
a3001114:	e121f003 	msr	CPSR_c, r3
a3001118:	e3a00000 	mov	r0, #0	; 0x0
a300111c:	e8bd8030 	ldmia	sp!, {r4, r5, pc}
a3001120:	a3002e40 	movwge	r2, #3648	; 0xe40
a3001124:	a30024f0 	movwge	r2, #1264	; 0x4f0
a3001128:	a3002500 	movwge	r2, #1280	; 0x500

a300112c <time_syscall>:
a300112c:	e10f3000 	mrs	r3, CPSR
a3001130:	e38330c0 	orr	r3, r3, #192	; 0xc0
a3001134:	e121f003 	msr	CPSR_c, r3
a3001138:	e59f3010 	ldr	r3, [pc, #16]	; a3001150 <.text+0x1150>
a300113c:	e5930000 	ldr	r0, [r3]
a3001140:	e10f3000 	mrs	r3, CPSR
a3001144:	e3c330c0 	bic	r3, r3, #192	; 0xc0
a3001148:	e121f003 	msr	CPSR_c, r3
a300114c:	e12fff1e 	bx	lr
a3001150:	a3002e88 	movwge	r2, #3720	; 0xe88

a3001154 <sleep_syscall>:
a3001154:	e10f3000 	mrs	r3, CPSR
a3001158:	e38330c0 	orr	r3, r3, #192	; 0xc0
a300115c:	e121f003 	msr	CPSR_c, r3
a3001160:	e59f3040 	ldr	r3, [pc, #64]	; a30011a8 <.text+0x11a8>
a3001164:	e5932000 	ldr	r2, [r3]
a3001168:	e10f3000 	mrs	r3, CPSR
a300116c:	e3c330c0 	bic	r3, r3, #192	; 0xc0
a3001170:	e121f003 	msr	CPSR_c, r3
a3001174:	e0821000 	add	r1, r2, r0
a3001178:	ea000007 	b	a300119c <sleep_syscall+0x48>
a300117c:	e10f3000 	mrs	r3, CPSR
a3001180:	e38330c0 	orr	r3, r3, #192	; 0xc0
a3001184:	e121f003 	msr	CPSR_c, r3
a3001188:	e59f3018 	ldr	r3, [pc, #24]	; a30011a8 <.text+0x11a8>
a300118c:	e5932000 	ldr	r2, [r3]
a3001190:	e10f3000 	mrs	r3, CPSR
a3001194:	e3c330c0 	bic	r3, r3, #192	; 0xc0
a3001198:	e121f003 	msr	CPSR_c, r3
a300119c:	e1520001 	cmp	r2, r1
a30011a0:	3afffff5 	bcc	a300117c <sleep_syscall+0x28>
a30011a4:	e12fff1e 	bx	lr
a30011a8:	a3002e88 	movwge	r2, #3720	; 0xe88

a30011ac <sched_init>:
a30011ac:	e12fff1e 	bx	lr

a30011b0 <idle>:
a30011b0:	e10f3000 	mrs	r3, CPSR
a30011b4:	e3c330c0 	bic	r3, r3, #192	; 0xc0
a30011b8:	e121f003 	msr	CPSR_c, r3
a30011bc:	eafffffe 	b	a30011bc <idle+0xc>

a30011c0 <allocate_tasks>:
a30011c0:	e92d4ef0 	stmdb	sp!, {r4, r5, r6, r7, r9, sl, fp, lr}
a30011c4:	e59f4188 	ldr	r4, [pc, #392]	; a3001354 <.text+0x1354>
a30011c8:	e1a0b000 	mov	fp, r0
a30011cc:	e1a09001 	mov	r9, r1
a30011d0:	e5943000 	ldr	r3, [r4]
a30011d4:	e3530001 	cmp	r3, #1	; 0x1
a30011d8:	1a000001 	bne	a30011e4 <allocate_tasks+0x24>
a30011dc:	e59f0174 	ldr	r0, [pc, #372]	; a3001358 <.text+0x1358>
a30011e0:	eb00033f 	bl	a3001ee4 <puts>
a30011e4:	eb000153 	bl	a3001738 <runqueue_init>
a30011e8:	e5943000 	ldr	r3, [r4]
a30011ec:	e3530001 	cmp	r3, #1	; 0x1
a30011f0:	1a000001 	bne	a30011fc <allocate_tasks+0x3c>
a30011f4:	e59f0160 	ldr	r0, [pc, #352]	; a300135c <.text+0x135c>
a30011f8:	eb000339 	bl	a3001ee4 <puts>
a30011fc:	e3a06000 	mov	r6, #0	; 0x0
a3001200:	e1a07006 	mov	r7, r6
a3001204:	e1a05006 	mov	r5, r6
a3001208:	ea00001d 	b	a3001284 <allocate_tasks+0xc4>
a300120c:	e59a3000 	ldr	r3, [sl]
a3001210:	e3530001 	cmp	r3, #1	; 0x1
a3001214:	1a000000 	bne	a300121c <allocate_tasks+0x5c>
a3001218:	eb000333 	bl	a3001eec <printf>
a300121c:	e59fe13c 	ldr	lr, [pc, #316]	; a3001360 <.text+0x1360>
a3001220:	e59b1000 	ldr	r1, [fp]
a3001224:	e20430ff 	and	r3, r4, #255	; 0xff
a3001228:	e085000e 	add	r0, r5, lr
a300122c:	e7c5300e 	strb	r3, [r5, lr]
a3001230:	e5c03001 	strb	r3, [r0, #1]
a3001234:	e0873001 	add	r3, r7, r1
a3001238:	e593c008 	ldr	ip, [r3, #8]
a300123c:	e7971001 	ldr	r1, [r7, r1]
a3001240:	e5933004 	ldr	r3, [r3, #4]
a3001244:	e2802a01 	add	r2, r0, #4096	; 0x1000
a3001248:	e5801004 	str	r1, [r0, #4]
a300124c:	e5803008 	str	r3, [r0, #8]
a3001250:	e59f310c 	ldr	r3, [pc, #268]	; a3001364 <.text+0x1364>
a3001254:	e2822038 	add	r2, r2, #56	; 0x38
a3001258:	e3a04000 	mov	r4, #0	; 0x0
a300125c:	e580c00c 	str	ip, [r0, #12]
a3001260:	e5802010 	str	r2, [r0, #16]
a3001264:	e5803020 	str	r3, [r0, #32]
a3001268:	e580402c 	str	r4, [r0, #44]
a300126c:	e5804030 	str	r4, [r0, #48]
a3001270:	e7d5100e 	ldrb	r1, [r5, lr]
a3001274:	eb000170 	bl	a300183c <runqueue_add>
a3001278:	e2855a01 	add	r5, r5, #4096	; 0x1000
a300127c:	e2877014 	add	r7, r7, #20	; 0x14
a3001280:	e2855038 	add	r5, r5, #56	; 0x38
a3001284:	e2864001 	add	r4, r6, #1	; 0x1
a3001288:	e1560009 	cmp	r6, r9
a300128c:	e1a01006 	mov	r1, r6
a3001290:	e59f00d0 	ldr	r0, [pc, #208]	; a3001368 <.text+0x1368>
a3001294:	e1a06004 	mov	r6, r4
a3001298:	e59fa0b4 	ldr	sl, [pc, #180]	; a3001354 <.text+0x1354>
a300129c:	1affffda 	bne	a300120c <allocate_tasks+0x4c>
a30012a0:	e59a3000 	ldr	r3, [sl]
a30012a4:	e1a0400a 	mov	r4, sl
a30012a8:	e3530001 	cmp	r3, #1	; 0x1
a30012ac:	1a000001 	bne	a30012b8 <allocate_tasks+0xf8>
a30012b0:	e59f00b4 	ldr	r0, [pc, #180]	; a300136c <.text+0x136c>
a30012b4:	eb00030a 	bl	a3001ee4 <puts>
a30012b8:	e59f20b0 	ldr	r2, [pc, #176]	; a3001370 <.text+0x1370>
a30012bc:	e59fc0b0 	ldr	ip, [pc, #176]	; a3001374 <.text+0x1374>
a30012c0:	e59f30b0 	ldr	r3, [pc, #176]	; a3001378 <.text+0x1378>
a30012c4:	e3a0103f 	mov	r1, #63	; 0x3f
a30012c8:	e7c2100c 	strb	r1, [r2, ip]
a30012cc:	e7c21003 	strb	r1, [r2, r3]
a30012d0:	e59f10a4 	ldr	r1, [pc, #164]	; a300137c <.text+0x137c>
a30012d4:	e2833003 	add	r3, r3, #3	; 0x3
a30012d8:	e3a00000 	mov	r0, #0	; 0x0
a30012dc:	e7821003 	str	r1, [r2, r3]
a30012e0:	e59f1098 	ldr	r1, [pc, #152]	; a3001380 <.text+0x1380>
a30012e4:	e2833008 	add	r3, r3, #8	; 0x8
a30012e8:	e7820003 	str	r0, [r2, r3]
a30012ec:	e2833004 	add	r3, r3, #4	; 0x4
a30012f0:	e7821003 	str	r1, [r2, r3]
a30012f4:	e59f1068 	ldr	r1, [pc, #104]	; a3001364 <.text+0x1364>
a30012f8:	e2833010 	add	r3, r3, #16	; 0x10
a30012fc:	e7821003 	str	r1, [r2, r3]
a3001300:	e283300c 	add	r3, r3, #12	; 0xc
a3001304:	e7820003 	str	r0, [r2, r3]
a3001308:	e2833004 	add	r3, r3, #4	; 0x4
a300130c:	e7820003 	str	r0, [r2, r3]
a3001310:	e7d2100c 	ldrb	r1, [r2, ip]
a3001314:	e59f0068 	ldr	r0, [pc, #104]	; a3001384 <.text+0x1384>
a3001318:	eb000147 	bl	a300183c <runqueue_add>
a300131c:	e5943000 	ldr	r3, [r4]
a3001320:	e3530001 	cmp	r3, #1	; 0x1
a3001324:	1a000001 	bne	a3001330 <allocate_tasks+0x170>
a3001328:	e59f0058 	ldr	r0, [pc, #88]	; a3001388 <.text+0x1388>
a300132c:	eb0002ec 	bl	a3001ee4 <puts>
a3001330:	e59f004c 	ldr	r0, [pc, #76]	; a3001384 <.text+0x1384>
a3001334:	eb000026 	bl	a30013d4 <dispatch_init>
a3001338:	e59a3000 	ldr	r3, [sl]
a300133c:	e3530001 	cmp	r3, #1	; 0x1
a3001340:	1a000002 	bne	a3001350 <allocate_tasks+0x190>
a3001344:	e59f0040 	ldr	r0, [pc, #64]	; a300138c <.text+0x138c>
a3001348:	e8bd4ef0 	ldmia	sp!, {r4, r5, r6, r7, r9, sl, fp, lr}
a300134c:	ea0002e4 	b	a3001ee4 <puts>
a3001350:	e8bd8ef0 	ldmia	sp!, {r4, r5, r6, r7, r9, sl, fp, pc}
a3001354:	a3002e40 	movwge	r2, #3648	; 0xe40
a3001358:	a3002520 	movwge	r2, #1312	; 0x520
a300135c:	a3002538 	movwge	r2, #1336	; 0x538
a3001360:	a30047e8 	movwge	r4, #2024	; 0x7e8
a3001364:	feedbeef 	cdp2	14, 14, cr11, cr13, cr15, {7}
a3001368:	a3002558 	movwge	r2, #1368	; 0x558
a300136c:	a3002580 	movwge	r2, #1408	; 0x580
a3001370:	a30037b0 	movwge	r3, #1968	; 0x7b0
a3001374:	0003fdc8 	andeq	pc, r3, r8, asr #27
a3001378:	0003fdc9 	andeq	pc, r3, r9, asr #27
a300137c:	a30011b0 	movwge	r1, #432	; 0x1b0
a3001380:	a30445b0 	movwge	r4, #17840	; 0x45b0
a3001384:	a3043578 	movwge	r3, #17784	; 0x4578
a3001388:	a30025b0 	movwge	r2, #1456	; 0x5b0
a300138c:	a30025d0 	movwge	r2, #1488	; 0x5d0

a3001390 <assign_schedule>:
a3001390:	e3a00001 	mov	r0, #1	; 0x1
a3001394:	e12fff1e 	bx	lr

a3001398 <get_cur_prio>:
a3001398:	e59f3008 	ldr	r3, [pc, #8]	; a30013a8 <.text+0x13a8>
a300139c:	e5933000 	ldr	r3, [r3]
a30013a0:	e5d30001 	ldrb	r0, [r3, #1]
a30013a4:	e12fff1e 	bx	lr
a30013a8:	a3002e98 	movwge	r2, #3736	; 0xe98

a30013ac <get_cur_tcb>:
a30013ac:	e59f3004 	ldr	r3, [pc, #4]	; a30013b8 <.text+0x13b8>
a30013b0:	e5930000 	ldr	r0, [r3]
a30013b4:	e12fff1e 	bx	lr
a30013b8:	a3002e98 	movwge	r2, #3736	; 0xe98

a30013bc <get_kstack>:
a30013bc:	e59f300c 	ldr	r3, [pc, #12]	; a30013d0 <.text+0x13d0>
a30013c0:	e5930000 	ldr	r0, [r3]
a30013c4:	e2800a01 	add	r0, r0, #4096	; 0x1000
a30013c8:	e2800038 	add	r0, r0, #56	; 0x38
a30013cc:	e12fff1e 	bx	lr
a30013d0:	a3002e98 	movwge	r2, #3736	; 0xe98

a30013d4 <dispatch_init>:
a30013d4:	e59f3018 	ldr	r3, [pc, #24]	; a30013f4 <.text+0x13f4>
a30013d8:	e5932000 	ldr	r2, [r3]
a30013dc:	e59f3014 	ldr	r3, [pc, #20]	; a30013f8 <.text+0x13f8>
a30013e0:	e3520001 	cmp	r2, #1	; 0x1
a30013e4:	e5830000 	str	r0, [r3]
a30013e8:	e59f000c 	ldr	r0, [pc, #12]	; a30013fc <.text+0x13fc>
a30013ec:	112fff1e 	bxne	lr
a30013f0:	ea0002bb 	b	a3001ee4 <puts>
a30013f4:	a3002e40 	movwge	r2, #3648	; 0xe40
a30013f8:	a3002e98 	movwge	r2, #3736	; 0xe98
a30013fc:	a30025e8 	movwge	r2, #1512	; 0x5e8

a3001400 <ctx_dump>:
a3001400:	e92d4010 	stmdb	sp!, {r4, lr}
a3001404:	e1a04000 	mov	r4, r0
a3001408:	e59f007c 	ldr	r0, [pc, #124]	; a300148c <.text+0x148c>
a300140c:	eb0002b6 	bl	a3001eec <printf>
a3001410:	e5941000 	ldr	r1, [r4]
a3001414:	e59f0074 	ldr	r0, [pc, #116]	; a3001490 <.text+0x1490>
a3001418:	eb0002b3 	bl	a3001eec <printf>
a300141c:	e5941004 	ldr	r1, [r4, #4]
a3001420:	e59f006c 	ldr	r0, [pc, #108]	; a3001494 <.text+0x1494>
a3001424:	eb0002b0 	bl	a3001eec <printf>
a3001428:	e5941008 	ldr	r1, [r4, #8]
a300142c:	e59f0064 	ldr	r0, [pc, #100]	; a3001498 <.text+0x1498>
a3001430:	eb0002ad 	bl	a3001eec <printf>
a3001434:	e594100c 	ldr	r1, [r4, #12]
a3001438:	e59f005c 	ldr	r0, [pc, #92]	; a300149c <.text+0x149c>
a300143c:	eb0002aa 	bl	a3001eec <printf>
a3001440:	e5941010 	ldr	r1, [r4, #16]
a3001444:	e59f0054 	ldr	r0, [pc, #84]	; a30014a0 <.text+0x14a0>
a3001448:	eb0002a7 	bl	a3001eec <printf>
a300144c:	e5941014 	ldr	r1, [r4, #20]
a3001450:	e59f004c 	ldr	r0, [pc, #76]	; a30014a4 <.text+0x14a4>
a3001454:	eb0002a4 	bl	a3001eec <printf>
a3001458:	e5941018 	ldr	r1, [r4, #24]
a300145c:	e59f0044 	ldr	r0, [pc, #68]	; a30014a8 <.text+0x14a8>
a3001460:	eb0002a1 	bl	a3001eec <printf>
a3001464:	e594101c 	ldr	r1, [r4, #28]
a3001468:	e59f003c 	ldr	r0, [pc, #60]	; a30014ac <.text+0x14ac>
a300146c:	eb00029e 	bl	a3001eec <printf>
a3001470:	e5941020 	ldr	r1, [r4, #32]
a3001474:	e59f0034 	ldr	r0, [pc, #52]	; a30014b0 <.text+0x14b0>
a3001478:	eb00029b 	bl	a3001eec <printf>
a300147c:	e5941024 	ldr	r1, [r4, #36]
a3001480:	e59f002c 	ldr	r0, [pc, #44]	; a30014b4 <.text+0x14b4>
a3001484:	e8bd4010 	ldmia	sp!, {r4, lr}
a3001488:	ea000297 	b	a3001eec <printf>
a300148c:	a3002600 	movwge	r2, #1536	; 0x600
a3001490:	a3002610 	movwge	r2, #1552	; 0x610
a3001494:	a3002620 	movwge	r2, #1568	; 0x620
a3001498:	a3002630 	movwge	r2, #1584	; 0x630
a300149c:	a3002640 	movwge	r2, #1600	; 0x640
a30014a0:	a3002650 	movwge	r2, #1616	; 0x650
a30014a4:	a3002660 	movwge	r2, #1632	; 0x660
a30014a8:	a3002670 	movwge	r2, #1648	; 0x670
a30014ac:	a3002680 	movwge	r2, #1664	; 0x680
a30014b0:	a3002690 	movwge	r2, #1680	; 0x690
a30014b4:	a30026a0 	movwge	r2, #1696	; 0x6a0

a30014b8 <dispatch_sleep>:
a30014b8:	e92d4070 	stmdb	sp!, {r4, r5, r6, lr}
a30014bc:	e59f408c 	ldr	r4, [pc, #140]	; a3001550 <.text+0x1550>
a30014c0:	e59f508c 	ldr	r5, [pc, #140]	; a3001554 <.text+0x1554>
a30014c4:	e59f008c 	ldr	r0, [pc, #140]	; a3001558 <.text+0x1558>
a30014c8:	e5943000 	ldr	r3, [r4]
a30014cc:	e1a06004 	mov	r6, r4
a30014d0:	e3530001 	cmp	r3, #1	; 0x1
a30014d4:	1a000007 	bne	a30014f8 <dispatch_sleep+0x40>
a30014d8:	eb000281 	bl	a3001ee4 <puts>
a30014dc:	e5943000 	ldr	r3, [r4]
a30014e0:	e59f0074 	ldr	r0, [pc, #116]	; a300155c <.text+0x155c>
a30014e4:	e3530001 	cmp	r3, #1	; 0x1
a30014e8:	1a000002 	bne	a30014f8 <dispatch_sleep+0x40>
a30014ec:	e5953000 	ldr	r3, [r5]
a30014f0:	e5d31001 	ldrb	r1, [r3, #1]
a30014f4:	eb00027c 	bl	a3001eec <printf>
a30014f8:	e5954000 	ldr	r4, [r5]
a30014fc:	eb00009a 	bl	a300176c <highest_prio>
a3001500:	eb0000a9 	bl	a30017ac <runqueue_remove>
a3001504:	e5963000 	ldr	r3, [r6]
a3001508:	e5850000 	str	r0, [r5]
a300150c:	e59f004c 	ldr	r0, [pc, #76]	; a3001560 <.text+0x1560>
a3001510:	e3530001 	cmp	r3, #1	; 0x1
a3001514:	1a000007 	bne	a3001538 <dispatch_sleep+0x80>
a3001518:	eb000271 	bl	a3001ee4 <puts>
a300151c:	e5963000 	ldr	r3, [r6]
a3001520:	e3530001 	cmp	r3, #1	; 0x1
a3001524:	1a000003 	bne	a3001538 <dispatch_sleep+0x80>
a3001528:	e5950000 	ldr	r0, [r5]
a300152c:	e5d01001 	ldrb	r1, [r0, #1]
a3001530:	e2800004 	add	r0, r0, #4	; 0x4
a3001534:	ebffffb1 	bl	a3001400 <ctx_dump>
a3001538:	e59f3014 	ldr	r3, [pc, #20]	; a3001554 <.text+0x1554>
a300153c:	e2841004 	add	r1, r4, #4	; 0x4
a3001540:	e5930000 	ldr	r0, [r3]
a3001544:	e2800004 	add	r0, r0, #4	; 0x4
a3001548:	e8bd4070 	ldmia	sp!, {r4, r5, r6, lr}
a300154c:	ea000067 	b	a30016f0 <ctx_switch_full>
a3001550:	a3002e40 	movwge	r2, #3648	; 0xe40
a3001554:	a3002e98 	movwge	r2, #3736	; 0xe98
a3001558:	a30026b0 	movwge	r2, #1712	; 0x6b0
a300155c:	a30026c8 	movwge	r2, #1736	; 0x6c8
a3001560:	a30026f0 	movwge	r2, #1776	; 0x6f0

a3001564 <dispatch_nosave>:
a3001564:	e92d4010 	stmdb	sp!, {r4, lr}
a3001568:	e59f4068 	ldr	r4, [pc, #104]	; a30015d8 <.text+0x15d8>
a300156c:	e5943000 	ldr	r3, [r4]
a3001570:	e3530001 	cmp	r3, #1	; 0x1
a3001574:	1a000009 	bne	a30015a0 <dispatch_nosave+0x3c>
a3001578:	e59f005c 	ldr	r0, [pc, #92]	; a30015dc <.text+0x15dc>
a300157c:	eb000258 	bl	a3001ee4 <puts>
a3001580:	e5943000 	ldr	r3, [r4]
a3001584:	e3530001 	cmp	r3, #1	; 0x1
a3001588:	1a000004 	bne	a30015a0 <dispatch_nosave+0x3c>
a300158c:	e59f304c 	ldr	r3, [pc, #76]	; a30015e0 <.text+0x15e0>
a3001590:	e5930000 	ldr	r0, [r3]
a3001594:	e5d01001 	ldrb	r1, [r0, #1]
a3001598:	e2800004 	add	r0, r0, #4	; 0x4
a300159c:	ebffff97 	bl	a3001400 <ctx_dump>
a30015a0:	eb000071 	bl	a300176c <highest_prio>
a30015a4:	eb000080 	bl	a30017ac <runqueue_remove>
a30015a8:	e59f3028 	ldr	r3, [pc, #40]	; a30015d8 <.text+0x15d8>
a30015ac:	e59f402c 	ldr	r4, [pc, #44]	; a30015e0 <.text+0x15e0>
a30015b0:	e5933000 	ldr	r3, [r3]
a30015b4:	e5840000 	str	r0, [r4]
a30015b8:	e3530001 	cmp	r3, #1	; 0x1
a30015bc:	1a000002 	bne	a30015cc <dispatch_nosave+0x68>
a30015c0:	e5d01001 	ldrb	r1, [r0, #1]
a30015c4:	e59f0018 	ldr	r0, [pc, #24]	; a30015e4 <.text+0x15e4>
a30015c8:	eb000247 	bl	a3001eec <printf>
a30015cc:	e5940000 	ldr	r0, [r4]
a30015d0:	e2800004 	add	r0, r0, #4	; 0x4
a30015d4:	eb00004e 	bl	a3001714 <ctx_switch_half>
a30015d8:	a3002e40 	movwge	r2, #3648	; 0xe40
a30015dc:	a3002708 	movwge	r2, #1800	; 0x708
a30015e0:	a3002e98 	movwge	r2, #3736	; 0xe98
a30015e4:	a3002720 	movwge	r2, #1824	; 0x720

a30015e8 <dispatch_save>:
a30015e8:	e92d4070 	stmdb	sp!, {r4, r5, r6, lr}
a30015ec:	e59f40b4 	ldr	r4, [pc, #180]	; a30016a8 <.text+0x16a8>
a30015f0:	e59f60b4 	ldr	r6, [pc, #180]	; a30016ac <.text+0x16ac>
a30015f4:	e59f00b4 	ldr	r0, [pc, #180]	; a30016b0 <.text+0x16b0>
a30015f8:	e5943000 	ldr	r3, [r4]
a30015fc:	e1a05004 	mov	r5, r4
a3001600:	e3530001 	cmp	r3, #1	; 0x1
a3001604:	1a000007 	bne	a3001628 <dispatch_save+0x40>
a3001608:	eb000235 	bl	a3001ee4 <puts>
a300160c:	e5943000 	ldr	r3, [r4]
a3001610:	e59f009c 	ldr	r0, [pc, #156]	; a30016b4 <.text+0x16b4>
a3001614:	e3530001 	cmp	r3, #1	; 0x1
a3001618:	1a000002 	bne	a3001628 <dispatch_save+0x40>
a300161c:	e5963000 	ldr	r3, [r6]
a3001620:	e5d31001 	ldrb	r1, [r3, #1]
a3001624:	eb000230 	bl	a3001eec <printf>
a3001628:	e5964000 	ldr	r4, [r6]
a300162c:	e5d41001 	ldrb	r1, [r4, #1]
a3001630:	e1a00004 	mov	r0, r4
a3001634:	eb000080 	bl	a300183c <runqueue_add>
a3001638:	eb00004b 	bl	a300176c <highest_prio>
a300163c:	eb00005a 	bl	a30017ac <runqueue_remove>
a3001640:	e5953000 	ldr	r3, [r5]
a3001644:	e1a02000 	mov	r2, r0
a3001648:	e5862000 	str	r2, [r6]
a300164c:	e3530001 	cmp	r3, #1	; 0x1
a3001650:	e59f0060 	ldr	r0, [pc, #96]	; a30016b8 <.text+0x16b8>
a3001654:	1a00000d 	bne	a3001690 <dispatch_save+0xa8>
a3001658:	e5d21001 	ldrb	r1, [r2, #1]
a300165c:	eb000222 	bl	a3001eec <printf>
a3001660:	e5953000 	ldr	r3, [r5]
a3001664:	e59f0050 	ldr	r0, [pc, #80]	; a30016bc <.text+0x16bc>
a3001668:	e3530001 	cmp	r3, #1	; 0x1
a300166c:	1a000007 	bne	a3001690 <dispatch_save+0xa8>
a3001670:	eb00021b 	bl	a3001ee4 <puts>
a3001674:	e5953000 	ldr	r3, [r5]
a3001678:	e3530001 	cmp	r3, #1	; 0x1
a300167c:	1a000003 	bne	a3001690 <dispatch_save+0xa8>
a3001680:	e5960000 	ldr	r0, [r6]
a3001684:	e5d01001 	ldrb	r1, [r0, #1]
a3001688:	e2800004 	add	r0, r0, #4	; 0x4
a300168c:	ebffff5b 	bl	a3001400 <ctx_dump>
a3001690:	e59f3014 	ldr	r3, [pc, #20]	; a30016ac <.text+0x16ac>
a3001694:	e2841004 	add	r1, r4, #4	; 0x4
a3001698:	e5930000 	ldr	r0, [r3]
a300169c:	e2800004 	add	r0, r0, #4	; 0x4
a30016a0:	e8bd4070 	ldmia	sp!, {r4, r5, r6, lr}
a30016a4:	ea000011 	b	a30016f0 <ctx_switch_full>
a30016a8:	a3002e40 	movwge	r2, #3648	; 0xe40
a30016ac:	a3002e98 	movwge	r2, #3736	; 0xe98
a30016b0:	a3002748 	movwge	r2, #1864	; 0x748
a30016b4:	a3002760 	movwge	r2, #1888	; 0x760
a30016b8:	a3002788 	movwge	r2, #1928	; 0x788
a30016bc:	a30026f0 	movwge	r2, #1776	; 0x6f0

a30016c0 <launch_task>:
a30016c0:	e1a00005 	mov	r0, r5
a30016c4:	e3a01000 	mov	r1, #0	; 0x0
a30016c8:	e3a02000 	mov	r2, #0	; 0x0
a30016cc:	e3a03000 	mov	r3, #0	; 0x0
a30016d0:	e3a05000 	mov	r5, #0	; 0x0
a30016d4:	e3a08000 	mov	r8, #0	; 0x0
a30016d8:	e3a0c000 	mov	ip, #0	; 0x0
a30016dc:	e321f010 	msr	CPSR_c, #16	; 0x10
a30016e0:	e1a0d006 	mov	sp, r6
a30016e4:	e3a06000 	mov	r6, #0	; 0x0
a30016e8:	e59fe03c 	ldr	lr, [pc, #60]	; a300172c <.text+0x172c>
a30016ec:	e1a0f004 	mov	pc, r4

a30016f0 <ctx_switch_full>:
a30016f0:	e92d5fff 	stmdb	sp!, {r0, r1, r2, r3, r4, r5, r6, r7, r8, r9, sl, fp, ip, lr}
a30016f4:	e8816ff0 	stmia	r1, {r4, r5, r6, r7, r8, r9, sl, fp, sp, lr}
a30016f8:	e590101c 	ldr	r1, [r0, #28]
a30016fc:	e59f502c 	ldr	r5, [pc, #44]	; a3001730 <.text+0x1730>
a3001700:	e1510005 	cmp	r1, r5
a3001704:	0a000002 	beq	a3001714 <ctx_switch_half>
a3001708:	e8b06ff0 	ldmia	r0!, {r4, r5, r6, r7, r8, r9, sl, fp, sp, lr}
a300170c:	e8bd5fff 	ldmia	sp!, {r0, r1, r2, r3, r4, r5, r6, r7, r8, r9, sl, fp, ip, lr}
a3001710:	e1a0f00e 	mov	pc, lr

a3001714 <ctx_switch_half>:
a3001714:	e4904004 	ldr	r4, [r0], #4
a3001718:	e4905004 	ldr	r5, [r0], #4
a300171c:	e4906004 	ldr	r6, [r0], #4
a3001720:	e490d004 	ldr	sp, [r0], #4
a3001724:	e59fb008 	ldr	fp, [pc, #8]	; a3001734 <.text+0x1734>
a3001728:	eaffffe4 	b	a30016c0 <launch_task>
a300172c:	deadbeef 	cdple	14, 10, cr11, cr13, cr15, {7}
a3001730:	feedbeef 	cdp2	14, 14, cr11, cr13, cr15, {7}
a3001734:	fedbef00 	cdp2	15, 13, cr14, cr11, cr0, {0}

a3001738 <runqueue_init>:
a3001738:	e59f3020 	ldr	r3, [pc, #32]	; a3001760 <.text+0x1760>
a300173c:	e59f1020 	ldr	r1, [pc, #32]	; a3001764 <.text+0x1764>
a3001740:	e3a02000 	mov	r2, #0	; 0x0
a3001744:	e5c32000 	strb	r2, [r3]
a3001748:	e3a03000 	mov	r3, #0	; 0x0
a300174c:	e4c13001 	strb	r3, [r1], #1
a3001750:	e59f3010 	ldr	r3, [pc, #16]	; a3001768 <.text+0x1768>
a3001754:	e1510003 	cmp	r1, r3
a3001758:	1afffffa 	bne	a3001748 <runqueue_init+0x10>
a300175c:	e12fff1e 	bx	lr
a3001760:	a3002fa4 	movwge	r2, #4004	; 0xfa4
a3001764:	a3002f9c 	movwge	r2, #3996	; 0xf9c
a3001768:	a3002fa3 	movwge	r2, #4003	; 0xfa3

a300176c <highest_prio>:
a300176c:	e59f302c 	ldr	r3, [pc, #44]	; a30017a0 <.text+0x17a0>
a3001770:	e59f102c 	ldr	r1, [pc, #44]	; a30017a4 <.text+0x17a4>
a3001774:	e5d33000 	ldrb	r3, [r3]
a3001778:	e3a0003f 	mov	r0, #63	; 0x3f
a300177c:	e3530000 	cmp	r3, #0	; 0x0
a3001780:	012fff1e 	bxeq	lr
a3001784:	e7d12003 	ldrb	r2, [r1, r3]
a3001788:	e59f3018 	ldr	r3, [pc, #24]	; a30017a8 <.text+0x17a8>
a300178c:	e7d33002 	ldrb	r3, [r3, r2]
a3001790:	e7d13003 	ldrb	r3, [r1, r3]
a3001794:	e0833182 	add	r3, r3, r2, lsl #3
a3001798:	e20300ff 	and	r0, r3, #255	; 0xff
a300179c:	e12fff1e 	bx	lr
a30017a0:	a3002fa4 	movwge	r2, #4004	; 0xfa4
a30017a4:	a30027ec 	movwge	r2, #2028	; 0x7ec
a30017a8:	a3002f9c 	movwge	r2, #3996	; 0xf9c

a30017ac <runqueue_remove>:
a30017ac:	e59f3074 	ldr	r3, [pc, #116]	; a3001828 <.text+0x1828>
a30017b0:	e92d40f0 	stmdb	sp!, {r4, r5, r6, r7, lr}
a30017b4:	e5933000 	ldr	r3, [r3]
a30017b8:	e1a05000 	mov	r5, r0
a30017bc:	e20540ff 	and	r4, r5, #255	; 0xff
a30017c0:	e3530001 	cmp	r3, #1	; 0x1
a30017c4:	e59f0060 	ldr	r0, [pc, #96]	; a300182c <.text+0x182c>
a30017c8:	e1a01004 	mov	r1, r4
a30017cc:	1a000000 	bne	a30017d4 <runqueue_remove+0x28>
a30017d0:	eb0001c5 	bl	a3001eec <printf>
a30017d4:	e354003e 	cmp	r4, #62	; 0x3e
a30017d8:	e59f6050 	ldr	r6, [pc, #80]	; a3001830 <.text+0x1830>
a30017dc:	e1a0c1a4 	mov	ip, r4, lsr #3
a30017e0:	e205e007 	and	lr, r5, #7	; 0x7
a30017e4:	e3a07001 	mov	r7, #1	; 0x1
a30017e8:	e59f1044 	ldr	r1, [pc, #68]	; a3001834 <.text+0x1834>
a30017ec:	9a000001 	bls	a30017f8 <runqueue_remove+0x4c>
a30017f0:	e59100fc 	ldr	r0, [r1, #252]
a30017f4:	e8bd80f0 	ldmia	sp!, {r4, r5, r6, r7, pc}
a30017f8:	e7d6200c 	ldrb	r2, [r6, ip]
a30017fc:	e59f5034 	ldr	r5, [pc, #52]	; a3001838 <.text+0x1838>
a3001800:	e3a03000 	mov	r3, #0	; 0x0
a3001804:	e1c22e17 	bic	r2, r2, r7, lsl lr
a3001808:	e1520003 	cmp	r2, r3
a300180c:	e7910104 	ldr	r0, [r1, r4, lsl #2]
a3001810:	e7813104 	str	r3, [r1, r4, lsl #2]
a3001814:	05d53000 	ldreqb	r3, [r5]
a3001818:	e7c6200c 	strb	r2, [r6, ip]
a300181c:	01c33c17 	biceq	r3, r3, r7, lsl ip
a3001820:	05c53000 	streqb	r3, [r5]
a3001824:	e8bd80f0 	ldmia	sp!, {r4, r5, r6, r7, pc}
a3001828:	a3002e40 	movwge	r2, #3648	; 0xe40
a300182c:	a30027b0 	movwge	r2, #1968	; 0x7b0
a3001830:	a3002f9c 	movwge	r2, #3996	; 0xf9c
a3001834:	a3002e9c 	movwge	r2, #3740	; 0xe9c
a3001838:	a3002fa4 	movwge	r2, #4004	; 0xfa4

a300183c <runqueue_add>:
a300183c:	e59f305c 	ldr	r3, [pc, #92]	; a30018a0 <.text+0x18a0>
a3001840:	e92d40f0 	stmdb	sp!, {r4, r5, r6, r7, lr}
a3001844:	e5933000 	ldr	r3, [r3]
a3001848:	e20150ff 	and	r5, r1, #255	; 0xff
a300184c:	e1a06001 	mov	r6, r1
a3001850:	e3530001 	cmp	r3, #1	; 0x1
a3001854:	e1a07000 	mov	r7, r0
a3001858:	e1a01005 	mov	r1, r5
a300185c:	e59f0040 	ldr	r0, [pc, #64]	; a30018a4 <.text+0x18a4>
a3001860:	1a000000 	bne	a3001868 <runqueue_add+0x2c>
a3001864:	eb0001a0 	bl	a3001eec <printf>
a3001868:	e59f4038 	ldr	r4, [pc, #56]	; a30018a8 <.text+0x18a8>
a300186c:	e1a011a5 	mov	r1, r5, lsr #3
a3001870:	e59fe034 	ldr	lr, [pc, #52]	; a30018ac <.text+0x18ac>
a3001874:	e7d43001 	ldrb	r3, [r4, r1]
a3001878:	e3a00001 	mov	r0, #1	; 0x1
a300187c:	e206c007 	and	ip, r6, #7	; 0x7
a3001880:	e5de2000 	ldrb	r2, [lr]
a3001884:	e1833c10 	orr	r3, r3, r0, lsl ip
a3001888:	e1822110 	orr	r2, r2, r0, lsl r1
a300188c:	e7c43001 	strb	r3, [r4, r1]
a3001890:	e59f3018 	ldr	r3, [pc, #24]	; a30018b0 <.text+0x18b0>
a3001894:	e5ce2000 	strb	r2, [lr]
a3001898:	e7837105 	str	r7, [r3, r5, lsl #2]
a300189c:	e8bd80f0 	ldmia	sp!, {r4, r5, r6, r7, pc}
a30018a0:	a3002e40 	movwge	r2, #3648	; 0xe40
a30018a4:	a30027d0 	movwge	r2, #2000	; 0x7d0
a30018a8:	a3002f9c 	movwge	r2, #3996	; 0xf9c
a30018ac:	a3002fa4 	movwge	r2, #4004	; 0xfa4
a30018b0:	a3002e9c 	movwge	r2, #3740	; 0xe9c

a30018b4 <mutex_unlock>:
a30018b4:	e92d44f0 	stmdb	sp!, {r4, r5, r6, r7, sl, lr}
a30018b8:	e1a06000 	mov	r6, r0
a30018bc:	e10f3000 	mrs	r3, CPSR
a30018c0:	e38330c0 	orr	r3, r3, #192	; 0xc0
a30018c4:	e121f003 	msr	CPSR_c, r3
a30018c8:	e59f41e8 	ldr	r4, [pc, #488]	; a3001ab8 <.text+0x1ab8>
a30018cc:	e5943000 	ldr	r3, [r4]
a30018d0:	e3530001 	cmp	r3, #1	; 0x1
a30018d4:	1a00000e 	bne	a3001914 <mutex_unlock+0x60>
a30018d8:	e59f01dc 	ldr	r0, [pc, #476]	; a3001abc <.text+0x1abc>
a30018dc:	eb000182 	bl	a3001eec <printf>
a30018e0:	e5943000 	ldr	r3, [r4]
a30018e4:	e3530001 	cmp	r3, #1	; 0x1
a30018e8:	1a000009 	bne	a3001914 <mutex_unlock+0x60>
a30018ec:	e59f01cc 	ldr	r0, [pc, #460]	; a3001ac0 <.text+0x1ac0>
a30018f0:	e1a01006 	mov	r1, r6
a30018f4:	eb00017c 	bl	a3001eec <printf>
a30018f8:	e5943000 	ldr	r3, [r4]
a30018fc:	e3530001 	cmp	r3, #1	; 0x1
a3001900:	1a000003 	bne	a3001914 <mutex_unlock+0x60>
a3001904:	ebfffea8 	bl	a30013ac <get_cur_tcb>
a3001908:	e1a01000 	mov	r1, r0
a300190c:	e59f01b0 	ldr	r0, [pc, #432]	; a3001ac4 <.text+0x1ac4>
a3001910:	eb000175 	bl	a3001eec <printf>
a3001914:	e3560000 	cmp	r6, #0	; 0x0
a3001918:	ba000003 	blt	a300192c <mutex_unlock+0x78>
a300191c:	e59f31a4 	ldr	r3, [pc, #420]	; a3001ac8 <.text+0x1ac8>
a3001920:	e5933000 	ldr	r3, [r3]
a3001924:	e1560003 	cmp	r6, r3
a3001928:	da00000a 	ble	a3001958 <mutex_unlock+0xa4>
a300192c:	e59f3184 	ldr	r3, [pc, #388]	; a3001ab8 <.text+0x1ab8>
a3001930:	e5933000 	ldr	r3, [r3]
a3001934:	e3530001 	cmp	r3, #1	; 0x1
a3001938:	1a000001 	bne	a3001944 <mutex_unlock+0x90>
a300193c:	e59f0188 	ldr	r0, [pc, #392]	; a3001acc <.text+0x1acc>
a3001940:	eb000169 	bl	a3001eec <printf>
a3001944:	e10f3000 	mrs	r3, CPSR
a3001948:	e3c330c0 	bic	r3, r3, #192	; 0xc0
a300194c:	e121f003 	msr	CPSR_c, r3
a3001950:	e3e00015 	mvn	r0, #21	; 0x15
a3001954:	e8bd84f0 	ldmia	sp!, {r4, r5, r6, r7, sl, pc}
a3001958:	e59fa170 	ldr	sl, [pc, #368]	; a3001ad0 <.text+0x1ad0>
a300195c:	e08a5206 	add	r5, sl, r6, lsl #4
a3001960:	e5954004 	ldr	r4, [r5, #4]
a3001964:	ebfffe90 	bl	a30013ac <get_cur_tcb>
a3001968:	e1540000 	cmp	r4, r0
a300196c:	0a00000a 	beq	a300199c <mutex_unlock+0xe8>
a3001970:	e59f3140 	ldr	r3, [pc, #320]	; a3001ab8 <.text+0x1ab8>
a3001974:	e5933000 	ldr	r3, [r3]
a3001978:	e3530001 	cmp	r3, #1	; 0x1
a300197c:	1a000001 	bne	a3001988 <mutex_unlock+0xd4>
a3001980:	e59f014c 	ldr	r0, [pc, #332]	; a3001ad4 <.text+0x1ad4>
a3001984:	eb000158 	bl	a3001eec <printf>
a3001988:	e10f3000 	mrs	r3, CPSR
a300198c:	e3c330c0 	bic	r3, r3, #192	; 0xc0
a3001990:	e121f003 	msr	CPSR_c, r3
a3001994:	e3e00000 	mvn	r0, #0	; 0x0
a3001998:	e8bd84f0 	ldmia	sp!, {r4, r5, r6, r7, sl, pc}
a300199c:	e595400c 	ldr	r4, [r5, #12]
a30019a0:	e59f7110 	ldr	r7, [pc, #272]	; a3001ab8 <.text+0x1ab8>
a30019a4:	e3540000 	cmp	r4, #0	; 0x0
a30019a8:	1a000009 	bne	a30019d4 <mutex_unlock+0x120>
a30019ac:	e5973000 	ldr	r3, [r7]
a30019b0:	e3530001 	cmp	r3, #1	; 0x1
a30019b4:	1a000001 	bne	a30019c0 <mutex_unlock+0x10c>
a30019b8:	e59f0118 	ldr	r0, [pc, #280]	; a3001ad8 <.text+0x1ad8>
a30019bc:	eb00014a 	bl	a3001eec <printf>
a30019c0:	e3a03001 	mov	r3, #1	; 0x1
a30019c4:	e78a3206 	str	r3, [sl, r6, lsl #4]
a30019c8:	e5854004 	str	r4, [r5, #4]
a30019cc:	e5854008 	str	r4, [r5, #8]
a30019d0:	ea000022 	b	a3001a60 <mutex_unlock+0x1ac>
a30019d4:	e5973000 	ldr	r3, [r7]
a30019d8:	e1a06007 	mov	r6, r7
a30019dc:	e3530001 	cmp	r3, #1	; 0x1
a30019e0:	1a000001 	bne	a30019ec <mutex_unlock+0x138>
a30019e4:	e59f00f0 	ldr	r0, [pc, #240]	; a3001adc <.text+0x1adc>
a30019e8:	eb00013f 	bl	a3001eec <printf>
a30019ec:	e595400c 	ldr	r4, [r5, #12]
a30019f0:	e5963000 	ldr	r3, [r6]
a30019f4:	e5942030 	ldr	r2, [r4, #48]
a30019f8:	e3530001 	cmp	r3, #1	; 0x1
a30019fc:	e3a03000 	mov	r3, #0	; 0x0
a3001a00:	e585200c 	str	r2, [r5, #12]
a3001a04:	e5843030 	str	r3, [r4, #48]
a3001a08:	1a000002 	bne	a3001a18 <mutex_unlock+0x164>
a3001a0c:	e59f00cc 	ldr	r0, [pc, #204]	; a3001ae0 <.text+0x1ae0>
a3001a10:	e1a01004 	mov	r1, r4
a3001a14:	eb000134 	bl	a3001eec <printf>
a3001a18:	e594302c 	ldr	r3, [r4, #44]
a3001a1c:	e5972000 	ldr	r2, [r7]
a3001a20:	e5854004 	str	r4, [r5, #4]
a3001a24:	e2833001 	add	r3, r3, #1	; 0x1
a3001a28:	e3520001 	cmp	r2, #1	; 0x1
a3001a2c:	e584302c 	str	r3, [r4, #44]
a3001a30:	1a000007 	bne	a3001a54 <mutex_unlock+0x1a0>
a3001a34:	e594102c 	ldr	r1, [r4, #44]
a3001a38:	e59f00a4 	ldr	r0, [pc, #164]	; a3001ae4 <.text+0x1ae4>
a3001a3c:	eb00012a 	bl	a3001eec <printf>
a3001a40:	e5973000 	ldr	r3, [r7]
a3001a44:	e3530001 	cmp	r3, #1	; 0x1
a3001a48:	1a000001 	bne	a3001a54 <mutex_unlock+0x1a0>
a3001a4c:	e59f0094 	ldr	r0, [pc, #148]	; a3001ae8 <.text+0x1ae8>
a3001a50:	eb000125 	bl	a3001eec <printf>
a3001a54:	e5d41001 	ldrb	r1, [r4, #1]
a3001a58:	e1a00004 	mov	r0, r4
a3001a5c:	ebffff76 	bl	a300183c <runqueue_add>
a3001a60:	e59f4050 	ldr	r4, [pc, #80]	; a3001ab8 <.text+0x1ab8>
a3001a64:	e5943000 	ldr	r3, [r4]
a3001a68:	e3530001 	cmp	r3, #1	; 0x1
a3001a6c:	1a000001 	bne	a3001a78 <mutex_unlock+0x1c4>
a3001a70:	e59f0074 	ldr	r0, [pc, #116]	; a3001aec <.text+0x1aec>
a3001a74:	eb00011c 	bl	a3001eec <printf>
a3001a78:	ebfffe4b 	bl	a30013ac <get_cur_tcb>
a3001a7c:	e5942000 	ldr	r2, [r4]
a3001a80:	e590302c 	ldr	r3, [r0, #44]
a3001a84:	e3520001 	cmp	r2, #1	; 0x1
a3001a88:	e2433001 	sub	r3, r3, #1	; 0x1
a3001a8c:	e580302c 	str	r3, [r0, #44]
a3001a90:	1a000003 	bne	a3001aa4 <mutex_unlock+0x1f0>
a3001a94:	ebfffe44 	bl	a30013ac <get_cur_tcb>
a3001a98:	e590102c 	ldr	r1, [r0, #44]
a3001a9c:	e59f004c 	ldr	r0, [pc, #76]	; a3001af0 <.text+0x1af0>
a3001aa0:	eb000111 	bl	a3001eec <printf>
a3001aa4:	e10f3000 	mrs	r3, CPSR
a3001aa8:	e3c330c0 	bic	r3, r3, #192	; 0xc0
a3001aac:	e121f003 	msr	CPSR_c, r3
a3001ab0:	e3a00000 	mov	r0, #0	; 0x0
a3001ab4:	e8bd84f0 	ldmia	sp!, {r4, r5, r6, r7, sl, pc}
a3001ab8:	a3002e40 	movwge	r2, #3648	; 0xe40
a3001abc:	a30028f0 	movwge	r2, #2288	; 0x8f0
a3001ac0:	a3002910 	movwge	r2, #2320	; 0x910
a3001ac4:	a3002940 	movwge	r2, #2368	; 0x940
a3001ac8:	a30447b0 	movwge	r4, #18352	; 0x47b0
a3001acc:	a3002968 	movwge	r2, #2408	; 0x968
a3001ad0:	a30445b0 	movwge	r4, #17840	; 0x45b0
a3001ad4:	a3002990 	movwge	r2, #2448	; 0x990
a3001ad8:	a30029c8 	movwge	r2, #2504	; 0x9c8
a3001adc:	a3002a08 	movwge	r2, #2568	; 0xa08
a3001ae0:	a3002a40 	movwge	r2, #2624	; 0xa40
a3001ae4:	a3002a68 	movwge	r2, #2664	; 0xa68
a3001ae8:	a3002a98 	movwge	r2, #2712	; 0xa98
a3001aec:	a3002ac8 	movwge	r2, #2760	; 0xac8
a3001af0:	a3002af0 	movwge	r2, #2800	; 0xaf0

a3001af4 <mutex_init>:
a3001af4:	e92d4030 	stmdb	sp!, {r4, r5, lr}
a3001af8:	e10f3000 	mrs	r3, CPSR
a3001afc:	e38330c0 	orr	r3, r3, #192	; 0xc0
a3001b00:	e121f003 	msr	CPSR_c, r3
a3001b04:	e59f404c 	ldr	r4, [pc, #76]	; a3001b58 <.text+0x1b58>
a3001b08:	e59f504c 	ldr	r5, [pc, #76]	; a3001b5c <.text+0x1b5c>
a3001b0c:	e59f004c 	ldr	r0, [pc, #76]	; a3001b60 <.text+0x1b60>
a3001b10:	e5943000 	ldr	r3, [r4]
a3001b14:	e3530001 	cmp	r3, #1	; 0x1
a3001b18:	13a03000 	movne	r3, #0	; 0x0
a3001b1c:	15853000 	strne	r3, [r5]
a3001b20:	1a000008 	bne	a3001b48 <mutex_init+0x54>
a3001b24:	eb0000f0 	bl	a3001eec <printf>
a3001b28:	e5942000 	ldr	r2, [r4]
a3001b2c:	e3a03000 	mov	r3, #0	; 0x0
a3001b30:	e1a01003 	mov	r1, r3
a3001b34:	e3520001 	cmp	r2, #1	; 0x1
a3001b38:	e59f0024 	ldr	r0, [pc, #36]	; a3001b64 <.text+0x1b64>
a3001b3c:	e5853000 	str	r3, [r5]
a3001b40:	1a000000 	bne	a3001b48 <mutex_init+0x54>
a3001b44:	eb0000e8 	bl	a3001eec <printf>
a3001b48:	e10f3000 	mrs	r3, CPSR
a3001b4c:	e3c330c0 	bic	r3, r3, #192	; 0xc0
a3001b50:	e121f003 	msr	CPSR_c, r3
a3001b54:	e8bd8030 	ldmia	sp!, {r4, r5, pc}
a3001b58:	a3002e40 	movwge	r2, #3648	; 0xe40
a3001b5c:	a30447b0 	movwge	r4, #18352	; 0x47b0
a3001b60:	a3002b20 	movwge	r2, #2848	; 0xb20
a3001b64:	a3002b40 	movwge	r2, #2880	; 0xb40

a3001b68 <mutex_create>:
a3001b68:	e92d40f0 	stmdb	sp!, {r4, r5, r6, r7, lr}
a3001b6c:	e10f3000 	mrs	r3, CPSR
a3001b70:	e38330c0 	orr	r3, r3, #192	; 0xc0
a3001b74:	e121f003 	msr	CPSR_c, r3
a3001b78:	e59f70d0 	ldr	r7, [pc, #208]	; a3001c50 <.text+0x1c50>
a3001b7c:	e5973000 	ldr	r3, [r7]
a3001b80:	e3530001 	cmp	r3, #1	; 0x1
a3001b84:	1a000001 	bne	a3001b90 <mutex_create+0x28>
a3001b88:	e59f00c4 	ldr	r0, [pc, #196]	; a3001c54 <.text+0x1c54>
a3001b8c:	eb0000d6 	bl	a3001eec <printf>
a3001b90:	e59f60c0 	ldr	r6, [pc, #192]	; a3001c58 <.text+0x1c58>
a3001b94:	e5974000 	ldr	r4, [r7]
a3001b98:	e5961000 	ldr	r1, [r6]
a3001b9c:	e351001f 	cmp	r1, #31	; 0x1f
a3001ba0:	da000008 	ble	a3001bc8 <mutex_create+0x60>
a3001ba4:	e3540001 	cmp	r4, #1	; 0x1
a3001ba8:	1a000001 	bne	a3001bb4 <mutex_create+0x4c>
a3001bac:	e59f00a8 	ldr	r0, [pc, #168]	; a3001c5c <.text+0x1c5c>
a3001bb0:	eb0000cd 	bl	a3001eec <printf>
a3001bb4:	e10f3000 	mrs	r3, CPSR
a3001bb8:	e3c330c0 	bic	r3, r3, #192	; 0xc0
a3001bbc:	e121f003 	msr	CPSR_c, r3
a3001bc0:	e3e0000b 	mvn	r0, #11	; 0xb
a3001bc4:	e8bd80f0 	ldmia	sp!, {r4, r5, r6, r7, pc}
a3001bc8:	e2810001 	add	r0, r1, #1	; 0x1
a3001bcc:	e3540001 	cmp	r4, #1	; 0x1
a3001bd0:	e5860000 	str	r0, [r6]
a3001bd4:	e59f5084 	ldr	r5, [pc, #132]	; a3001c60 <.text+0x1c60>
a3001bd8:	1a000014 	bne	a3001c30 <mutex_create+0xc8>
a3001bdc:	e1a01000 	mov	r1, r0
a3001be0:	e59f007c 	ldr	r0, [pc, #124]	; a3001c64 <.text+0x1c64>
a3001be4:	eb0000c0 	bl	a3001eec <printf>
a3001be8:	e5960000 	ldr	r0, [r6]
a3001bec:	e5971000 	ldr	r1, [r7]
a3001bf0:	e3a02000 	mov	r2, #0	; 0x0
a3001bf4:	e0853200 	add	r3, r5, r0, lsl #4
a3001bf8:	e3510001 	cmp	r1, #1	; 0x1
a3001bfc:	e583200c 	str	r2, [r3, #12]
a3001c00:	e7854200 	str	r4, [r5, r0, lsl #4]
a3001c04:	e5832008 	str	r2, [r3, #8]
a3001c08:	e5832004 	str	r2, [r3, #4]
a3001c0c:	1a000001 	bne	a3001c18 <mutex_create+0xb0>
a3001c10:	e59f0050 	ldr	r0, [pc, #80]	; a3001c68 <.text+0x1c68>
a3001c14:	eb0000b4 	bl	a3001eec <printf>
a3001c18:	e10f3000 	mrs	r3, CPSR
a3001c1c:	e3c330c0 	bic	r3, r3, #192	; 0xc0
a3001c20:	e121f003 	msr	CPSR_c, r3
a3001c24:	e59f302c 	ldr	r3, [pc, #44]	; a3001c58 <.text+0x1c58>
a3001c28:	e5930000 	ldr	r0, [r3]
a3001c2c:	e8bd80f0 	ldmia	sp!, {r4, r5, r6, r7, pc}
a3001c30:	e0851200 	add	r1, r5, r0, lsl #4
a3001c34:	e3a02000 	mov	r2, #0	; 0x0
a3001c38:	e3a03001 	mov	r3, #1	; 0x1
a3001c3c:	e581200c 	str	r2, [r1, #12]
a3001c40:	e7853200 	str	r3, [r5, r0, lsl #4]
a3001c44:	e5812008 	str	r2, [r1, #8]
a3001c48:	e5812004 	str	r2, [r1, #4]
a3001c4c:	eafffff1 	b	a3001c18 <mutex_create+0xb0>
a3001c50:	a3002e40 	movwge	r2, #3648	; 0xe40
a3001c54:	a3002b68 	movwge	r2, #2920	; 0xb68
a3001c58:	a30447b0 	movwge	r4, #18352	; 0x47b0
a3001c5c:	a3002b88 	movwge	r2, #2952	; 0xb88
a3001c60:	a30445b0 	movwge	r4, #17840	; 0x45b0
a3001c64:	a3002bb8 	movwge	r2, #3000	; 0xbb8
a3001c68:	a3002be0 	movwge	r2, #3040	; 0xbe0

a3001c6c <mutex_lock>:
a3001c6c:	e92d40f0 	stmdb	sp!, {r4, r5, r6, r7, lr}
a3001c70:	e1a05000 	mov	r5, r0
a3001c74:	e10f3000 	mrs	r3, CPSR
a3001c78:	e38330c0 	orr	r3, r3, #192	; 0xc0
a3001c7c:	e121f003 	msr	CPSR_c, r3
a3001c80:	e59f41fc 	ldr	r4, [pc, #508]	; a3001e84 <.text+0x1e84>
a3001c84:	e5943000 	ldr	r3, [r4]
a3001c88:	e3530001 	cmp	r3, #1	; 0x1
a3001c8c:	1a00000e 	bne	a3001ccc <mutex_lock+0x60>
a3001c90:	e59f01f0 	ldr	r0, [pc, #496]	; a3001e88 <.text+0x1e88>
a3001c94:	eb000094 	bl	a3001eec <printf>
a3001c98:	e5943000 	ldr	r3, [r4]
a3001c9c:	e3530001 	cmp	r3, #1	; 0x1
a3001ca0:	1a000009 	bne	a3001ccc <mutex_lock+0x60>
a3001ca4:	e59f01e0 	ldr	r0, [pc, #480]	; a3001e8c <.text+0x1e8c>
a3001ca8:	e1a01005 	mov	r1, r5
a3001cac:	eb00008e 	bl	a3001eec <printf>
a3001cb0:	e5943000 	ldr	r3, [r4]
a3001cb4:	e3530001 	cmp	r3, #1	; 0x1
a3001cb8:	1a000003 	bne	a3001ccc <mutex_lock+0x60>
a3001cbc:	ebfffdba 	bl	a30013ac <get_cur_tcb>
a3001cc0:	e1a01000 	mov	r1, r0
a3001cc4:	e59f01c4 	ldr	r0, [pc, #452]	; a3001e90 <.text+0x1e90>
a3001cc8:	eb000087 	bl	a3001eec <printf>
a3001ccc:	e3550000 	cmp	r5, #0	; 0x0
a3001cd0:	ba000003 	blt	a3001ce4 <mutex_lock+0x78>
a3001cd4:	e59f31b8 	ldr	r3, [pc, #440]	; a3001e94 <.text+0x1e94>
a3001cd8:	e5933000 	ldr	r3, [r3]
a3001cdc:	e1550003 	cmp	r5, r3
a3001ce0:	da00000a 	ble	a3001d10 <mutex_lock+0xa4>
a3001ce4:	e59f3198 	ldr	r3, [pc, #408]	; a3001e84 <.text+0x1e84>
a3001ce8:	e5933000 	ldr	r3, [r3]
a3001cec:	e3530001 	cmp	r3, #1	; 0x1
a3001cf0:	1a000001 	bne	a3001cfc <mutex_lock+0x90>
a3001cf4:	e59f019c 	ldr	r0, [pc, #412]	; a3001e98 <.text+0x1e98>
a3001cf8:	eb00007b 	bl	a3001eec <printf>
a3001cfc:	e10f3000 	mrs	r3, CPSR
a3001d00:	e3c330c0 	bic	r3, r3, #192	; 0xc0
a3001d04:	e121f003 	msr	CPSR_c, r3
a3001d08:	e3e00015 	mvn	r0, #21	; 0x15
a3001d0c:	e8bd80f0 	ldmia	sp!, {r4, r5, r6, r7, pc}
a3001d10:	e59f6184 	ldr	r6, [pc, #388]	; a3001e9c <.text+0x1e9c>
a3001d14:	e59f7168 	ldr	r7, [pc, #360]	; a3001e84 <.text+0x1e84>
a3001d18:	e7963205 	ldr	r3, [r6, r5, lsl #4]
a3001d1c:	e3530000 	cmp	r3, #0	; 0x0
a3001d20:	1a000035 	bne	a3001dfc <mutex_lock+0x190>
a3001d24:	e5973000 	ldr	r3, [r7]
a3001d28:	e3530001 	cmp	r3, #1	; 0x1
a3001d2c:	1a000001 	bne	a3001d38 <mutex_lock+0xcc>
a3001d30:	e59f0168 	ldr	r0, [pc, #360]	; a3001ea0 <.text+0x1ea0>
a3001d34:	eb00006c 	bl	a3001eec <printf>
a3001d38:	e0865205 	add	r5, r6, r5, lsl #4
a3001d3c:	e5954004 	ldr	r4, [r5, #4]
a3001d40:	ebfffd99 	bl	a30013ac <get_cur_tcb>
a3001d44:	e1540000 	cmp	r4, r0
a3001d48:	1a000009 	bne	a3001d74 <mutex_lock+0x108>
a3001d4c:	e5973000 	ldr	r3, [r7]
a3001d50:	e3530001 	cmp	r3, #1	; 0x1
a3001d54:	1a000001 	bne	a3001d60 <mutex_lock+0xf4>
a3001d58:	e59f0144 	ldr	r0, [pc, #324]	; a3001ea4 <.text+0x1ea4>
a3001d5c:	eb000062 	bl	a3001eec <printf>
a3001d60:	e10f3000 	mrs	r3, CPSR
a3001d64:	e3c330c0 	bic	r3, r3, #192	; 0xc0
a3001d68:	e121f003 	msr	CPSR_c, r3
a3001d6c:	e3e00039 	mvn	r0, #57	; 0x39
a3001d70:	e8bd80f0 	ldmia	sp!, {r4, r5, r6, r7, pc}
a3001d74:	e595400c 	ldr	r4, [r5, #12]
a3001d78:	e5973000 	ldr	r3, [r7]
a3001d7c:	e3540000 	cmp	r4, #0	; 0x0
a3001d80:	1a000006 	bne	a3001da0 <mutex_lock+0x134>
a3001d84:	e3530001 	cmp	r3, #1	; 0x1
a3001d88:	1a000001 	bne	a3001d94 <mutex_lock+0x128>
a3001d8c:	e59f0114 	ldr	r0, [pc, #276]	; a3001ea8 <.text+0x1ea8>
a3001d90:	eb000055 	bl	a3001eec <printf>
a3001d94:	ebfffd84 	bl	a30013ac <get_cur_tcb>
a3001d98:	e585000c 	str	r0, [r5, #12]
a3001d9c:	ea00000e 	b	a3001ddc <mutex_lock+0x170>
a3001da0:	e3530001 	cmp	r3, #1	; 0x1
a3001da4:	15943030 	ldrne	r3, [r4, #48]
a3001da8:	1a000009 	bne	a3001dd4 <mutex_lock+0x168>
a3001dac:	e59f00f8 	ldr	r0, [pc, #248]	; a3001eac <.text+0x1eac>
a3001db0:	eb00004d 	bl	a3001eec <printf>
a3001db4:	e5973000 	ldr	r3, [r7]
a3001db8:	e595400c 	ldr	r4, [r5, #12]
a3001dbc:	e3530001 	cmp	r3, #1	; 0x1
a3001dc0:	e5943030 	ldr	r3, [r4, #48]
a3001dc4:	1a000002 	bne	a3001dd4 <mutex_lock+0x168>
a3001dc8:	e59f00e0 	ldr	r0, [pc, #224]	; a3001eb0 <.text+0x1eb0>
a3001dcc:	e1a01004 	mov	r1, r4
a3001dd0:	eb000045 	bl	a3001eec <printf>
a3001dd4:	ebfffd74 	bl	a30013ac <get_cur_tcb>
a3001dd8:	e5840030 	str	r0, [r4, #48]
a3001ddc:	e59f30a0 	ldr	r3, [pc, #160]	; a3001e84 <.text+0x1e84>
a3001de0:	e5933000 	ldr	r3, [r3]
a3001de4:	e3530001 	cmp	r3, #1	; 0x1
a3001de8:	1a000001 	bne	a3001df4 <mutex_lock+0x188>
a3001dec:	e59f00c0 	ldr	r0, [pc, #192]	; a3001eb4 <.text+0x1eb4>
a3001df0:	eb00003d 	bl	a3001eec <printf>
a3001df4:	ebfffdaf 	bl	a30014b8 <dispatch_sleep>
a3001df8:	ea00001c 	b	a3001e70 <mutex_lock+0x204>
a3001dfc:	e5973000 	ldr	r3, [r7]
a3001e00:	e3530001 	cmp	r3, #1	; 0x1
a3001e04:	1a000001 	bne	a3001e10 <mutex_lock+0x1a4>
a3001e08:	e59f00a8 	ldr	r0, [pc, #168]	; a3001eb8 <.text+0x1eb8>
a3001e0c:	eb000036 	bl	a3001eec <printf>
a3001e10:	e3a03000 	mov	r3, #0	; 0x0
a3001e14:	e0864205 	add	r4, r6, r5, lsl #4
a3001e18:	e7863205 	str	r3, [r6, r5, lsl #4]
a3001e1c:	e2833001 	add	r3, r3, #1	; 0x1
a3001e20:	e5843008 	str	r3, [r4, #8]
a3001e24:	ebfffd60 	bl	a30013ac <get_cur_tcb>
a3001e28:	e5840004 	str	r0, [r4, #4]
a3001e2c:	ebfffd5e 	bl	a30013ac <get_cur_tcb>
a3001e30:	e5972000 	ldr	r2, [r7]
a3001e34:	e590302c 	ldr	r3, [r0, #44]
a3001e38:	e3520001 	cmp	r2, #1	; 0x1
a3001e3c:	e2833001 	add	r3, r3, #1	; 0x1
a3001e40:	e580302c 	str	r3, [r0, #44]
a3001e44:	1a000009 	bne	a3001e70 <mutex_lock+0x204>
a3001e48:	e5941004 	ldr	r1, [r4, #4]
a3001e4c:	e59f0068 	ldr	r0, [pc, #104]	; a3001ebc <.text+0x1ebc>
a3001e50:	eb000025 	bl	a3001eec <printf>
a3001e54:	e5973000 	ldr	r3, [r7]
a3001e58:	e3530001 	cmp	r3, #1	; 0x1
a3001e5c:	1a000003 	bne	a3001e70 <mutex_lock+0x204>
a3001e60:	ebfffd51 	bl	a30013ac <get_cur_tcb>
a3001e64:	e590102c 	ldr	r1, [r0, #44]
a3001e68:	e59f0050 	ldr	r0, [pc, #80]	; a3001ec0 <.text+0x1ec0>
a3001e6c:	eb00001e 	bl	a3001eec <printf>
a3001e70:	e10f3000 	mrs	r3, CPSR
a3001e74:	e3c330c0 	bic	r3, r3, #192	; 0xc0
a3001e78:	e121f003 	msr	CPSR_c, r3
a3001e7c:	e3a00000 	mov	r0, #0	; 0x0
a3001e80:	e8bd80f0 	ldmia	sp!, {r4, r5, r6, r7, pc}
a3001e84:	a3002e40 	movwge	r2, #3648	; 0xe40
a3001e88:	a3002c10 	movwge	r2, #3088	; 0xc10
a3001e8c:	a3002c30 	movwge	r2, #3120	; 0xc30
a3001e90:	a3002c58 	movwge	r2, #3160	; 0xc58
a3001e94:	a30447b0 	movwge	r4, #18352	; 0x47b0
a3001e98:	a3002c80 	movwge	r2, #3200	; 0xc80
a3001e9c:	a30445b0 	movwge	r4, #17840	; 0x45b0
a3001ea0:	a3002ca8 	movwge	r2, #3240	; 0xca8
a3001ea4:	a3002cd0 	movwge	r2, #3280	; 0xcd0
a3001ea8:	a3002cf0 	movwge	r2, #3312	; 0xcf0
a3001eac:	a3002d18 	movwge	r2, #3352	; 0xd18
a3001eb0:	a3002d50 	movwge	r2, #3408	; 0xd50
a3001eb4:	a3002d80 	movwge	r2, #3456	; 0xd80
a3001eb8:	a3002db8 	movwge	r2, #3512	; 0xdb8
a3001ebc:	a3002de0 	movwge	r2, #3552	; 0xde0
a3001ec0:	a3002e10 	movwge	r2, #3600	; 0xe10

a3001ec4 <dummy>:
a3001ec4:	e598c020 	ldr	ip, [r8, #32]
a3001ec8:	e59cf000 	ldr	pc, [ip]

a3001ecc <getc>:
a3001ecc:	e598c020 	ldr	ip, [r8, #32]
a3001ed0:	e59cf004 	ldr	pc, [ip, #4]

a3001ed4 <tstc>:
a3001ed4:	e598c020 	ldr	ip, [r8, #32]
a3001ed8:	e59cf008 	ldr	pc, [ip, #8]

a3001edc <putc>:
a3001edc:	e598c020 	ldr	ip, [r8, #32]
a3001ee0:	e59cf00c 	ldr	pc, [ip, #12]

a3001ee4 <puts>:
a3001ee4:	e598c020 	ldr	ip, [r8, #32]
a3001ee8:	e59cf010 	ldr	pc, [ip, #16]

a3001eec <printf>:
a3001eec:	e598c020 	ldr	ip, [r8, #32]
a3001ef0:	e59cf014 	ldr	pc, [ip, #20]

a3001ef4 <install_hdlr>:
a3001ef4:	e598c020 	ldr	ip, [r8, #32]
a3001ef8:	e59cf018 	ldr	pc, [ip, #24]

a3001efc <free_hdlr>:
a3001efc:	e598c020 	ldr	ip, [r8, #32]
a3001f00:	e59cf01c 	ldr	pc, [ip, #28]

a3001f04 <malloc>:
a3001f04:	e598c020 	ldr	ip, [r8, #32]
a3001f08:	e59cf020 	ldr	pc, [ip, #32]

a3001f0c <free>:
a3001f0c:	e598c020 	ldr	ip, [r8, #32]
a3001f10:	e59cf024 	ldr	pc, [ip, #36]

a3001f14 <udelay>:
a3001f14:	e598c020 	ldr	ip, [r8, #32]
a3001f18:	e59cf028 	ldr	pc, [ip, #40]

a3001f1c <get_timer>:
a3001f1c:	e598c020 	ldr	ip, [r8, #32]
a3001f20:	e59cf02c 	ldr	pc, [ip, #44]

a3001f24 <vprintf>:
a3001f24:	e598c020 	ldr	ip, [r8, #32]
a3001f28:	e59cf030 	ldr	pc, [ip, #48]

a3001f2c <do_reset>:
a3001f2c:	e598c020 	ldr	ip, [r8, #32]
a3001f30:	e59cf034 	ldr	pc, [ip, #52]

a3001f34 <getenv>:
a3001f34:	e598c020 	ldr	ip, [r8, #32]
a3001f38:	e59cf038 	ldr	pc, [ip, #56]

a3001f3c <setenv>:
a3001f3c:	e598c020 	ldr	ip, [r8, #32]
a3001f40:	e59cf03c 	ldr	pc, [ip, #60]

a3001f44 <simple_strtoul>:
a3001f44:	e598c020 	ldr	ip, [r8, #32]
a3001f48:	e59cf040 	ldr	pc, [ip, #64]

a3001f4c <app_startup>:
a3001f4c:	e59f2018 	ldr	r2, [pc, #24]	; a3001f6c <.text+0x1f6c>
a3001f50:	ea000001 	b	a3001f5c <app_startup+0x10>
a3001f54:	e3a03000 	mov	r3, #0	; 0x0
a3001f58:	e4823004 	str	r3, [r2], #4
a3001f5c:	e59f300c 	ldr	r3, [pc, #12]	; a3001f70 <.text+0x1f70>
a3001f60:	e1520003 	cmp	r2, r3
a3001f64:	3afffffa 	bcc	a3001f54 <app_startup+0x8>
a3001f68:	e12fff1e 	bx	lr
a3001f6c:	a3002e40 	movwge	r2, #3648	; 0xe40
a3001f70:	a30447b4 	movwge	r4, #18356	; 0x47b4
Disassembly of section .rodata:

a3001f78 <dev_freq-0x454>:
a3001f78:	46455250 	undefined
a3001f7c:	48435445 	stmmida	r3, {r0, r2, r6, sl, ip, lr}^
a3001f80:	4f424120 	svcmi	0x00424120
a3001f84:	2d205452 	cfstrscs	mvf5, [r0, #-328]!
a3001f88:	75616320 	strvcb	r6, [r1, #-800]!
a3001f8c:	20646573 	rsbcs	r6, r4, r3, ror r5
a3001f90:	70207962 	eorvc	r7, r0, r2, ror #18
a3001f94:	203d2063 	eorcss	r2, sp, r3, rrx
a3001f98:	30257830 	eorcc	r7, r5, r0, lsr r8
a3001f9c:	000a7838 	andeq	r7, sl, r8, lsr r8
a3001fa0:	69676552 	stmvsdb	r7!, {r1, r4, r6, r8, sl, sp, lr}^
a3001fa4:	72657473 	rsbvc	r7, r5, #1929379840	; 0x73000000
a3001fa8:	720a3a73 	andvc	r3, sl, #471040	; 0x73000
a3001fac:	30203a30 	eorcc	r3, r0, r0, lsr sl
a3001fb0:	38302578 	ldmccda	r0!, {r3, r4, r5, r6, r8, sl, sp}
a3001fb4:	72202c78 	eorvc	r2, r0, #30720	; 0x7800
a3001fb8:	30203a31 	eorcc	r3, r0, r1, lsr sl
a3001fbc:	38302578 	ldmccda	r0!, {r3, r4, r5, r6, r8, sl, sp}
a3001fc0:	72202c78 	eorvc	r2, r0, #30720	; 0x7800
a3001fc4:	30203a32 	eorcc	r3, r0, r2, lsr sl
a3001fc8:	38302578 	ldmccda	r0!, {r3, r4, r5, r6, r8, sl, sp}
a3001fcc:	72202c78 	eorvc	r2, r0, #30720	; 0x7800
a3001fd0:	30203a33 	eorcc	r3, r0, r3, lsr sl
a3001fd4:	38302578 	ldmccda	r0!, {r3, r4, r5, r6, r8, sl, sp}
a3001fd8:	720a2c78 	andvc	r2, sl, #30720	; 0x7800
a3001fdc:	30203a34 	eorcc	r3, r0, r4, lsr sl
a3001fe0:	38302578 	ldmccda	r0!, {r3, r4, r5, r6, r8, sl, sp}
a3001fe4:	72202c78 	eorvc	r2, r0, #30720	; 0x7800
a3001fe8:	30203a35 	eorcc	r3, r0, r5, lsr sl
a3001fec:	38302578 	ldmccda	r0!, {r3, r4, r5, r6, r8, sl, sp}
a3001ff0:	72202c78 	eorvc	r2, r0, #30720	; 0x7800
a3001ff4:	30203a36 	eorcc	r3, r0, r6, lsr sl
a3001ff8:	38302578 	ldmccda	r0!, {r3, r4, r5, r6, r8, sl, sp}
a3001ffc:	72202c78 	eorvc	r2, r0, #30720	; 0x7800
a3002000:	30203a37 	eorcc	r3, r0, r7, lsr sl
a3002004:	38302578 	ldmccda	r0!, {r3, r4, r5, r6, r8, sl, sp}
a3002008:	000a2c78 	andeq	r2, sl, r8, ror ip
a300200c:	00000000 	andeq	r0, r0, r0
a3002010:	203a3872 	eorcss	r3, sl, r2, ror r8
a3002014:	30257830 	eorcc	r7, r5, r0, lsr r8
a3002018:	202c7838 	eorcs	r7, ip, r8, lsr r8
a300201c:	203a3972 	eorcss	r3, sl, r2, ror r9
a3002020:	30257830 	eorcc	r7, r5, r0, lsr r8
a3002024:	202c7838 	eorcs	r7, ip, r8, lsr r8
a3002028:	3a303172 	bcc	a3c0e5f8 <__bss_end__+0xbc9e44>
a300202c:	25783020 	ldrcsb	r3, [r8, #-32]!
a3002030:	2c783830 	ldccsl	8, cr3, [r8], #-192
a3002034:	31317220 	teqcc	r1, r0, lsr #4
a3002038:	7830203a 	ldmvcda	r0!, {r1, r3, r4, r5, sp}
a300203c:	78383025 	ldmvcda	r8!, {r0, r2, r5, ip, sp}
a3002040:	31720a2c 	cmncc	r2, ip, lsr #20
a3002044:	30203a32 	eorcc	r3, r0, r2, lsr sl
a3002048:	38302578 	ldmccda	r0!, {r3, r4, r5, r6, r8, sl, sp}
a300204c:	00202c78 	eoreq	r2, r0, r8, ror ip
a3002050:	203a726c 	eorcss	r7, sl, ip, ror #4
a3002054:	30257830 	eorcc	r7, r5, r0, lsr r8
a3002058:	202c7838 	eorcs	r7, ip, r8, lsr r8
a300205c:	203a7073 	eorcss	r7, sl, r3, ror r0
a3002060:	30257830 	eorcc	r7, r5, r0, lsr r8
a3002064:	202c7838 	eorcs	r7, ip, r8, lsr r8
a3002068:	72737063 	rsbvcs	r7, r3, #99	; 0x63
a300206c:	7830203a 	ldmvcda	r0!, {r1, r3, r4, r5, sp}
a3002070:	78383025 	ldmvcda	r8!, {r0, r2, r5, ip, sp}
a3002074:	0000000a 	andeq	r0, r0, sl
a3002078:	494e4150 	stmmidb	lr, {r4, r6, r8, lr}^
a300207c:	00002143 	andeq	r2, r0, r3, asr #2
a3002080:	6e72654b 	cdpvs	5, 7, cr6, cr2, cr11, {2}
a3002084:	69206c65 	stmvsdb	r0!, {r0, r2, r5, r6, sl, fp, sp, lr}
a3002088:	6174696e 	cmnvs	r4, lr, ror #18
a300208c:	617a696c 	cmnvs	sl, ip, ror #18
a3002090:	6e6f6974 	mcrvs	9, 3, r6, cr15, cr4, {3}
a3002094:	0a2e2e2e 	beq	a3b8d954 <__bss_end__+0xb491a0>
	...
a30020a0:	69726957 	ldmvsdb	r2!, {r0, r1, r2, r4, r6, r8, fp, sp, lr}^
a30020a4:	6920676e 	stmvsdb	r0!, {r1, r2, r3, r5, r6, r8, r9, sl, sp, lr}
a30020a8:	6261206e 	rsbvs	r2, r1, #110	; 0x6e
a30020ac:	2074726f 	rsbcss	r7, r4, pc, ror #4
a30020b0:	646e6168 	strvsbt	r6, [lr], #-360
a30020b4:	2e72656c 	cdpcs	5, 7, cr6, cr2, cr12, {3}
a30020b8:	000a2e2e 	andeq	r2, sl, lr, lsr #28
a30020bc:	00000000 	andeq	r0, r0, r0
a30020c0:	2072646c 	rsbcss	r6, r2, ip, ror #8
a30020c4:	202c6370 	eorcs	r6, ip, r0, ror r3
a30020c8:	2c63705b 	stccsl	0, cr7, [r3], #-364
a30020cc:	6d692320 	stcvsl	3, cr2, [r9, #-128]!
a30020d0:	5d64656d 	cfstr64pl	mvdx6, [r4, #-436]!
a30020d4:	746f6e20 	strvcbt	r6, [pc], #3616	; a30020dc <.rodata+0x164>
a30020d8:	636e6520 	cmnvs	lr, #134217728	; 0x8000000
a30020dc:	746e756f 	strvcbt	r7, [lr], #-1391
a30020e0:	64657265 	strvsbt	r7, [r5], #-613
a30020e4:	20746120 	rsbcss	r6, r4, r0, lsr #2
a30020e8:	202e6425 	eorcs	r6, lr, r5, lsr #8
a30020ec:	74697845 	strvcbt	r7, [r9], #-2117
a30020f0:	2e676e69 	cdpcs	14, 6, cr6, cr7, cr9, {3}
a30020f4:	0000000a 	andeq	r0, r0, sl
a30020f8:	74746553 	ldrvcbt	r6, [r4], #-1363
a30020fc:	20676e69 	rsbcs	r6, r7, r9, ror #28
a3002100:	61207075 	teqvs	r0, r5, ror r0
a3002104:	74726f62 	ldrvcbt	r6, [r2], #-3938
a3002108:	61747320 	cmnvs	r4, r0, lsr #6
a300210c:	2e2e6b63 	fnmuldcs	d6, d14, d19
a3002110:	00000a2e 	andeq	r0, r0, lr, lsr #20
a3002114:	00000000 	andeq	r0, r0, r0
a3002118:	69726957 	ldmvsdb	r2!, {r0, r1, r2, r4, r6, r8, fp, sp, lr}^
a300211c:	6920676e 	stmvsdb	r0!, {r1, r2, r3, r5, r6, r8, r9, sl, sp, lr}
a3002120:	7773206e 	ldrvcb	r2, [r3, -lr, rrx]!
a3002124:	61682069 	cmnvs	r8, r9, rrx
a3002128:	656c646e 	strvsb	r6, [ip, #-1134]!
a300212c:	2e2e2e72 	mcrcs	14, 1, r2, cr14, cr2, {3}
a3002130:	0000000a 	andeq	r0, r0, sl
a3002134:	00000000 	andeq	r0, r0, r0
a3002138:	69726957 	ldmvsdb	r2!, {r0, r1, r2, r4, r6, r8, fp, sp, lr}^
a300213c:	6920676e 	stmvsdb	r0!, {r1, r2, r3, r5, r6, r8, r9, sl, sp, lr}
a3002140:	7269206e 	rsbvc	r2, r9, #110	; 0x6e
a3002144:	61682071 	smcvs	33281
a3002148:	656c646e 	strvsb	r6, [ip, #-1134]!
a300214c:	2e2e2e72 	mcrcs	14, 1, r2, cr14, cr2, {3}
a3002150:	0000000a 	andeq	r0, r0, sl
a3002154:	00000000 	andeq	r0, r0, r0
a3002158:	74696e49 	strvcbt	r6, [r9], #-3657
a300215c:	696c6169 	stmvsdb	ip!, {r0, r3, r5, r6, r8, sp, lr}^
a3002160:	676e697a 	undefined
a3002164:	6d697420 	cfstrdvs	mvd7, [r9, #-128]!
a3002168:	2e737265 	cdpcs	2, 7, cr7, cr3, cr5, {3}
a300216c:	000a2e2e 	andeq	r2, sl, lr, lsr #28
a3002170:	74746553 	ldrvcbt	r6, [r4], #-1363
a3002174:	20676e69 	rsbcs	r6, r7, r9, ror #28
a3002178:	73207075 	teqvc	r0, #117	; 0x75
a300217c:	6b636174 	blvs	a48da754 <__bss_end__+0x1895fa0>
a3002180:	0a2e2e2e 	beq	a3b8da40 <__bss_end__+0xb4928c>
a3002184:	00000000 	andeq	r0, r0, r0
a3002188:	72617453 	rsbvc	r7, r1, #1392508928	; 0x53000000
a300218c:	676e6974 	undefined
a3002190:	65737520 	ldrvsb	r7, [r3, #-1312]!
a3002194:	72702072 	rsbvcs	r2, r0, #114	; 0x72
a3002198:	2e2e676f 	cdpcs	7, 2, cr6, cr14, cr15, {3}
a300219c:	00000a2e 	andeq	r0, r0, lr, lsr #20
a30021a0:	6c6c694b 	stcvsl	9, cr6, [ip], #-300
a30021a4:	20676e69 	rsbcs	r6, r7, r9, ror #28
a30021a8:	656d6974 	strvsb	r6, [sp, #-2420]!
a30021ac:	2e2e7372 	mcrcs	3, 1, r7, cr14, cr2, {3}
a30021b0:	00000a2e 	andeq	r0, r0, lr, lsr #20
a30021b4:	00000000 	andeq	r0, r0, r0
a30021b8:	74736552 	ldrvcbt	r6, [r3], #-1362
a30021bc:	6e69726f 	cdpvs	2, 6, cr7, cr9, cr15, {3}
a30021c0:	61682067 	cmnvs	r8, r7, rrx
a30021c4:	656c646e 	strvsb	r6, [ip, #-1134]!
a30021c8:	2e2e7372 	mcrcs	3, 1, r7, cr14, cr2, {3}
a30021cc:	00000a2e 	andeq	r0, r0, lr, lsr #20
a30021d0:	74697845 	strvcbt	r7, [r9], #-2117
a30021d4:	20676e69 	rsbcs	r6, r7, r9, ror #28
a30021d8:	6e72656b 	cdpvs	5, 7, cr6, cr2, cr11, {3}
a30021dc:	0a2e6c65 	beq	a3b9d378 <__bss_end__+0xb58bc4>
	...
a30021e8:	69766944 	ldmvsdb	r6!, {r2, r6, r8, fp, sp, lr}^
a30021ec:	62206564 	eorvs	r6, r0, #419430400	; 0x19000000
a30021f0:	657a2079 	ldrvsb	r2, [sl, #-121]!
a30021f4:	2d206f72 	stccs	15, cr6, [r0, #-456]!
a30021f8:	6e49202d 	cdpvs	0, 4, cr2, cr9, cr13, {1}
a30021fc:	72656b20 	rsbvc	r6, r5, #32768	; 0x8000
a3002200:	0a6c656e 	beq	a4b1b7c0 <__bss_end__+0x1ad700c>
a3002204:	00000000 	andeq	r0, r0, r0
a3002208:	2d2d2d2e 	stccs	13, cr2, [sp, #-184]!
a300220c:	2d2d2d2d 	stccs	13, cr2, [sp, #-180]!
a3002210:	2d2d2d2d 	stccs	13, cr2, [sp, #-180]!
a3002214:	2d2d2d2d 	stccs	13, cr2, [sp, #-180]!
a3002218:	2d2d2d2d 	stccs	13, cr2, [sp, #-180]!
a300221c:	2d2d2d2d 	stccs	13, cr2, [sp, #-180]!
a3002220:	2d2d2d2d 	stccs	13, cr2, [sp, #-180]!
a3002224:	2d2d2d2d 	stccs	13, cr2, [sp, #-180]!
a3002228:	2d2d2d2d 	stccs	13, cr2, [sp, #-180]!
a300222c:	2d2d2d2d 	stccs	13, cr2, [sp, #-180]!
a3002230:	2d2d2d2d 	stccs	13, cr2, [sp, #-180]!
a3002234:	2d2d2d2d 	stccs	13, cr2, [sp, #-180]!
a3002238:	2d2d2d2d 	stccs	13, cr2, [sp, #-180]!
a300223c:	2d2d2d2d 	stccs	13, cr2, [sp, #-180]!
a3002240:	2d2d2d2d 	stccs	13, cr2, [sp, #-180]!
a3002244:	2d2d2d2d 	stccs	13, cr2, [sp, #-180]!
a3002248:	2d2d2d2d 	stccs	13, cr2, [sp, #-180]!
a300224c:	2d2d2d2d 	stccs	13, cr2, [sp, #-180]!
a3002250:	2d2d2d2d 	stccs	13, cr2, [sp, #-180]!
a3002254:	00000a2e 	andeq	r0, r0, lr, lsr #20
a3002258:	3025207c 	eorcc	r2, r5, ip, ror r0
a300225c:	20786c38 	rsbcss	r6, r8, r8, lsr ip
a3002260:	20202020 	eorcs	r2, r0, r0, lsr #32
a3002264:	00000020 	andeq	r0, r0, r0, lsr #32
a3002268:	00000020 	andeq	r0, r0, r0, lsr #32
a300226c:	00000000 	andeq	r0, r0, r0
a3002270:	00002020 	andeq	r2, r0, r0, lsr #32
a3002274:	00000000 	andeq	r0, r0, r0
a3002278:	78323025 	ldmvcda	r2!, {r0, r2, r5, ip, sp}
a300227c:	00000000 	andeq	r0, r0, r0
a3002280:	20202020 	eorcs	r2, r0, r0, lsr #32
a3002284:	00202020 	eoreq	r2, r0, r0, lsr #32
a3002288:	00006325 	andeq	r6, r0, r5, lsr #6
a300228c:	00000000 	andeq	r0, r0, r0
a3002290:	000a7c20 	andeq	r7, sl, r0, lsr #24
a3002294:	00000000 	andeq	r0, r0, r0
a3002298:	2d2d2d60 	stccs	13, cr2, [sp, #-384]!
a300229c:	2d2d2d2d 	stccs	13, cr2, [sp, #-180]!
a30022a0:	2d2d2d2d 	stccs	13, cr2, [sp, #-180]!
a30022a4:	2d2d2d2d 	stccs	13, cr2, [sp, #-180]!
a30022a8:	2d2d2d2d 	stccs	13, cr2, [sp, #-180]!
a30022ac:	2d2d2d2d 	stccs	13, cr2, [sp, #-180]!
a30022b0:	2d2d2d2d 	stccs	13, cr2, [sp, #-180]!
a30022b4:	2d2d2d2d 	stccs	13, cr2, [sp, #-180]!
a30022b8:	2d2d2d2d 	stccs	13, cr2, [sp, #-180]!
a30022bc:	2d2d2d2d 	stccs	13, cr2, [sp, #-180]!
a30022c0:	2d2d2d2d 	stccs	13, cr2, [sp, #-180]!
a30022c4:	2d2d2d2d 	stccs	13, cr2, [sp, #-180]!
a30022c8:	2d2d2d2d 	stccs	13, cr2, [sp, #-180]!
a30022cc:	2d2d2d2d 	stccs	13, cr2, [sp, #-180]!
a30022d0:	2d2d2d2d 	stccs	13, cr2, [sp, #-180]!
a30022d4:	2d2d2d2d 	stccs	13, cr2, [sp, #-180]!
a30022d8:	2d2d2d2d 	stccs	13, cr2, [sp, #-180]!
a30022dc:	2d2d2d2d 	stccs	13, cr2, [sp, #-180]!
a30022e0:	2d2d2d2d 	stccs	13, cr2, [sp, #-180]!
a30022e4:	00000a27 	andeq	r0, r0, r7, lsr #20
a30022e8:	6e696e75 	mcrvs	14, 3, r6, cr9, cr5, {3}
a30022ec:	6c617473 	cfstrdvs	mvd7, [r1], #-460
a30022f0:	676e696c 	strvsb	r6, [lr, -ip, ror #18]!
a30022f4:	71726920 	cmnvc	r2, r0, lsr #18
a30022f8:	0a2e2e2e 	beq	a3b8dbb8 <__bss_end__+0xb49404>
a30022fc:	00000000 	andeq	r0, r0, r0
a3002300:	6e696e75 	mcrvs	14, 3, r6, cr9, cr5, {3}
a3002304:	6c617473 	cfstrdvs	mvd7, [r1], #-460
a3002308:	676e696c 	strvsb	r6, [lr, -ip, ror #18]!
a300230c:	69777320 	ldmvsdb	r7!, {r5, r8, r9, ip, sp, lr}^
a3002310:	0a2e2e2e 	beq	a3b8dbd0 <__bss_end__+0xb4941c>
a3002314:	00000000 	andeq	r0, r0, r0
a3002318:	6e696e75 	mcrvs	14, 3, r6, cr9, cr5, {3}
a300231c:	6c617473 	cfstrdvs	mvd7, [r1], #-460
a3002320:	676e696c 	strvsb	r6, [lr, -ip, ror #18]!
a3002324:	74626120 	strvcbt	r6, [r2], #-288
a3002328:	0a2e2e2e 	beq	a3b8dbe8 <__bss_end__+0xb49434>
a300232c:	00000000 	andeq	r0, r0, r0
a3002330:	5f766564 	svcpl	0x00766564
a3002334:	61647075 	smcvs	18181
a3002338:	3a3a6574 	bcc	a3e9b910 <__bss_end__+0xe5715c>
a300233c:	696b6177 	stmvsdb	fp!, {r0, r1, r2, r4, r5, r6, r8, sp, lr}^
a3002340:	7520676e 	strvc	r6, [r0, #-1902]!
a3002344:	64252070 	strvst	r2, [r5], #-112
a3002348:	0000000a 	andeq	r0, r0, sl
a300234c:	00000000 	andeq	r0, r0, r0
a3002350:	5f766564 	svcpl	0x00766564
a3002354:	61647075 	smcvs	18181
a3002358:	2e2e6574 	mcrcs	5, 1, r6, cr14, cr4, {3}
a300235c:	7665642e 	strvcbt	r6, [r5], -lr, lsr #8
a3002360:	25203d20 	strcs	r3, [r0, #-3360]!
a3002364:	3a3a3a64 	bcc	a3e90cfc <__bss_end__+0xe4c548>
a3002368:	656b6f77 	strvsb	r6, [fp, #-3959]!
a300236c:	20707520 	rsbcss	r7, r0, r0, lsr #10
a3002370:	69727028 	ldmvsdb	r2!, {r3, r5, ip, sp, lr}^
a3002374:	203d296f 	eorcss	r2, sp, pc, ror #18
a3002378:	3a3a6425 	bcc	a3e9b414 <__bss_end__+0xe56c60>
a300237c:	7478656e 	ldrvcbt	r6, [r8], #-1390
a3002380:	20203d20 	eorcs	r3, r0, r0, lsr #26
a3002384:	000a7825 	andeq	r7, sl, r5, lsr #16
a3002388:	5f766564 	svcpl	0x00766564
a300238c:	74696177 	strvcbt	r6, [r9], #-375
a3002390:	000a2b2b 	andeq	r2, sl, fp, lsr #22
a3002394:	00000000 	andeq	r0, r0, r0
a3002398:	5f766564 	svcpl	0x00766564
a300239c:	74696177 	strvcbt	r6, [r9], #-375
a30023a0:	642e2e2e 	strvst	r2, [lr], #-3630
a30023a4:	3d207665 	stccc	6, cr7, [r0, #-404]!
a30023a8:	3a642520 	bcc	a490b830 <__bss_end__+0x18c707c>
a30023ac:	656e3a3a 	strvsb	r3, [lr, #-2618]!
a30023b0:	203d2077 	eorcss	r2, sp, r7, ror r0
a30023b4:	69727028 	ldmvsdb	r2!, {r3, r5, ip, sp, lr}^
a30023b8:	2520296f 	strcs	r2, [r0, #-2415]!
a30023bc:	3a3a3a64 	bcc	a3e90d54 <__bss_end__+0xe4c5a0>
a30023c0:	20646c6f 	rsbcs	r6, r4, pc, ror #24
a30023c4:	7825203d 	stmvcda	r5!, {r0, r2, r3, r4, r5, sp}
a30023c8:	0000000a 	andeq	r0, r0, sl

a30023cc <dev_freq>:
a30023cc:	00000064 	andeq	r0, r0, r4, rrx
a30023d0:	000000c8 	andeq	r0, r0, r8, asr #1
a30023d4:	000001f4 	streqd	r0, [r0], -r4
a30023d8:	00000032 	andeq	r0, r0, r2, lsr r0
a30023dc:	00000000 	andeq	r0, r0, r0
a30023e0:	656b5f63 	strvsb	r5, [fp, #-3939]!
a30023e4:	6c656e72 	stcvsl	14, cr6, [r5], #-456
a30023e8:	6974755f 	ldmvsdb	r4!, {r0, r1, r2, r3, r4, r6, r8, sl, ip, sp, lr}^
a30023ec:	693a3a6c 	ldmvsdb	sl!, {r2, r3, r5, r6, r9, fp, ip, sp}
a30023f0:	6974696e 	ldmvsdb	r4!, {r1, r2, r3, r5, r6, r8, fp, sp, lr}^
a30023f4:	657a696c 	ldrvsb	r6, [sl, #-2412]!
a30023f8:	6d69745f 	cfstrdvs	mvd7, [r9, #-380]!
a30023fc:	3a3a7265 	bcc	a3e9ed98 <__bss_end__+0xe5a5e4>
a3002400:	2e2e2b2b 	fmuldcs	d2, d14, d27
a3002404:	00000a2e 	andeq	r0, r0, lr, lsr #20
a3002408:	656b5f63 	strvsb	r5, [fp, #-3939]!
a300240c:	6c656e72 	stcvsl	14, cr6, [r5], #-456
a3002410:	6974755f 	ldmvsdb	r4!, {r0, r1, r2, r3, r4, r6, r8, sl, ip, sp, lr}^
a3002414:	753a3a6c 	ldrvc	r3, [sl, #-2668]!
a3002418:	696e696e 	stmvsdb	lr!, {r1, r2, r3, r5, r6, r8, fp, sp, lr}^
a300241c:	696c6974 	stmvsdb	ip!, {r2, r4, r5, r6, r8, fp, sp, lr}^
a3002420:	745f657a 	ldrvcb	r6, [pc], #1402	; a3002428 <dev_freq+0x5c>
a3002424:	72656d69 	rsbvc	r6, r5, #6720	; 0x1a40
a3002428:	2d2d3a3a 	fstmdbscs	sp!, {s6-s63}
a300242c:	0a2e2e2e 	beq	a3b8dcec <__bss_end__+0xb49538>
	...
a3002438:	77735f63 	ldrvcb	r5, [r3, -r3, ror #30]!
a300243c:	61685f69 	cmnvs	r8, r9, ror #30
a3002440:	656c646e 	strvsb	r6, [ip, #-1134]!
a3002444:	203a3a72 	eorcss	r3, sl, r2, ror sl
a3002448:	5f697773 	svcpl	0x00697773
a300244c:	206d756e 	rsbcs	r7, sp, lr, ror #10
a3002450:	6425203d 	strvst	r2, [r5], #-61
a3002454:	0000000a 	andeq	r0, r0, sl
a3002458:	72775f63 	rsbvcs	r5, r7, #396	; 0x18c
a300245c:	3a657469 	bcc	a495f608 <__bss_end__+0x191ae54>
a3002460:	4245203a 	submi	r2, r5, #58	; 0x3a
a3002464:	0a464441 	beq	a4193570 <__bss_end__+0x114edbc>
	...
a3002470:	72775f63 	rsbvcs	r5, r7, #396	; 0x18c
a3002474:	3a657469 	bcc	a495f620 <__bss_end__+0x191ae6c>
a3002478:	4645203a 	undefined
a300247c:	544c5541 	strplb	r5, [ip], #-1345
a3002480:	0000000a 	andeq	r0, r0, sl
a3002484:	00000000 	andeq	r0, r0, r0
a3002488:	00082008 	andeq	r2, r8, r8
a300248c:	00000000 	andeq	r0, r0, r0
a3002490:	6e72654b 	cdpvs	5, 7, cr6, cr2, cr11, {2}
a3002494:	70206c65 	eorvc	r6, r0, r5, ror #24
a3002498:	63696e61 	cmnvs	r9, #1552	; 0x610
a300249c:	6e69203a 	mcrvs	0, 3, r2, cr9, cr10, {1}
a30024a0:	696c6176 	stmvsdb	ip!, {r1, r2, r4, r5, r6, r8, sp, lr}^
a30024a4:	79732064 	ldmvcdb	r3!, {r2, r5, r6, sp}^
a30024a8:	6c616373 	stcvsl	3, cr6, [r1], #-460
a30024ac:	2d2d206c 	stccs	0, cr2, [sp, #-432]!
a30024b0:	25783020 	ldrcsb	r3, [r8, #-32]!
a30024b4:	0a783830 	beq	a4e1057c <__bss_end__+0x1dcbdc8>
	...
a30024c0:	6b736174 	blvs	a4cdaa98 <__bss_end__+0x1c962e4>
a30024c4:	6572635f 	ldrvsb	r6, [r2, #-863]!
a30024c8:	2b657461 	blcs	a495f654 <__bss_end__+0x191aea0>
a30024cc:	00000a2b 	andeq	r0, r0, fp, lsr #20
a30024d0:	6b736174 	blvs	a4cdaaa8 <__bss_end__+0x1c962f4>
a30024d4:	6572635f 	ldrvsb	r6, [r2, #-863]!
a30024d8:	2e657461 	cdpcs	4, 6, cr7, cr5, cr1, {3}
a30024dc:	69642e2e 	stmvsdb	r4!, {r1, r2, r3, r5, r9, sl, fp, sp}^
a30024e0:	74617073 	strvcbt	r7, [r1], #-115
a30024e4:	6e696863 	cdpvs	8, 6, cr6, cr9, cr3, {3}
a30024e8:	00000a67 	andeq	r0, r0, r7, ror #20
a30024ec:	00000000 	andeq	r0, r0, r0
a30024f0:	6e657665 	cdpvs	6, 6, cr7, cr5, cr5, {3}
a30024f4:	61772074 	cmnvs	r7, r4, ror r0
a30024f8:	2b2b7469 	blcs	a3adf6a4 <__bss_end__+0xa9aef0>
a30024fc:	0000000a 	andeq	r0, r0, sl
a3002500:	6e657665 	cdpvs	6, 6, cr7, cr5, cr5, {3}
a3002504:	61772074 	cmnvs	r7, r4, ror r0
a3002508:	2e2e7469 	cdpcs	4, 2, cr7, cr14, cr9, {3}
a300250c:	7369642e 	cmnvc	r9, #771751936	; 0x2e000000
a3002510:	63746170 	cmnvs	r4, #28	; 0x1c
a3002514:	676e6968 	strvsb	r6, [lr, -r8, ror #18]!
a3002518:	656c735f 	strvsb	r7, [ip, #-863]!
a300251c:	000a7065 	andeq	r7, sl, r5, rrx
a3002520:	6f6c6c61 	svcvs	0x006c6c61
a3002524:	65746163 	ldrvsb	r6, [r4, #-355]!
a3002528:	7361745f 	cmnvc	r1, #1593835520	; 0x5f000000
a300252c:	2e2e736b 	cdpcs	3, 2, cr7, cr14, cr11, {3}
a3002530:	0a2b2b2e 	beq	a3acd1f0 <__bss_end__+0xa88a3c>
a3002534:	00000000 	andeq	r0, r0, r0
a3002538:	6f6c6c61 	svcvs	0x006c6c61
a300253c:	65746163 	ldrvsb	r6, [r4, #-355]!
a3002540:	7361745f 	cmnvc	r1, #1593835520	; 0x5f000000
a3002544:	2e2e736b 	cdpcs	3, 2, cr7, cr14, cr11, {3}
a3002548:	746e652e 	strvcbt	r6, [lr], #-1326
a300254c:	6e697265 	cdpvs	2, 6, cr7, cr9, cr5, {3}
a3002550:	6f6c2067 	svcvs	0x006c2067
a3002554:	000a706f 	andeq	r7, sl, pc, rrx
a3002558:	6f6c6c61 	svcvs	0x006c6c61
a300255c:	65746163 	ldrvsb	r6, [r4, #-355]!
a3002560:	7361745f 	cmnvc	r1, #1593835520	; 0x5f000000
a3002564:	2e2e736b 	cdpcs	3, 2, cr7, cr14, cr11, {3}
a3002568:	6c6c612e 	stfvse	f6, [ip], #-184
a300256c:	7461636f 	strvcbt	r6, [r1], #-879
a3002570:	20676e69 	rsbcs	r6, r7, r9, ror #28
a3002574:	6b736174 	blvs	a4cdab4c <__bss_end__+0x1c96398>
a3002578:	0a642520 	beq	a490ba00 <__bss_end__+0x18c724c>
a300257c:	00000000 	andeq	r0, r0, r0
a3002580:	6f6c6c61 	svcvs	0x006c6c61
a3002584:	65746163 	ldrvsb	r6, [r4, #-355]!
a3002588:	7361745f 	cmnvc	r1, #1593835520	; 0x5f000000
a300258c:	2e2e736b 	cdpcs	3, 2, cr7, cr14, cr11, {3}
a3002590:	6f6f6c2e 	svcvs	0x006f6c2e
a3002594:	6f632070 	svcvs	0x00632070
a3002598:	656c706d 	strvsb	r7, [ip, #-109]!
a300259c:	202c6574 	eorcs	r6, ip, r4, ror r5
a30025a0:	6e696f64 	cdpvs	15, 6, cr6, cr9, cr4, {3}
a30025a4:	64692067 	strvsbt	r2, [r9], #-103
a30025a8:	000a656c 	andeq	r6, sl, ip, ror #10
a30025ac:	00000000 	andeq	r0, r0, r0
a30025b0:	6f6c6c61 	svcvs	0x006c6c61
a30025b4:	65746163 	ldrvsb	r6, [r4, #-355]!
a30025b8:	7361745f 	cmnvc	r1, #1593835520	; 0x5f000000
a30025bc:	2e2e736b 	cdpcs	3, 2, cr7, cr14, cr11, {3}
a30025c0:	6c64692e 	stcvsl	9, cr6, [r4], #-184
a30025c4:	6f632065 	svcvs	0x00632065
a30025c8:	656c706d 	strvsb	r7, [ip, #-109]!
a30025cc:	000a6574 	andeq	r6, sl, r4, ror r5
a30025d0:	6f6c6c61 	svcvs	0x006c6c61
a30025d4:	65746163 	ldrvsb	r6, [r4, #-355]!
a30025d8:	7361745f 	cmnvc	r1, #1593835520	; 0x5f000000
a30025dc:	2e2e736b 	cdpcs	3, 2, cr7, cr14, cr11, {3}
a30025e0:	0a2d2d2e 	beq	a3b4daa0 <__bss_end__+0xb092ec>
a30025e4:	00000000 	andeq	r0, r0, r0
a30025e8:	70736964 	rsbvcs	r6, r3, r4, ror #18
a30025ec:	68637461 	stmvsda	r3!, {r0, r5, r6, sl, ip, sp, lr}^
a30025f0:	696e695f 	stmvsdb	lr!, {r0, r1, r2, r3, r4, r6, r8, fp, sp, lr}^
a30025f4:	2b3a3a74 	blcs	a3e90fcc <__bss_end__+0xe4c818>
a30025f8:	00000a2d 	andeq	r0, r0, sp, lsr #20
a30025fc:	00000000 	andeq	r0, r0, r0
a3002600:	62637409 	rsbvs	r7, r3, #150994944	; 0x9000000
a3002604:	0a642520 	beq	a490ba8c <__bss_end__+0x18c72d8>
	...
a3002610:	34720909 	ldrccbt	r0, [r2], #-2313
a3002614:	25203d20 	strcs	r3, [r0, #-3360]!
a3002618:	00000a78 	andeq	r0, r0, r8, ror sl
a300261c:	00000000 	andeq	r0, r0, r0
a3002620:	35720909 	ldrccb	r0, [r2, #-2313]!
a3002624:	25203d20 	strcs	r3, [r0, #-3360]!
a3002628:	00000a78 	andeq	r0, r0, r8, ror sl
a300262c:	00000000 	andeq	r0, r0, r0
a3002630:	36720909 	ldrccbt	r0, [r2], -r9, lsl #18
a3002634:	25203d20 	strcs	r3, [r0, #-3360]!
a3002638:	00000a78 	andeq	r0, r0, r8, ror sl
a300263c:	00000000 	andeq	r0, r0, r0
a3002640:	37720909 	ldrccb	r0, [r2, -r9, lsl #18]!
a3002644:	25203d20 	strcs	r3, [r0, #-3360]!
a3002648:	00000a78 	andeq	r0, r0, r8, ror sl
a300264c:	00000000 	andeq	r0, r0, r0
a3002650:	38720909 	ldmccda	r2!, {r0, r3, r8, fp}^
a3002654:	25203d20 	strcs	r3, [r0, #-3360]!
a3002658:	00000a78 	andeq	r0, r0, r8, ror sl
a300265c:	00000000 	andeq	r0, r0, r0
a3002660:	39720909 	ldmccdb	r2!, {r0, r3, r8, fp}^
a3002664:	25203d20 	strcs	r3, [r0, #-3360]!
a3002668:	00000a78 	andeq	r0, r0, r8, ror sl
a300266c:	00000000 	andeq	r0, r0, r0
a3002670:	31720909 	cmncc	r2, r9, lsl #18
a3002674:	203d2030 	eorcss	r2, sp, r0, lsr r0
a3002678:	000a7825 	andeq	r7, sl, r5, lsr #16
a300267c:	00000000 	andeq	r0, r0, r0
a3002680:	31720909 	cmncc	r2, r9, lsl #18
a3002684:	203d2031 	eorcss	r2, sp, r1, lsr r0
a3002688:	000a7825 	andeq	r7, sl, r5, lsr #16
a300268c:	00000000 	andeq	r0, r0, r0
a3002690:	70730909 	rsbvcs	r0, r3, r9, lsl #18
a3002694:	25203d20 	strcs	r3, [r0, #-3360]!
a3002698:	00000a78 	andeq	r0, r0, r8, ror sl
a300269c:	00000000 	andeq	r0, r0, r0
a30026a0:	726c0909 	rsbvc	r0, ip, #147456	; 0x24000
a30026a4:	25203d20 	strcs	r3, [r0, #-3360]!
a30026a8:	00000a78 	andeq	r0, r0, r8, ror sl
a30026ac:	00000000 	andeq	r0, r0, r0
a30026b0:	73696409 	cmnvc	r9, #150994944	; 0x9000000
a30026b4:	63746170 	cmnvs	r4, #28	; 0x1c
a30026b8:	6c735f68 	ldcvsl	15, cr5, [r3], #-416
a30026bc:	3a706565 	bcc	a4c1bc58 <__bss_end__+0x1bd74a4>
a30026c0:	0a2b2b3a 	beq	a3acd3b0 <__bss_end__+0xa88bfc>
a30026c4:	00000000 	andeq	r0, r0, r0
a30026c8:	73696409 	cmnvc	r9, #150994944	; 0x9000000
a30026cc:	63746170 	cmnvs	r4, #28	; 0x1c
a30026d0:	6c735f68 	ldcvsl	15, cr5, [r3], #-416
a30026d4:	3a706565 	bcc	a4c1bc70 <__bss_end__+0x1bd74bc>
a30026d8:	7275633a 	rsbvcs	r6, r5, #-402653184	; 0xe8000000
a30026dc:	6263745f 	rsbvs	r7, r3, #1593835520	; 0x5f000000
a30026e0:	72703e2d 	rsbvcs	r3, r0, #720	; 0x2d0
a30026e4:	3d206f69 	stccc	15, cr6, [r0, #-420]!
a30026e8:	0a642520 	beq	a490bb70 <__bss_end__+0x18c73bc>
a30026ec:	00000000 	andeq	r0, r0, r0
a30026f0:	72615409 	rsbvc	r5, r1, #150994944	; 0x9000000
a30026f4:	20746567 	rsbcss	r6, r4, r7, ror #10
a30026f8:	746e6f43 	strvcbt	r6, [lr], #-3907
a30026fc:	3a747865 	bcc	a4d20898 <__bss_end__+0x1cdc0e4>
	...
a3002708:	73696409 	cmnvc	r9, #150994944	; 0x9000000
a300270c:	63746170 	cmnvs	r4, #28	; 0x1c
a3002710:	6f6e5f68 	svcvs	0x006e5f68
a3002714:	65766173 	ldrvsb	r6, [r6, #-371]!
a3002718:	2b2b3a3a 	blcs	a3ad1008 <__bss_end__+0xa8c854>
a300271c:	0000000a 	andeq	r0, r0, sl
a3002720:	73696409 	cmnvc	r9, #150994944	; 0x9000000
a3002724:	63746170 	cmnvs	r4, #28	; 0x1c
a3002728:	6f6e5f68 	svcvs	0x006e5f68
a300272c:	65766173 	ldrvsb	r6, [r6, #-371]!
a3002730:	77733a3a 	undefined
a3002734:	68637469 	stmvsda	r3!, {r0, r3, r5, r6, sl, ip, sp, lr}^
a3002738:	20676e69 	rsbcs	r6, r7, r9, ror #28
a300273c:	74206f74 	strvct	r6, [r0], #-3956
a3002740:	206b7361 	rsbcs	r7, fp, r1, ror #6
a3002744:	000a6425 	andeq	r6, sl, r5, lsr #8
a3002748:	73696409 	cmnvc	r9, #150994944	; 0x9000000
a300274c:	63746170 	cmnvs	r4, #28	; 0x1c
a3002750:	61735f68 	cmnvs	r3, r8, ror #30
a3002754:	3a3a6576 	bcc	a3e9bd34 <__bss_end__+0xe57580>
a3002758:	000a2b2b 	andeq	r2, sl, fp, lsr #22
a300275c:	00000000 	andeq	r0, r0, r0
a3002760:	73696409 	cmnvc	r9, #150994944	; 0x9000000
a3002764:	63746170 	cmnvs	r4, #28	; 0x1c
a3002768:	61735f68 	cmnvs	r3, r8, ror #30
a300276c:	3a3a6576 	bcc	a3e9bd4c <__bss_end__+0xe57598>
a3002770:	5f727563 	svcpl	0x00727563
a3002774:	2d626374 	stccsl	3, cr6, [r2, #-464]!
a3002778:	6972703e 	ldmvsdb	r2!, {r1, r2, r3, r4, r5, ip, sp, lr}^
a300277c:	203d206f 	eorcss	r2, sp, pc, rrx
a3002780:	000a6425 	andeq	r6, sl, r5, lsr #8
a3002784:	00000000 	andeq	r0, r0, r0
a3002788:	73696409 	cmnvc	r9, #150994944	; 0x9000000
a300278c:	63746170 	cmnvs	r4, #28	; 0x1c
a3002790:	61735f68 	cmnvs	r3, r8, ror #30
a3002794:	3a3a6576 	bcc	a3e9bd74 <__bss_end__+0xe575c0>
a3002798:	74697773 	strvcbt	r7, [r9], #-1907
a300279c:	6e696863 	cdpvs	8, 6, cr6, cr9, cr3, {3}
a30027a0:	6f742067 	svcvs	0x00742067
a30027a4:	73617420 	cmnvc	r1, #536870912	; 0x20000000
a30027a8:	6425206b 	strvst	r2, [r5], #-107
a30027ac:	0000000a 	andeq	r0, r0, sl
a30027b0:	716e7572 	smcvc	59218
a30027b4:	65756575 	ldrvsb	r6, [r5, #-1397]!
a30027b8:	6d65725f 	sfmvs	f7, 2, [r5, #-380]!
a30027bc:	2e65766f 	cdpcs	6, 6, cr7, cr5, cr15, {3}
a30027c0:	2b2b2e2e 	blcs	a3ace080 <__bss_end__+0xa898cc>
a30027c4:	6174202c 	cmnvs	r4, ip, lsr #32
a30027c8:	25206b73 	strcs	r6, [r0, #-2931]!
a30027cc:	00000a64 	andeq	r0, r0, r4, ror #20
a30027d0:	716e7572 	smcvc	59218
a30027d4:	65756575 	ldrvsb	r6, [r5, #-1397]!
a30027d8:	6464615f 	strvsbt	r6, [r4], #-351
a30027dc:	2b2e2e2e 	blcs	a3b8e09c <__bss_end__+0xb498e8>
a30027e0:	74202c2b 	strvct	r2, [r0], #-3115
a30027e4:	206b7361 	rsbcs	r7, fp, r1, ror #6
a30027e8:	000a6425 	andeq	r6, sl, r5, lsr #8

a30027ec <prio_unmap_table>:
a30027ec:	00010000 	andeq	r0, r1, r0
a30027f0:	00010002 	andeq	r0, r1, r2
a30027f4:	00010003 	andeq	r0, r1, r3
a30027f8:	00010002 	andeq	r0, r1, r2
a30027fc:	00010004 	andeq	r0, r1, r4
a3002800:	00010002 	andeq	r0, r1, r2
a3002804:	00010003 	andeq	r0, r1, r3
a3002808:	00010002 	andeq	r0, r1, r2
a300280c:	00010005 	andeq	r0, r1, r5
a3002810:	00010002 	andeq	r0, r1, r2
a3002814:	00010003 	andeq	r0, r1, r3
a3002818:	00010002 	andeq	r0, r1, r2
a300281c:	00010004 	andeq	r0, r1, r4
a3002820:	00010002 	andeq	r0, r1, r2
a3002824:	00010003 	andeq	r0, r1, r3
a3002828:	00010002 	andeq	r0, r1, r2
a300282c:	00010006 	andeq	r0, r1, r6
a3002830:	00010002 	andeq	r0, r1, r2
a3002834:	00010003 	andeq	r0, r1, r3
a3002838:	00010002 	andeq	r0, r1, r2
a300283c:	00010004 	andeq	r0, r1, r4
a3002840:	00010002 	andeq	r0, r1, r2
a3002844:	00010003 	andeq	r0, r1, r3
a3002848:	00010002 	andeq	r0, r1, r2
a300284c:	00010005 	andeq	r0, r1, r5
a3002850:	00010002 	andeq	r0, r1, r2
a3002854:	00010003 	andeq	r0, r1, r3
a3002858:	00010002 	andeq	r0, r1, r2
a300285c:	00010004 	andeq	r0, r1, r4
a3002860:	00010002 	andeq	r0, r1, r2
a3002864:	00010003 	andeq	r0, r1, r3
a3002868:	00010002 	andeq	r0, r1, r2
a300286c:	00010007 	andeq	r0, r1, r7
a3002870:	00010002 	andeq	r0, r1, r2
a3002874:	00010003 	andeq	r0, r1, r3
a3002878:	00010002 	andeq	r0, r1, r2
a300287c:	00010004 	andeq	r0, r1, r4
a3002880:	00010002 	andeq	r0, r1, r2
a3002884:	00010003 	andeq	r0, r1, r3
a3002888:	00010002 	andeq	r0, r1, r2
a300288c:	00010005 	andeq	r0, r1, r5
a3002890:	00010002 	andeq	r0, r1, r2
a3002894:	00010003 	andeq	r0, r1, r3
a3002898:	00010002 	andeq	r0, r1, r2
a300289c:	00010004 	andeq	r0, r1, r4
a30028a0:	00010002 	andeq	r0, r1, r2
a30028a4:	00010003 	andeq	r0, r1, r3
a30028a8:	00010002 	andeq	r0, r1, r2
a30028ac:	00010006 	andeq	r0, r1, r6
a30028b0:	00010002 	andeq	r0, r1, r2
a30028b4:	00010003 	andeq	r0, r1, r3
a30028b8:	00010002 	andeq	r0, r1, r2
a30028bc:	00010004 	andeq	r0, r1, r4
a30028c0:	00010002 	andeq	r0, r1, r2
a30028c4:	00010003 	andeq	r0, r1, r3
a30028c8:	00010002 	andeq	r0, r1, r2
a30028cc:	00010005 	andeq	r0, r1, r5
a30028d0:	00010002 	andeq	r0, r1, r2
a30028d4:	00010003 	andeq	r0, r1, r3
a30028d8:	00010002 	andeq	r0, r1, r2
a30028dc:	00010004 	andeq	r0, r1, r4
a30028e0:	00010002 	andeq	r0, r1, r2
a30028e4:	00010003 	andeq	r0, r1, r3
a30028e8:	00010002 	andeq	r0, r1, r2
a30028ec:	00000000 	andeq	r0, r0, r0
a30028f0:	6574756d 	ldrvsb	r7, [r4, #-1389]!
a30028f4:	6d3a3a78 	fldmdbsvs	sl!, {s6-s125}
a30028f8:	78657475 	stmvcda	r5!, {r0, r2, r4, r5, r6, sl, ip, sp, lr}^
a30028fc:	6c6e755f 	cfstr64vs	mvdx7, [lr], #-380
a3002900:	206b636f 	rsbcs	r6, fp, pc, ror #6
a3002904:	72617473 	rsbvc	r7, r1, #1929379840	; 0x73000000
a3002908:	00000a74 	andeq	r0, r0, r4, ror sl
a300290c:	00000000 	andeq	r0, r0, r0
a3002910:	6574756d 	ldrvsb	r7, [r4, #-1389]!
a3002914:	6d3a3a78 	fldmdbsvs	sl!, {s6-s125}
a3002918:	78657475 	stmvcda	r5!, {r0, r2, r4, r5, r6, sl, ip, sp, lr}^
a300291c:	6c6e755f 	cfstr64vs	mvdx7, [lr], #-380
a3002920:	206b636f 	rsbcs	r6, fp, pc, ror #6
a3002924:	75716572 	ldrvcb	r6, [r1, #-1394]!
a3002928:	65747365 	ldrvsb	r7, [r4, #-869]!
a300292c:	756d2064 	strvcb	r2, [sp, #-100]!
a3002930:	3a786574 	bcc	a4e1bf08 <__bss_end__+0x1dd7754>
a3002934:	0a642520 	beq	a490bdbc <__bss_end__+0x18c7608>
	...
a3002940:	6574756d 	ldrvsb	r7, [r4, #-1389]!
a3002944:	6d3a3a78 	fldmdbsvs	sl!, {s6-s125}
a3002948:	78657475 	stmvcda	r5!, {r0, r2, r4, r5, r6, sl, ip, sp, lr}^
a300294c:	6c6e755f 	cfstr64vs	mvdx7, [lr], #-380
a3002950:	206b636f 	rsbcs	r6, fp, pc, ror #6
a3002954:	6c6c6163 	stfvse	f6, [ip], #-396
a3002958:	20676e69 	rsbcs	r6, r7, r9, ror #28
a300295c:	3a626374 	bcc	a489b734 <__bss_end__+0x1856f80>
a3002960:	0a782520 	beq	a4e0bde8 <__bss_end__+0x1dc7634>
a3002964:	00000000 	andeq	r0, r0, r0
a3002968:	6574756d 	ldrvsb	r7, [r4, #-1389]!
a300296c:	6d3a3a78 	fldmdbsvs	sl!, {s6-s125}
a3002970:	78657475 	stmvcda	r5!, {r0, r2, r4, r5, r6, sl, ip, sp, lr}^
a3002974:	6c6e755f 	cfstr64vs	mvdx7, [lr], #-380
a3002978:	206b636f 	rsbcs	r6, fp, pc, ror #6
a300297c:	61766e69 	cmnvs	r6, r9, ror #28
a3002980:	2064696c 	rsbcs	r6, r4, ip, ror #18
a3002984:	6574756d 	ldrvsb	r7, [r4, #-1389]!
a3002988:	00000a78 	andeq	r0, r0, r8, ror sl
a300298c:	00000000 	andeq	r0, r0, r0
a3002990:	6574756d 	ldrvsb	r7, [r4, #-1389]!
a3002994:	6d3a3a78 	fldmdbsvs	sl!, {s6-s125}
a3002998:	78657475 	stmvcda	r5!, {r0, r2, r4, r5, r6, sl, ip, sp, lr}^
a300299c:	6c6e755f 	cfstr64vs	mvdx7, [lr], #-380
a30029a0:	206b636f 	rsbcs	r6, fp, pc, ror #6
a30029a4:	20626374 	rsbcs	r6, r2, r4, ror r3
a30029a8:	73656f64 	cmnvc	r5, #400	; 0x190
a30029ac:	2074276e 	rsbcss	r2, r4, lr, ror #14
a30029b0:	65766168 	ldrvsb	r6, [r6, #-360]!
a30029b4:	67697220 	strvsb	r7, [r9, -r0, lsr #4]!
a30029b8:	20737468 	rsbcss	r7, r3, r8, ror #8
a30029bc:	6d206f74 	stcvs	15, cr6, [r0, #-464]!
a30029c0:	78657475 	stmvcda	r5!, {r0, r2, r4, r5, r6, sl, ip, sp, lr}^
a30029c4:	0000000a 	andeq	r0, r0, sl
a30029c8:	6574756d 	ldrvsb	r7, [r4, #-1389]!
a30029cc:	6d3a3a78 	fldmdbsvs	sl!, {s6-s125}
a30029d0:	78657475 	stmvcda	r5!, {r0, r2, r4, r5, r6, sl, ip, sp, lr}^
a30029d4:	6c6e755f 	cfstr64vs	mvdx7, [lr], #-380
a30029d8:	206b636f 	rsbcs	r6, fp, pc, ror #6
a30029dc:	70206f6e 	eorvc	r6, r0, lr, ror #30
a30029e0:	65636f72 	strvsb	r6, [r3, #-3954]!
a30029e4:	77207373 	undefined
a30029e8:	69746961 	ldmvsdb	r4!, {r0, r5, r6, r8, fp, sp, lr}^
a30029ec:	6f20676e 	svcvs	0x0020676e
a30029f0:	756d206e 	strvcb	r2, [sp, #-110]!
a30029f4:	20786574 	rsbcss	r6, r8, r4, ror r5
a30029f8:	66206f73 	qsub16vs	r6, r0, r3
a30029fc:	20656572 	rsbcs	r6, r5, r2, ror r5
a3002a00:	000a7469 	andeq	r7, sl, r9, ror #8
a3002a04:	00000000 	andeq	r0, r0, r0
a3002a08:	6574756d 	ldrvsb	r7, [r4, #-1389]!
a3002a0c:	6d3a3a78 	fldmdbsvs	sl!, {s6-s125}
a3002a10:	78657475 	stmvcda	r5!, {r0, r2, r4, r5, r6, sl, ip, sp, lr}^
a3002a14:	6c6e755f 	cfstr64vs	mvdx7, [lr], #-380
a3002a18:	206b636f 	rsbcs	r6, fp, pc, ror #6
a3002a1c:	656d6f73 	strvsb	r6, [sp, #-3955]!
a3002a20:	6e696874 	mcrvs	8, 3, r6, cr9, cr4, {3}
a3002a24:	61772067 	cmnvs	r7, r7, rrx
a3002a28:	6e697469 	cdpvs	4, 6, cr7, cr9, cr9, {3}
a3002a2c:	6f662067 	svcvs	0x00662067
a3002a30:	756d2072 	strvcb	r2, [sp, #-114]!
a3002a34:	0a786574 	beq	a4e1c00c <__bss_end__+0x1dd7858>
	...
a3002a40:	6574756d 	ldrvsb	r7, [r4, #-1389]!
a3002a44:	6d3a3a78 	fldmdbsvs	sl!, {s6-s125}
a3002a48:	78657475 	stmvcda	r5!, {r0, r2, r4, r5, r6, sl, ip, sp, lr}^
a3002a4c:	6c6e755f 	cfstr64vs	mvdx7, [lr], #-380
a3002a50:	206b636f 	rsbcs	r6, fp, pc, ror #6
a3002a54:	74696177 	strvcbt	r6, [r9], #-375
a3002a58:	20676e69 	rsbcs	r6, r7, r9, ror #28
a3002a5c:	20626374 	rsbcs	r6, r2, r4, ror r3
a3002a60:	7825203d 	stmvcda	r5!, {r0, r2, r3, r4, r5, sp}
a3002a64:	0000000a 	andeq	r0, r0, sl
a3002a68:	6574756d 	ldrvsb	r7, [r4, #-1389]!
a3002a6c:	6d3a3a78 	fldmdbsvs	sl!, {s6-s125}
a3002a70:	78657475 	stmvcda	r5!, {r0, r2, r4, r5, r6, sl, ip, sp, lr}^
a3002a74:	6c6e755f 	cfstr64vs	mvdx7, [lr], #-380
a3002a78:	206b636f 	rsbcs	r6, fp, pc, ror #6
a3002a7c:	75657571 	strvcb	r7, [r5, #-1393]!
a3002a80:	74206465 	strvct	r6, [r0], #-1125
a3002a84:	68206263 	stmvsda	r0!, {r0, r1, r5, r6, r9, sp, lr}
a3002a88:	73646c6f 	cmnvc	r4, #28416	; 0x6f00
a3002a8c:	636f6c5f 	cmnvs	pc, #24320	; 0x5f00
a3002a90:	203d206b 	eorcss	r2, sp, fp, rrx
a3002a94:	000a6425 	andeq	r6, sl, r5, lsr #8
a3002a98:	6574756d 	ldrvsb	r7, [r4, #-1389]!
a3002a9c:	6d3a3a78 	fldmdbsvs	sl!, {s6-s125}
a3002aa0:	78657475 	stmvcda	r5!, {r0, r2, r4, r5, r6, sl, ip, sp, lr}^
a3002aa4:	6c6e755f 	cfstr64vs	mvdx7, [lr], #-380
a3002aa8:	206b636f 	rsbcs	r6, fp, pc, ror #6
a3002aac:	20646461 	rsbcs	r6, r4, r1, ror #8
a3002ab0:	75657571 	strvcb	r7, [r5, #-1393]!
a3002ab4:	74206465 	strvct	r6, [r0], #-1125
a3002ab8:	74206263 	strvct	r6, [r0], #-611
a3002abc:	7572206f 	ldrvcb	r2, [r2, #-111]!
a3002ac0:	6575716e 	ldrvsb	r7, [r5, #-366]!
a3002ac4:	000a6575 	andeq	r6, sl, r5, ror r5
a3002ac8:	6574756d 	ldrvsb	r7, [r4, #-1389]!
a3002acc:	6d3a3a78 	fldmdbsvs	sl!, {s6-s125}
a3002ad0:	78657475 	stmvcda	r5!, {r0, r2, r4, r5, r6, sl, ip, sp, lr}^
a3002ad4:	6c6e755f 	cfstr64vs	mvdx7, [lr], #-380
a3002ad8:	206b636f 	rsbcs	r6, fp, pc, ror #6
a3002adc:	6574756d 	ldrvsb	r7, [r4, #-1389]!
a3002ae0:	61682078 	smcvs	33288
a3002ae4:	656c646e 	strvsb	r6, [ip, #-1134]!
a3002ae8:	00000a64 	andeq	r0, r0, r4, ror #20
a3002aec:	00000000 	andeq	r0, r0, r0
a3002af0:	6574756d 	ldrvsb	r7, [r4, #-1389]!
a3002af4:	6d3a3a78 	fldmdbsvs	sl!, {s6-s125}
a3002af8:	78657475 	stmvcda	r5!, {r0, r2, r4, r5, r6, sl, ip, sp, lr}^
a3002afc:	6c6e755f 	cfstr64vs	mvdx7, [lr], #-380
a3002b00:	206b636f 	rsbcs	r6, fp, pc, ror #6
a3002b04:	5f727563 	svcpl	0x00727563
a3002b08:	20626374 	rsbcs	r6, r2, r4, ror r3
a3002b0c:	646c6f68 	strvsbt	r6, [ip], #-3944
a3002b10:	6f6c5f73 	svcvs	0x006c5f73
a3002b14:	3d206b63 	fstmdbxcc	r0!, {d6-d54}
a3002b18:	0a642520 	beq	a490bfa0 <__bss_end__+0x18c77ec>
a3002b1c:	00000000 	andeq	r0, r0, r0
a3002b20:	6574756d 	ldrvsb	r7, [r4, #-1389]!
a3002b24:	6d3a3a78 	fldmdbsvs	sl!, {s6-s125}
a3002b28:	78657475 	stmvcda	r5!, {r0, r2, r4, r5, r6, sl, ip, sp, lr}^
a3002b2c:	696e695f 	stmvsdb	lr!, {r0, r1, r2, r3, r4, r6, r8, fp, sp, lr}^
a3002b30:	74732074 	ldrvcbt	r2, [r3], #-116
a3002b34:	0a747261 	beq	a4d1f4c0 <__bss_end__+0x1cdad0c>
	...
a3002b40:	6574756d 	ldrvsb	r7, [r4, #-1389]!
a3002b44:	6d3a3a78 	fldmdbsvs	sl!, {s6-s125}
a3002b48:	78657475 	stmvcda	r5!, {r0, r2, r4, r5, r6, sl, ip, sp, lr}^
a3002b4c:	696e695f 	stmvsdb	lr!, {r0, r1, r2, r3, r4, r6, r8, fp, sp, lr}^
a3002b50:	6d3a3a74 	fldmdbsvs	sl!, {s6-s121}
a3002b54:	78657475 	stmvcda	r5!, {r0, r2, r4, r5, r6, sl, ip, sp, lr}^
a3002b58:	3d204449 	cfstrscc	mvf4, [r0, #-292]!
a3002b5c:	0a642520 	beq	a490bfe4 <__bss_end__+0x18c7830>
	...
a3002b68:	6574756d 	ldrvsb	r7, [r4, #-1389]!
a3002b6c:	6d3a3a78 	fldmdbsvs	sl!, {s6-s125}
a3002b70:	78657475 	stmvcda	r5!, {r0, r2, r4, r5, r6, sl, ip, sp, lr}^
a3002b74:	6572635f 	ldrvsb	r6, [r2, #-863]!
a3002b78:	20657461 	rsbcs	r7, r5, r1, ror #8
a3002b7c:	72617473 	rsbvc	r7, r1, #1929379840	; 0x73000000
a3002b80:	00000a74 	andeq	r0, r0, r4, ror sl
a3002b84:	00000000 	andeq	r0, r0, r0
a3002b88:	6574756d 	ldrvsb	r7, [r4, #-1389]!
a3002b8c:	6d3a3a78 	fldmdbsvs	sl!, {s6-s125}
a3002b90:	78657475 	stmvcda	r5!, {r0, r2, r4, r5, r6, sl, ip, sp, lr}^
a3002b94:	6572635f 	ldrvsb	r6, [r2, #-863]!
a3002b98:	20657461 	rsbcs	r7, r5, r1, ror #8
a3002b9c:	6d206f6e 	stcvs	15, cr6, [r0, #-440]!
a3002ba0:	78657475 	stmvcda	r5!, {r0, r2, r4, r5, r6, sl, ip, sp, lr}^
a3002ba4:	20734449 	rsbcss	r4, r3, r9, asr #8
a3002ba8:	69617661 	stmvsdb	r1!, {r0, r5, r6, r9, sl, ip, sp, lr}^
a3002bac:	6c62616c 	stfvse	f6, [r2], #-432
a3002bb0:	00000a65 	andeq	r0, r0, r5, ror #20
a3002bb4:	00000000 	andeq	r0, r0, r0
a3002bb8:	6574756d 	ldrvsb	r7, [r4, #-1389]!
a3002bbc:	6d3a3a78 	fldmdbsvs	sl!, {s6-s125}
a3002bc0:	78657475 	stmvcda	r5!, {r0, r2, r4, r5, r6, sl, ip, sp, lr}^
a3002bc4:	6572635f 	ldrvsb	r6, [r2, #-863]!
a3002bc8:	20657461 	rsbcs	r7, r5, r1, ror #8
a3002bcc:	2077656e 	rsbcss	r6, r7, lr, ror #10
a3002bd0:	3d206469 	cfstrscc	mvf6, [r0, #-420]!
a3002bd4:	0a642520 	beq	a490c05c <__bss_end__+0x18c78a8>
	...
a3002be0:	6574756d 	ldrvsb	r7, [r4, #-1389]!
a3002be4:	6d3a3a78 	fldmdbsvs	sl!, {s6-s125}
a3002be8:	78657475 	stmvcda	r5!, {r0, r2, r4, r5, r6, sl, ip, sp, lr}^
a3002bec:	6572635f 	ldrvsb	r6, [r2, #-863]!
a3002bf0:	20657461 	rsbcs	r7, r5, r1, ror #8
a3002bf4:	65746661 	ldrvsb	r6, [r4, #-1633]!
a3002bf8:	6e692072 	mcrvs	0, 3, r2, cr9, cr2, {3}
a3002bfc:	61697469 	cmnvs	r9, r9, ror #8
a3002c00:	657a696c 	ldrvsb	r6, [sl, #-2412]!
a3002c04:	74756d20 	ldrvcbt	r6, [r5], #-3360
a3002c08:	000a7865 	andeq	r7, sl, r5, ror #16
a3002c0c:	00000000 	andeq	r0, r0, r0
a3002c10:	6574756d 	ldrvsb	r7, [r4, #-1389]!
a3002c14:	6d3a3a78 	fldmdbsvs	sl!, {s6-s125}
a3002c18:	78657475 	stmvcda	r5!, {r0, r2, r4, r5, r6, sl, ip, sp, lr}^
a3002c1c:	636f6c5f 	cmnvs	pc, #24320	; 0x5f00
a3002c20:	7473206b 	ldrvcbt	r2, [r3], #-107
a3002c24:	0a747261 	beq	a4d1f5b0 <__bss_end__+0x1cdadfc>
	...
a3002c30:	6574756d 	ldrvsb	r7, [r4, #-1389]!
a3002c34:	6d3a3a78 	fldmdbsvs	sl!, {s6-s125}
a3002c38:	78657475 	stmvcda	r5!, {r0, r2, r4, r5, r6, sl, ip, sp, lr}^
a3002c3c:	636f6c5f 	cmnvs	pc, #24320	; 0x5f00
a3002c40:	6572206b 	ldrvsb	r2, [r2, #-107]!
a3002c44:	73657571 	cmnvc	r5, #473956352	; 0x1c400000
a3002c48:	20646574 	rsbcs	r6, r4, r4, ror r5
a3002c4c:	6574756d 	ldrvsb	r7, [r4, #-1389]!
a3002c50:	25203a78 	strcs	r3, [r0, #-2680]!
a3002c54:	00000a64 	andeq	r0, r0, r4, ror #20
a3002c58:	6574756d 	ldrvsb	r7, [r4, #-1389]!
a3002c5c:	6d3a3a78 	fldmdbsvs	sl!, {s6-s125}
a3002c60:	78657475 	stmvcda	r5!, {r0, r2, r4, r5, r6, sl, ip, sp, lr}^
a3002c64:	636f6c5f 	cmnvs	pc, #24320	; 0x5f00
a3002c68:	6163206b 	cmnvs	r3, fp, rrx
a3002c6c:	6e696c6c 	cdpvs	12, 6, cr6, cr9, cr12, {3}
a3002c70:	63742067 	cmnvs	r4, #103	; 0x67
a3002c74:	25203a62 	strcs	r3, [r0, #-2658]!
a3002c78:	00000a78 	andeq	r0, r0, r8, ror sl
a3002c7c:	00000000 	andeq	r0, r0, r0
a3002c80:	6574756d 	ldrvsb	r7, [r4, #-1389]!
a3002c84:	6d3a3a78 	fldmdbsvs	sl!, {s6-s125}
a3002c88:	78657475 	stmvcda	r5!, {r0, r2, r4, r5, r6, sl, ip, sp, lr}^
a3002c8c:	636f6c5f 	cmnvs	pc, #24320	; 0x5f00
a3002c90:	6e69206b 	cdpvs	0, 6, cr2, cr9, cr11, {3}
a3002c94:	696c6176 	stmvsdb	ip!, {r1, r2, r4, r5, r6, r8, sp, lr}^
a3002c98:	756d2064 	strvcb	r2, [sp, #-100]!
a3002c9c:	49786574 	ldmmidb	r8!, {r2, r4, r5, r6, r8, sl, sp, lr}^
a3002ca0:	00000a44 	andeq	r0, r0, r4, asr #20
a3002ca4:	00000000 	andeq	r0, r0, r0
a3002ca8:	6574756d 	ldrvsb	r7, [r4, #-1389]!
a3002cac:	6d3a3a78 	fldmdbsvs	sl!, {s6-s125}
a3002cb0:	78657475 	stmvcda	r5!, {r0, r2, r4, r5, r6, sl, ip, sp, lr}^
a3002cb4:	636f6c5f 	cmnvs	pc, #24320	; 0x5f00
a3002cb8:	756d206b 	strvcb	r2, [sp, #-107]!
a3002cbc:	20786574 	rsbcss	r6, r8, r4, ror r5
a3002cc0:	20746f6e 	rsbcss	r6, r4, lr, ror #30
a3002cc4:	69617661 	stmvsdb	r1!, {r0, r5, r6, r9, sl, ip, sp, lr}^
a3002cc8:	6c62616c 	stfvse	f6, [r2], #-432
a3002ccc:	00000a65 	andeq	r0, r0, r5, ror #20
a3002cd0:	6574756d 	ldrvsb	r7, [r4, #-1389]!
a3002cd4:	6d3a3a78 	fldmdbsvs	sl!, {s6-s125}
a3002cd8:	78657475 	stmvcda	r5!, {r0, r2, r4, r5, r6, sl, ip, sp, lr}^
a3002cdc:	636f6c5f 	cmnvs	pc, #24320	; 0x5f00
a3002ce0:	6564206b 	strvsb	r2, [r4, #-107]!
a3002ce4:	6f6c6461 	svcvs	0x006c6461
a3002ce8:	000a6b63 	andeq	r6, sl, r3, ror #22
a3002cec:	00000000 	andeq	r0, r0, r0
a3002cf0:	6574756d 	ldrvsb	r7, [r4, #-1389]!
a3002cf4:	6d3a3a78 	fldmdbsvs	sl!, {s6-s125}
a3002cf8:	78657475 	stmvcda	r5!, {r0, r2, r4, r5, r6, sl, ip, sp, lr}^
a3002cfc:	636f6c5f 	cmnvs	pc, #24320	; 0x5f00
a3002d00:	6966206b 	stmvsdb	r6!, {r0, r1, r3, r5, r6, sp}^
a3002d04:	20747372 	rsbcss	r7, r4, r2, ror r3
a3002d08:	65656c73 	strvsb	r6, [r5, #-3187]!
a3002d0c:	75712070 	ldrvcb	r2, [r1, #-112]!
a3002d10:	0a657565 	beq	a49602ac <__bss_end__+0x191baf8>
a3002d14:	00000000 	andeq	r0, r0, r0
a3002d18:	6574756d 	ldrvsb	r7, [r4, #-1389]!
a3002d1c:	6d3a3a78 	fldmdbsvs	sl!, {s6-s125}
a3002d20:	78657475 	stmvcda	r5!, {r0, r2, r4, r5, r6, sl, ip, sp, lr}^
a3002d24:	636f6c5f 	cmnvs	pc, #24320	; 0x5f00
a3002d28:	6461206b 	strvsbt	r2, [r1], #-107
a3002d2c:	6f742064 	svcvs	0x00742064
a3002d30:	646e6520 	strvsbt	r6, [lr], #-1312
a3002d34:	20666f20 	rsbcs	r6, r6, r0, lsr #30
a3002d38:	73697865 	cmnvc	r9, #6619136	; 0x650000
a3002d3c:	676e6974 	undefined
a3002d40:	656c7320 	strvsb	r7, [ip, #-800]!
a3002d44:	71207065 	teqvc	r0, r5, rrx
a3002d48:	65756575 	ldrvsb	r6, [r5, #-1397]!
a3002d4c:	0000000a 	andeq	r0, r0, sl
a3002d50:	6574756d 	ldrvsb	r7, [r4, #-1389]!
a3002d54:	6d3a3a78 	fldmdbsvs	sl!, {s6-s125}
a3002d58:	78657475 	stmvcda	r5!, {r0, r2, r4, r5, r6, sl, ip, sp, lr}^
a3002d5c:	636f6c5f 	cmnvs	pc, #24320	; 0x5f00
a3002d60:	6e65206b 	cdpvs	0, 6, cr2, cr5, cr11, {3}
a3002d64:	666f2064 	strvsbt	r2, [pc], -r4, rrx
a3002d68:	656c7320 	strvsb	r7, [ip, #-800]!
a3002d6c:	71207065 	teqvc	r0, r5, rrx
a3002d70:	65756575 	ldrvsb	r6, [r5, #-1397]!
a3002d74:	25203d20 	strcs	r3, [r0, #-3360]!
a3002d78:	00000a78 	andeq	r0, r0, r8, ror sl
a3002d7c:	00000000 	andeq	r0, r0, r0
a3002d80:	6574756d 	ldrvsb	r7, [r4, #-1389]!
a3002d84:	6d3a3a78 	fldmdbsvs	sl!, {s6-s125}
a3002d88:	78657475 	stmvcda	r5!, {r0, r2, r4, r5, r6, sl, ip, sp, lr}^
a3002d8c:	636f6c5f 	cmnvs	pc, #24320	; 0x5f00
a3002d90:	6261206b 	rsbvs	r2, r1, #107	; 0x6b
a3002d94:	2074756f 	rsbcss	r7, r4, pc, ror #10
a3002d98:	70206f74 	eorvc	r6, r0, r4, ror pc
a3002d9c:	63207475 	teqvs	r0, #1962934272	; 0x75000000
a3002da0:	65727275 	ldrvsb	r7, [r2, #-629]!
a3002da4:	7420746e 	strvct	r7, [r0], #-1134
a3002da8:	74206263 	strvct	r6, [r0], #-611
a3002dac:	6c73206f 	ldcvsl	0, cr2, [r3], #-444
a3002db0:	0a706565 	beq	a4c1c34c <__bss_end__+0x1bd7b98>
a3002db4:	00000000 	andeq	r0, r0, r0
a3002db8:	6574756d 	ldrvsb	r7, [r4, #-1389]!
a3002dbc:	6d3a3a78 	fldmdbsvs	sl!, {s6-s125}
a3002dc0:	78657475 	stmvcda	r5!, {r0, r2, r4, r5, r6, sl, ip, sp, lr}^
a3002dc4:	636f6c5f 	cmnvs	pc, #24320	; 0x5f00
a3002dc8:	6f6c206b 	svcvs	0x006c206b
a3002dcc:	74206b63 	strvct	r6, [r0], #-2915
a3002dd0:	6d206568 	cfstr32vs	mvfx6, [r0, #-416]!
a3002dd4:	78657475 	stmvcda	r5!, {r0, r2, r4, r5, r6, sl, ip, sp, lr}^
a3002dd8:	0000000a 	andeq	r0, r0, sl
a3002ddc:	00000000 	andeq	r0, r0, r0
a3002de0:	6574756d 	ldrvsb	r7, [r4, #-1389]!
a3002de4:	6d3a3a78 	fldmdbsvs	sl!, {s6-s125}
a3002de8:	78657475 	stmvcda	r5!, {r0, r2, r4, r5, r6, sl, ip, sp, lr}^
a3002dec:	636f6c5f 	cmnvs	pc, #24320	; 0x5f00
a3002df0:	656e206b 	strvsb	r2, [lr, #-107]!
a3002df4:	756d2077 	strvcb	r2, [sp, #-119]!
a3002df8:	20786574 	rsbcss	r6, r8, r4, ror r5
a3002dfc:	646c6f68 	strvsbt	r6, [ip], #-3944
a3002e00:	20676e69 	rsbcs	r6, r7, r9, ror #28
a3002e04:	20626374 	rsbcs	r6, r2, r4, ror r3
a3002e08:	7825203d 	stmvcda	r5!, {r0, r2, r3, r4, r5, sp}
a3002e0c:	0000000a 	andeq	r0, r0, sl
a3002e10:	6574756d 	ldrvsb	r7, [r4, #-1389]!
a3002e14:	6d3a3a78 	fldmdbsvs	sl!, {s6-s125}
a3002e18:	78657475 	stmvcda	r5!, {r0, r2, r4, r5, r6, sl, ip, sp, lr}^
a3002e1c:	636f6c5f 	cmnvs	pc, #24320	; 0x5f00
a3002e20:	7563206b 	strvcb	r2, [r3, #-107]!
a3002e24:	63745f72 	cmnvs	r4, #456	; 0x1c8
a3002e28:	6f682062 	svcvs	0x00682062
a3002e2c:	5f73646c 	svcpl	0x0073646c
a3002e30:	6b636f6c 	blvs	a48debe8 <__bss_end__+0x189a434>
a3002e34:	25203d20 	strcs	r3, [r0, #-3360]!
a3002e38:	00000a64 	andeq	r0, r0, r4, ror #20
a3002e3c:	00000000 	andeq	r0, r0, r0
Disassembly of section .bss:

a3002e40 <debug_enabled>:
a3002e40:	00000000 	andeq	r0, r0, r0

a3002e44 <uboot_abt_address>:
a3002e44:	00000000 	andeq	r0, r0, r0

a3002e48 <uboot_swi_address>:
a3002e48:	00000000 	andeq	r0, r0, r0

a3002e4c <uboot_irq_address>:
a3002e4c:	00000000 	andeq	r0, r0, r0

a3002e50 <uboot_swi_ins>:
	...

a3002e58 <uboot_irq_ins>:
	...

a3002e60 <uboot_abt_ins>:
	...

a3002e68 <devices>:
	...

a3002e88 <kernel_time>:
a3002e88:	00000000 	andeq	r0, r0, r0

a3002e8c <sleeping>:
a3002e8c:	00000000 	andeq	r0, r0, r0

a3002e90 <irq_stack_lo>:
	...

a3002e98 <irq_stack_hi>:
a3002e98:	00000000 	andeq	r0, r0, r0

a3002e9c <run_list>:
	...

a3002f9c <run_bits>:
	...

a3002fa4 <group_run_bits>:
a3002fa4:	00000000 	andeq	r0, r0, r0

a3002fa8 <global_data2>:
a3002fa8:	00000000 	andeq	r0, r0, r0

a3002fac <global_data>:
a3002fac:	00000000 	andeq	r0, r0, r0

a3002fb0 <abort_stack>:
	...

a30033b0 <irq_stack>:
	...

a30037b0 <system_tcb>:
	...

a30445b0 <gtMutex>:
	...

a30447b0 <mutexID>:
a30447b0:	00000000 	andeq	r0, r0, r0
Disassembly of section .comment:

00000000 <.comment>:
   0:	43434700 	movtmi	r4, #14080	; 0x3700
   4:	4728203a 	undefined
   8:	2029554e 	eorcs	r5, r9, lr, asr #10
   c:	2e312e34 	mrccs	14, 1, r2, cr1, cr4, {1}
  10:	47000031 	smladxmi	r0, r1, r0, r0
  14:	203a4343 	eorcss	r4, sl, r3, asr #6
  18:	554e4728 	strplb	r4, [lr, #-1832]
  1c:	2e342029 	cdpcs	0, 3, cr2, cr4, cr9, {1}
  20:	00312e31 	eoreqs	r2, r1, r1, lsr lr
  24:	43434700 	movtmi	r4, #14080	; 0x3700
  28:	4728203a 	undefined
  2c:	2029554e 	eorcs	r5, r9, lr, asr #10
  30:	2e312e34 	mrccs	14, 1, r2, cr1, cr4, {1}
  34:	47000031 	smladxmi	r0, r1, r0, r0
  38:	203a4343 	eorcss	r4, sl, r3, asr #6
  3c:	554e4728 	strplb	r4, [lr, #-1832]
  40:	2e342029 	cdpcs	0, 3, cr2, cr4, cr9, {1}
  44:	00312e31 	eoreqs	r2, r1, r1, lsr lr
  48:	43434700 	movtmi	r4, #14080	; 0x3700
  4c:	4728203a 	undefined
  50:	2029554e 	eorcs	r5, r9, lr, asr #10
  54:	2e312e34 	mrccs	14, 1, r2, cr1, cr4, {1}
  58:	47000031 	smladxmi	r0, r1, r0, r0
  5c:	203a4343 	eorcss	r4, sl, r3, asr #6
  60:	554e4728 	strplb	r4, [lr, #-1832]
  64:	2e342029 	cdpcs	0, 3, cr2, cr4, cr9, {1}
  68:	00312e31 	eoreqs	r2, r1, r1, lsr lr
  6c:	43434700 	movtmi	r4, #14080	; 0x3700
  70:	4728203a 	undefined
  74:	2029554e 	eorcs	r5, r9, lr, asr #10
  78:	2e312e34 	mrccs	14, 1, r2, cr1, cr4, {1}
  7c:	47000031 	smladxmi	r0, r1, r0, r0
  80:	203a4343 	eorcss	r4, sl, r3, asr #6
  84:	554e4728 	strplb	r4, [lr, #-1832]
  88:	2e342029 	cdpcs	0, 3, cr2, cr4, cr9, {1}
  8c:	00312e31 	eoreqs	r2, r1, r1, lsr lr
  90:	43434700 	movtmi	r4, #14080	; 0x3700
  94:	4728203a 	undefined
  98:	2029554e 	eorcs	r5, r9, lr, asr #10
  9c:	2e312e34 	mrccs	14, 1, r2, cr1, cr4, {1}
  a0:	47000031 	smladxmi	r0, r1, r0, r0
  a4:	203a4343 	eorcss	r4, sl, r3, asr #6
  a8:	554e4728 	strplb	r4, [lr, #-1832]
  ac:	2e342029 	cdpcs	0, 3, cr2, cr4, cr9, {1}
  b0:	00312e31 	eoreqs	r2, r1, r1, lsr lr
  b4:	43434700 	movtmi	r4, #14080	; 0x3700
  b8:	4728203a 	undefined
  bc:	2029554e 	eorcs	r5, r9, lr, asr #10
  c0:	2e312e34 	mrccs	14, 1, r2, cr1, cr4, {1}
  c4:	47000031 	smladxmi	r0, r1, r0, r0
  c8:	203a4343 	eorcss	r4, sl, r3, asr #6
  cc:	554e4728 	strplb	r4, [lr, #-1832]
  d0:	2e342029 	cdpcs	0, 3, cr2, cr4, cr9, {1}
  d4:	00312e31 	eoreqs	r2, r1, r1, lsr lr
  d8:	43434700 	movtmi	r4, #14080	; 0x3700
  dc:	4728203a 	undefined
  e0:	2029554e 	eorcs	r5, r9, lr, asr #10
  e4:	2e312e34 	mrccs	14, 1, r2, cr1, cr4, {1}
  e8:	47000031 	smladxmi	r0, r1, r0, r0
  ec:	203a4343 	eorcss	r4, sl, r3, asr #6
  f0:	554e4728 	strplb	r4, [lr, #-1832]
  f4:	2e342029 	cdpcs	0, 3, cr2, cr4, cr9, {1}
  f8:	00312e31 	eoreqs	r2, r1, r1, lsr lr
  fc:	43434700 	movtmi	r4, #14080	; 0x3700
 100:	4728203a 	undefined
 104:	2029554e 	eorcs	r5, r9, lr, asr #10
 108:	2e312e34 	mrccs	14, 1, r2, cr1, cr4, {1}
 10c:	47000031 	smladxmi	r0, r1, r0, r0
 110:	203a4343 	eorcss	r4, sl, r3, asr #6
 114:	554e4728 	strplb	r4, [lr, #-1832]
 118:	2e342029 	cdpcs	0, 3, cr2, cr4, cr9, {1}
 11c:	00312e31 	eoreqs	r2, r1, r1, lsr lr
 120:	43434700 	movtmi	r4, #14080	; 0x3700
 124:	4728203a 	undefined
 128:	2029554e 	eorcs	r5, r9, lr, asr #10
 12c:	2e312e34 	mrccs	14, 1, r2, cr1, cr4, {1}
 130:	47000031 	smladxmi	r0, r1, r0, r0
 134:	203a4343 	eorcss	r4, sl, r3, asr #6
 138:	554e4728 	strplb	r4, [lr, #-1832]
 13c:	2e342029 	cdpcs	0, 3, cr2, cr4, cr9, {1}
 140:	00312e31 	eoreqs	r2, r1, r1, lsr lr
 144:	43434700 	movtmi	r4, #14080	; 0x3700
 148:	4728203a 	undefined
 14c:	2029554e 	eorcs	r5, r9, lr, asr #10
 150:	2e312e34 	mrccs	14, 1, r2, cr1, cr4, {1}
 154:	47000031 	smladxmi	r0, r1, r0, r0
 158:	203a4343 	eorcss	r4, sl, r3, asr #6
 15c:	554e4728 	strplb	r4, [lr, #-1832]
 160:	2e342029 	cdpcs	0, 3, cr2, cr4, cr9, {1}
 164:	00312e31 	eoreqs	r2, r1, r1, lsr lr
 168:	43434700 	movtmi	r4, #14080	; 0x3700
 16c:	4728203a 	undefined
 170:	2029554e 	eorcs	r5, r9, lr, asr #10
 174:	2e312e34 	mrccs	14, 1, r2, cr1, cr4, {1}
 178:	47000031 	smladxmi	r0, r1, r0, r0
 17c:	203a4343 	eorcss	r4, sl, r3, asr #6
 180:	554e4728 	strplb	r4, [lr, #-1832]
 184:	2e342029 	cdpcs	0, 3, cr2, cr4, cr9, {1}
 188:	00312e31 	eoreqs	r2, r1, r1, lsr lr
 18c:	43434700 	movtmi	r4, #14080	; 0x3700
 190:	4728203a 	undefined
 194:	2029554e 	eorcs	r5, r9, lr, asr #10
 198:	2e312e34 	mrccs	14, 1, r2, cr1, cr4, {1}
 19c:	Address 0x0000019c is out of bounds.

Disassembly of section .debug_aranges:

00000000 <.debug_aranges>:
   0:	0000001c 	andeq	r0, r0, ip, lsl r0
   4:	00000002 	andeq	r0, r0, r2
   8:	00040000 	andeq	r0, r4, r0
   c:	00000000 	andeq	r0, r0, r0
  10:	a3000000 	movwge	r0, #0	; 0x0
  14:	00000008 	andeq	r0, r0, r8
	...
  20:	0000001c 	andeq	r0, r0, ip, lsl r0
  24:	005e0002 	subeqs	r0, lr, r2
  28:	00040000 	andeq	r0, r4, r0
  2c:	00000000 	andeq	r0, r0, r0
  30:	a3000008 	movwge	r0, #8	; 0x8
  34:	000000e0 	andeq	r0, r0, r0, ror #1
	...
  40:	0000001c 	andeq	r0, r0, ip, lsl r0
  44:	02c10002 	sbceq	r0, r1, #2	; 0x2
  48:	00040000 	andeq	r0, r4, r0
  4c:	00000000 	andeq	r0, r0, r0
  50:	a30000e8 	movwge	r0, #232	; 0xe8
  54:	000001cc 	andeq	r0, r0, ip, asr #3
	...
  60:	0000001c 	andeq	r0, r0, ip, lsl r0
  64:	03ec0002 	mvneq	r0, #2	; 0x2
  68:	00040000 	andeq	r0, r4, r0
  6c:	00000000 	andeq	r0, r0, r0
  70:	a30002b4 	movwge	r0, #692	; 0x2b4
  74:	00000044 	andeq	r0, r0, r4, asr #32
	...
  80:	0000001c 	andeq	r0, r0, ip, lsl r0
  84:	04e50002 	streqbt	r0, [r5], #2
  88:	00040000 	andeq	r0, r4, r0
  8c:	00000000 	andeq	r0, r0, r0
  90:	a30002f8 	movwge	r0, #760	; 0x2f8
  94:	00000044 	andeq	r0, r0, r4, asr #32
	...
  a0:	0000001c 	andeq	r0, r0, ip, lsl r0
  a4:	05e30002 	streqb	r0, [r3, #2]!
  a8:	00040000 	andeq	r0, r4, r0
  ac:	00000000 	andeq	r0, r0, r0
  b0:	a300033c 	movwge	r0, #828	; 0x33c
  b4:	00000014 	andeq	r0, r0, r4, lsl r0
	...
  c0:	0000001c 	andeq	r0, r0, ip, lsl r0
  c4:	06600002 	streqbt	r0, [r0], -r2
  c8:	00040000 	andeq	r0, r4, r0
  cc:	00000000 	andeq	r0, r0, r0
  d0:	a3000350 	movwge	r0, #848	; 0x350
  d4:	00000104 	andeq	r0, r0, r4, lsl #2
	...
  e0:	0000001c 	andeq	r0, r0, ip, lsl r0
  e4:	07500002 	ldreqb	r0, [r0, -r2]
  e8:	00040000 	andeq	r0, r4, r0
  ec:	00000000 	andeq	r0, r0, r0
  f0:	a3000454 	movwge	r0, #1108	; 0x454
  f4:	00000268 	andeq	r0, r0, r8, ror #4
	...
 100:	0000001c 	andeq	r0, r0, ip, lsl r0
 104:	0a300002 	beq	c00114 <_start-0xa23ffeec>
 108:	00040000 	andeq	r0, r4, r0
 10c:	00000000 	andeq	r0, r0, r0
 110:	a30006bc 	movwge	r0, #1724	; 0x6bc
 114:	000001b4 	streqh	r0, [r0], -r4
	...
 120:	0000001c 	andeq	r0, r0, ip, lsl r0
 124:	0e4e0002 	cdpeq	0, 4, cr0, cr14, cr2, {0}
 128:	00040000 	andeq	r0, r4, r0
 12c:	00000000 	andeq	r0, r0, r0
 130:	a3000870 	movwge	r0, #2160	; 0x870
 134:	0000018c 	andeq	r0, r0, ip, lsl #3
	...
 140:	0000001c 	andeq	r0, r0, ip, lsl r0
 144:	10f50002 	rscnes	r0, r5, r2
 148:	00040000 	andeq	r0, r4, r0
 14c:	00000000 	andeq	r0, r0, r0
 150:	a30009fc 	movwge	r0, #2556	; 0x9fc
 154:	00000054 	andeq	r0, r0, r4, asr r0
	...
 160:	0000001c 	andeq	r0, r0, ip, lsl r0
 164:	11530002 	cmpne	r3, r2
 168:	00040000 	andeq	r0, r4, r0
 16c:	00000000 	andeq	r0, r0, r0
 170:	a3000a50 	movwge	r0, #2640	; 0xa50
 174:	00000048 	andeq	r0, r0, r8, asr #32
	...
 180:	0000001c 	andeq	r0, r0, ip, lsl r0
 184:	11b70002 	movnes	r0, r2
 188:	00040000 	andeq	r0, r4, r0
 18c:	00000000 	andeq	r0, r0, r0
 190:	a3000a98 	movwge	r0, #2712	; 0xa98
 194:	0000000c 	andeq	r0, r0, ip
	...
 1a0:	0000001c 	andeq	r0, r0, ip, lsl r0
 1a4:	12140002 	andnes	r0, r4, #2	; 0x2
 1a8:	00040000 	andeq	r0, r4, r0
 1ac:	00000000 	andeq	r0, r0, r0
 1b0:	a3000aa4 	movwge	r0, #2724	; 0xaa4
 1b4:	00000074 	andeq	r0, r0, r4, ror r0
	...
 1c0:	0000001c 	andeq	r0, r0, ip, lsl r0
 1c4:	12a80002 	adcne	r0, r8, #2	; 0x2
 1c8:	00040000 	andeq	r0, r4, r0
 1cc:	00000000 	andeq	r0, r0, r0
 1d0:	a3000b18 	movwge	r0, #2840	; 0xb18
 1d4:	000000fc 	streqd	r0, [r0], -ip
	...
 1e0:	0000001c 	andeq	r0, r0, ip, lsl r0
 1e4:	15210002 	strne	r0, [r1, #-2]!
 1e8:	00040000 	andeq	r0, r4, r0
 1ec:	00000000 	andeq	r0, r0, r0
 1f0:	a3000c14 	movwge	r0, #3092	; 0xc14
 1f4:	00000048 	andeq	r0, r0, r8, asr #32
	...
 200:	0000001c 	andeq	r0, r0, ip, lsl r0
 204:	16a30002 	strnet	r0, [r3], r2
 208:	00040000 	andeq	r0, r4, r0
 20c:	00000000 	andeq	r0, r0, r0
 210:	a3000c5c 	movwge	r0, #3164	; 0xc5c
 214:	00000010 	andeq	r0, r0, r0, lsl r0
	...
 220:	0000001c 	andeq	r0, r0, ip, lsl r0
 224:	17370002 	ldrne	r0, [r7, -r2]!
 228:	00040000 	andeq	r0, r4, r0
 22c:	00000000 	andeq	r0, r0, r0
 230:	a3000c6c 	movwge	r0, #3180	; 0xc6c
 234:	00000188 	andeq	r0, r0, r8, lsl #3
	...
 240:	0000001c 	andeq	r0, r0, ip, lsl r0
 244:	195a0002 	ldmnedb	sl, {r1}^
 248:	00040000 	andeq	r0, r4, r0
 24c:	00000000 	andeq	r0, r0, r0
 250:	a3000df4 	movwge	r0, #3572	; 0xdf4
 254:	00000040 	andeq	r0, r0, r0, asr #32
	...
 260:	0000001c 	andeq	r0, r0, ip, lsl r0
 264:	1ac00002 	bne	ff000274 <__bss_end__+0x5bfbbac0>
 268:	00040000 	andeq	r0, r4, r0
 26c:	00000000 	andeq	r0, r0, r0
 270:	a3000e34 	movwge	r0, #3636	; 0xe34
 274:	00000010 	andeq	r0, r0, r0, lsl r0
	...
 280:	0000001c 	andeq	r0, r0, ip, lsl r0
 284:	1b7f0002 	blne	1fc0294 <_start-0xa103fd6c>
 288:	00040000 	andeq	r0, r4, r0
 28c:	00000000 	andeq	r0, r0, r0
 290:	a3000e44 	movwge	r0, #3652	; 0xe44
 294:	00000060 	andeq	r0, r0, r0, rrx
	...
 2a0:	0000001c 	andeq	r0, r0, ip, lsl r0
 2a4:	1c130002 	ldcne	0, cr0, [r3], {2}
 2a8:	00040000 	andeq	r0, r4, r0
 2ac:	00000000 	andeq	r0, r0, r0
 2b0:	a3000ea4 	movwge	r0, #3748	; 0xea4
 2b4:	00000170 	andeq	r0, r0, r0, ror r1
	...
 2c0:	0000001c 	andeq	r0, r0, ip, lsl r0
 2c4:	1d8d0002 	stcne	0, cr0, [sp, #8]
 2c8:	00040000 	andeq	r0, r4, r0
 2cc:	00000000 	andeq	r0, r0, r0
 2d0:	a3001014 	movwge	r1, #20	; 0x14
 2d4:	00000118 	andeq	r0, r0, r8, lsl r1
	...
 2e0:	0000001c 	andeq	r0, r0, ip, lsl r0
 2e4:	20190002 	andcss	r0, r9, r2
 2e8:	00040000 	andeq	r0, r4, r0
 2ec:	00000000 	andeq	r0, r0, r0
 2f0:	a300112c 	movwge	r1, #300	; 0x12c
 2f4:	00000080 	andeq	r0, r0, r0, lsl #1
	...
 300:	0000001c 	andeq	r0, r0, ip, lsl r0
 304:	22250002 	eorcs	r0, r5, #2	; 0x2
 308:	00040000 	andeq	r0, r4, r0
 30c:	00000000 	andeq	r0, r0, r0
 310:	a30011ac 	movwge	r1, #428	; 0x1ac
 314:	000001e4 	andeq	r0, r0, r4, ror #3
	...
 320:	0000001c 	andeq	r0, r0, ip, lsl r0
 324:	25850002 	strcs	r0, [r5, #2]
 328:	00040000 	andeq	r0, r4, r0
 32c:	00000000 	andeq	r0, r0, r0
 330:	a3001390 	movwge	r1, #912	; 0x390
 334:	00000008 	andeq	r0, r0, r8
	...
 340:	0000001c 	andeq	r0, r0, ip, lsl r0
 344:	26bc0002 	ldrcst	r0, [ip], r2
 348:	00040000 	andeq	r0, r4, r0
 34c:	00000000 	andeq	r0, r0, r0
 350:	a3001398 	movwge	r1, #920	; 0x398
 354:	00000328 	andeq	r0, r0, r8, lsr #6
	...
 360:	0000001c 	andeq	r0, r0, ip, lsl r0
 364:	29c60002 	stmcsib	r6, {r1}^
 368:	00040000 	andeq	r0, r4, r0
 36c:	00000000 	andeq	r0, r0, r0
 370:	a30016c0 	movwge	r1, #1728	; 0x6c0
 374:	00000078 	andeq	r0, r0, r8, ror r0
	...
 380:	0000001c 	andeq	r0, r0, ip, lsl r0
 384:	2a630002 	bcs	18c0394 <_start-0xa173fc6c>
 388:	00040000 	andeq	r0, r4, r0
 38c:	00000000 	andeq	r0, r0, r0
 390:	a3001738 	movwge	r1, #1848	; 0x738
 394:	0000017c 	andeq	r0, r0, ip, ror r1
	...
 3a0:	0000001c 	andeq	r0, r0, ip, lsl r0
 3a4:	2d960002 	ldccs	0, cr0, [r6, #8]
 3a8:	00040000 	andeq	r0, r4, r0
 3ac:	00000000 	andeq	r0, r0, r0
 3b0:	a30018b4 	movwge	r1, #2228	; 0x8b4
 3b4:	00000610 	andeq	r0, r0, r0, lsl r6
	...
 3c0:	0000001c 	andeq	r0, r0, ip, lsl r0
 3c4:	32ec0002 	rsccc	r0, ip, #2	; 0x2
 3c8:	00040000 	andeq	r0, r4, r0
 3cc:	00000000 	andeq	r0, r0, r0
 3d0:	a3001ec4 	movwge	r1, #3780	; 0xec4
 3d4:	000000b0 	streqh	r0, [r0], -r0
	...
Disassembly of section .debug_pubnames:

00000000 <.debug_pubnames>:
   0:	0000002a 	andeq	r0, r0, sl, lsr #32
   4:	005e0002 	subeqs	r0, lr, r2
   8:	02630000 	rsbeq	r0, r3, #0	; 0x0
   c:	01b40000 	moveqs	r0, r0
  10:	65720000 	ldrvsb	r0, [r2]!
  14:	74736967 	ldrvcbt	r6, [r3], #-2407
  18:	645f7265 	ldrvsb	r7, [pc], #613	; 20 <_start-0xa2ffffe0>
  1c:	00706d75 	rsbeqs	r6, r0, r5, ror sp
  20:	000001fd 	streqd	r0, [r0], -sp
  24:	696e6170 	stmvsdb	lr!, {r4, r5, r6, r8, sp, lr}^
  28:	00000063 	andeq	r0, r0, r3, rrx
  2c:	004b0000 	subeq	r0, fp, r0
  30:	00020000 	andeq	r0, r2, r0
  34:	000002c1 	andeq	r0, r0, r1, asr #5
  38:	0000012b 	andeq	r0, r0, fp, lsr #2
  3c:	00000079 	andeq	r0, r0, r9, ror r0
  40:	69616d6b 	stmvsdb	r1!, {r0, r1, r3, r5, r6, r8, sl, fp, sp, lr}^
  44:	00f4006e 	rsceqs	r0, r4, lr, rrx
  48:	6c670000 	stcvsl	0, cr0, [r7]
  4c:	6c61626f 	sfmvs	f6, 2, [r1], #-444
  50:	7461645f 	strvcbt	r6, [r1], #-1119
  54:	01060061 	tsteq	r6, r1, rrx
  58:	6c670000 	stcvsl	0, cr0, [r7]
  5c:	6c61626f 	sfmvs	f6, 2, [r1], #-444
  60:	7461645f 	strvcbt	r6, [r1], #-1119
  64:	18003261 	stmneda	r0, {r0, r5, r6, r9, ip, sp}
  68:	64000001 	strvs	r0, [r0], #-1
  6c:	67756265 	ldrvsb	r6, [r5, -r5, ror #4]!
  70:	616e655f 	cmnvs	lr, pc, asr r5
  74:	64656c62 	strvsbt	r6, [r5], #-3170
  78:	00000000 	andeq	r0, r0, r0
  7c:	00002700 	andeq	r2, r0, r0, lsl #14
  80:	ec000200 	sfm	f0, 4, [r0], {0}
  84:	f9000003 	undefined instruction 0xf9000003
  88:	72000000 	andvc	r0, r0, #0	; 0x0
  8c:	73000000 	movwvc	r0, #0	; 0x0
  90:	725f6d75 	subvcs	r6, pc, #7488	; 0x1d40
  94:	6f696765 	svcvs	0x00696765
  98:	00c8006e 	sbceq	r0, r8, lr, rrx
  9c:	6c690000 	stcvsl	0, cr0, [r9]
  a0:	0032676f 	eoreqs	r6, r2, pc, ror #14
  a4:	00000000 	andeq	r0, r0, r0
  a8:	0000001d 	andeq	r0, r0, sp, lsl r0
  ac:	04e50002 	streqbt	r0, [r5], #2
  b0:	00fe0000 	rsceqs	r0, lr, r0
  b4:	00880000 	addeq	r0, r8, r0
  b8:	61760000 	cmnvs	r6, r0
  bc:	5f64696c 	svcpl	0x0064696c
  c0:	72646461 	rsbvc	r6, r4, #1627389952	; 0x61000000
  c4:	00000000 	andeq	r0, r0, r0
  c8:	00001800 	andeq	r1, r0, r0, lsl #16
  cc:	e3000200 	movw	r0, #512	; 0x200
  d0:	7d000005 	stcvc	0, cr0, [r0, #-20]
  d4:	67000000 	strvs	r0, [r0, -r0]
  d8:	72000000 	andvc	r0, r0, #0	; 0x0
  dc:	65736961 	ldrvsb	r6, [r3, #-2401]!
  e0:	00000000 	andeq	r0, r0, r0
  e4:	00001a00 	andeq	r1, r0, r0, lsl #20
  e8:	60000200 	andvs	r0, r0, r0, lsl #4
  ec:	f0000006 	undefined instruction 0xf0000006
  f0:	90000000 	andls	r0, r0, r0
  f4:	68000000 	stmvsda	r0, {}
  f8:	75647865 	strvcb	r7, [r4, #-2149]!
  fc:	0000706d 	andeq	r7, r0, sp, rrx
 100:	9b000000 	blls	108 <_start-0xa2fffef8>
 104:	02000000 	andeq	r0, r0, #0	; 0x0
 108:	00075000 	andeq	r5, r7, r0
 10c:	0002e000 	andeq	lr, r2, r0
 110:	00007900 	andeq	r7, r0, r0, lsl #18
 114:	72697700 	rsbvc	r7, r9, #0	; 0x0
 118:	78655f65 	stmvcda	r5!, {r0, r2, r5, r6, r8, r9, sl, fp, ip, lr}^
 11c:	74706563 	ldrvcbt	r6, [r0], #-1379
 120:	5f6e6f69 	svcpl	0x006e6f69
 124:	646e6168 	strvsbt	r6, [lr], #-360
 128:	0072656c 	rsbeqs	r6, r2, ip, ror #10
 12c:	000000da 	ldreqd	r0, [r0], -sl
 130:	75746573 	ldrvcb	r6, [r4, #-1395]!
 134:	73755f70 	cmnvc	r5, #448	; 0x1c0
 138:	735f7265 	cmpvc	pc, #1342177286	; 0x50000006
 13c:	6b636174 	blvs	18d8714 <_start-0xa17278ec>
 140:	0000ec00 	andeq	lr, r0, r0, lsl #24
 144:	73657200 	cmnvc	r5, #0	; 0x0
 148:	65726f74 	ldrvsb	r6, [r2, #-3956]!
 14c:	6e61685f 	mcrvs	8, 3, r6, cr1, cr15, {2}
 150:	72656c64 	rsbvc	r6, r5, #25600	; 0x6400
 154:	01380073 	teqeq	r8, r3, ror r0
 158:	65730000 	ldrvsb	r0, [r3]!
 15c:	5f707574 	svcpl	0x00707574
 160:	5f717269 	svcpl	0x00717269
 164:	63617473 	cmnvs	r1, #1929379840	; 0x73000000
 168:	01ad006b 	moveq	r0, fp, rrx
 16c:	65730000 	ldrvsb	r0, [r3]!
 170:	5f707574 	svcpl	0x00707574
 174:	726f6261 	rsbvc	r6, pc, #268435462	; 0x10000006
 178:	74735f74 	ldrvcbt	r5, [r3], #-3956
 17c:	006b6361 	rsbeq	r6, fp, r1, ror #6
 180:	000002bb 	streqh	r0, [r0], -fp
 184:	726f6261 	rsbvc	r6, pc, #268435462	; 0x10000006
 188:	74735f74 	ldrvcbt	r5, [r3], #-3956
 18c:	006b6361 	rsbeq	r6, fp, r1, ror #6
 190:	000002cd 	andeq	r0, r0, sp, asr #5
 194:	5f717269 	svcpl	0x00717269
 198:	63617473 	cmnvs	r1, #1929379840	; 0x73000000
 19c:	0000006b 	andeq	r0, r0, fp, rrx
 1a0:	00440000 	subeq	r0, r4, r0
 1a4:	00020000 	andeq	r0, r2, r0
 1a8:	00000a30 	andeq	r0, r0, r0, lsr sl
 1ac:	0000041e 	andeq	r0, r0, lr, lsl r4
 1b0:	00000220 	andeq	r0, r0, r0, lsr #4
 1b4:	5f766564 	svcpl	0x00766564
 1b8:	61647075 	smcvs	18181
 1bc:	db006574 	blle	19794 <_start-0xa2fe686c>
 1c0:	64000002 	strvs	r0, [r0], #-2
 1c4:	695f7665 	ldmvsdb	pc, {r0, r2, r5, r6, r9, sl, ip, sp, lr}^
 1c8:	0074696e 	rsbeqs	r6, r4, lr, ror #18
 1cc:	00000346 	andeq	r0, r0, r6, asr #6
 1d0:	5f766564 	svcpl	0x00766564
 1d4:	74696177 	strvcbt	r6, [r9], #-375
 1d8:	0003f900 	andeq	pc, r3, r0, lsl #18
 1dc:	76656400 	strvcbt	r6, [r5], -r0, lsl #8
 1e0:	6572665f 	ldrvsb	r6, [r2, #-1631]!
 1e4:	00000071 	andeq	r0, r0, r1, ror r0
 1e8:	00b70000 	adceqs	r0, r7, r0
 1ec:	00020000 	andeq	r0, r2, r0
 1f0:	00000e4e 	andeq	r0, r0, lr, asr #28
 1f4:	000002a7 	andeq	r0, r0, r7, lsr #5
 1f8:	0000007c 	andeq	r0, r0, ip, ror r0
 1fc:	73617369 	cmnvc	r1, #-1543503871	; 0xa4000001
 200:	00696963 	rsbeq	r6, r9, r3, ror #18
 204:	000000a5 	andeq	r0, r0, r5, lsr #1
 208:	6e637369 	cdpvs	3, 6, cr7, cr3, cr9, {3}
 20c:	006c7274 	rsbeq	r7, ip, r4, ror r2
 210:	000000ce 	andeq	r0, r0, lr, asr #1
 214:	69647369 	stmvsdb	r4!, {r0, r3, r5, r6, r8, r9, ip, sp, lr}^
 218:	00746967 	rsbeqs	r6, r4, r7, ror #18
 21c:	00000107 	andeq	r0, r0, r7, lsl #2
 220:	72677369 	rsbvc	r7, r7, #-1543503871	; 0xa4000001
 224:	00687061 	rsbeq	r7, r8, r1, rrx
 228:	00000124 	andeq	r0, r0, r4, lsr #2
 22c:	6f6c7369 	svcvs	0x006c7369
 230:	00726577 	rsbeqs	r6, r2, r7, ror r5
 234:	00000141 	andeq	r0, r0, r1, asr #2
 238:	72707369 	rsbvcs	r7, r0, #-1543503871	; 0xa4000001
 23c:	00746e69 	rsbeqs	r6, r4, r9, ror #28
 240:	0000016a 	andeq	r0, r0, sl, ror #2
 244:	70737369 	rsbvcs	r7, r3, r9, ror #6
 248:	00656361 	rsbeq	r6, r5, r1, ror #6
 24c:	00000193 	muleq	r0, r3, r1
 250:	70757369 	rsbvcs	r7, r5, r9, ror #6
 254:	00726570 	rsbeqs	r6, r2, r0, ror r5
 258:	000001b0 	streqh	r0, [r0], -r0
 25c:	6c617369 	stcvsl	3, cr7, [r1], #-420
 260:	00616870 	rsbeq	r6, r1, r0, ror r8
 264:	000001d9 	ldreqd	r0, [r0], -r9
 268:	6c617369 	stcvsl	3, cr7, [r1], #-420
 26c:	006d756e 	rsbeq	r7, sp, lr, ror #10
 270:	00000204 	andeq	r0, r0, r4, lsl #4
 274:	6f6c6f74 	svcvs	0x006c6f74
 278:	00726577 	rsbeqs	r6, r2, r7, ror r5
 27c:	0000022d 	andeq	r0, r0, sp, lsr #4
 280:	64787369 	ldrvsbt	r7, [r8], #-873
 284:	74696769 	strvcbt	r6, [r9], #-1897
 288:	00025600 	andeq	r5, r2, r0, lsl #12
 28c:	70736900 	rsbvcs	r6, r3, r0, lsl #18
 290:	74636e75 	strvcbt	r6, [r3], #-3701
 294:	00028100 	andeq	r8, r2, r0, lsl #2
 298:	756f7400 	strvcb	r7, [pc, #-1024]!	; fffffea0 <__bss_end__+0x5cfbb6ec>
 29c:	72657070 	rsbvc	r7, r5, #112	; 0x70
 2a0:	00000000 	andeq	r0, r0, r0
 2a4:	00007000 	andeq	r7, r0, r0
 2a8:	a8000200 	stmgeda	r0, {r9}
 2ac:	79000012 	stmvcdb	r0, {r1, r4}
 2b0:	84000002 	strhi	r0, [r0], #-2
 2b4:	73000000 	movwvc	r0, #0	; 0x0
 2b8:	70757465 	rsbvcs	r7, r5, r5, ror #8
 2bc:	6174735f 	cmnvs	r4, pc, asr r3
 2c0:	f3006b63 	vqrdmulh.s<illegal width 8>	q3, q0, <illegal reg q9.5>
 2c4:	75000000 	strvc	r0, [r0]
 2c8:	736e696e 	cmnvc	lr, #1802240	; 0x1b8000
 2cc:	6c6c6174 	stfvse	f6, [ip], #-464
 2d0:	6e61685f 	mcrvs	8, 3, r6, cr1, cr15, {2}
 2d4:	72656c64 	rsbvc	r6, r5, #25600	; 0x6400
 2d8:	00014a00 	andeq	r4, r1, r0, lsl #20
 2dc:	696e6900 	stmvsdb	lr!, {r8, fp, sp, lr}^
 2e0:	6c616974 	stcvsl	9, cr6, [r1], #-464
 2e4:	5f657a69 	svcpl	0x00657a69
 2e8:	656d6974 	strvsb	r6, [sp, #-2420]!
 2ec:	02030072 	andeq	r0, r3, #114	; 0x72
 2f0:	6e750000 	cdpvs	0, 7, cr0, cr5, cr0, {0}
 2f4:	74696e69 	strvcbt	r6, [r9], #-3689
 2f8:	696c6169 	stmvsdb	ip!, {r0, r3, r5, r6, r8, sp, lr}^
 2fc:	745f657a 	ldrvcb	r6, [pc], #1402	; 304 <_start-0xa2fffcfc>
 300:	72656d69 	rsbvc	r6, r5, #6720	; 0x1a40
 304:	00025400 	andeq	r5, r2, r0, lsl #8
 308:	72656b00 	rsbvc	r6, r5, #0	; 0x0
 30c:	5f6c656e 	svcpl	0x006c656e
 310:	656d6974 	strvsb	r6, [sp, #-2420]!
 314:	00000000 	andeq	r0, r0, r0
 318:	00002d00 	andeq	r2, r0, r0, lsl #26
 31c:	21000200 	tstcs	r0, r0, lsl #4
 320:	82000015 	andhi	r0, r0, #21	; 0x15
 324:	c7000001 	strgt	r0, [r0, -r1]
 328:	63000000 	movwvs	r0, #0	; 0x0
 32c:	7172695f 	cmnvc	r2, pc, asr r9
 330:	6e61685f 	mcrvs	8, 3, r6, cr1, cr15, {2}
 334:	72656c64 	rsbvc	r6, r5, #25600	; 0x6400
 338:	00016a00 	andeq	r6, r1, r0, lsl #20
 33c:	656c7300 	strvsb	r7, [ip, #-768]!
 340:	6e697065 	cdpvs	0, 6, cr7, cr9, cr5, {3}
 344:	00000067 	andeq	r0, r0, r7, rrx
 348:	002b0000 	eoreq	r0, fp, r0
 34c:	00020000 	andeq	r0, r2, r0
 350:	00001737 	andeq	r1, r0, r7, lsr r7
 354:	00000223 	andeq	r0, r0, r3, lsr #4
 358:	00000111 	andeq	r0, r0, r1, lsl r1
 35c:	78655f63 	stmvcda	r5!, {r0, r1, r5, r6, r8, r9, sl, fp, ip, lr}^
 360:	6c007469 	cfstrsvs	mvf7, [r0], {105}
 364:	63000001 	movwvs	r0, #1	; 0x1
 368:	6977735f 	ldmvsdb	r7!, {r0, r1, r2, r3, r4, r6, r8, r9, ip, sp, lr}^
 36c:	6e61685f 	mcrvs	8, 3, r6, cr1, cr15, {2}
 370:	72656c64 	rsbvc	r6, r5, #25600	; 0x6400
 374:	00000000 	andeq	r0, r0, r0
 378:	00004300 	andeq	r4, r0, r0, lsl #6
 37c:	5a000200 	bpl	b84 <_start-0xa2fff47c>
 380:	66000019 	undefined
 384:	7d000001 	stcvc	0, cr0, [r0, #-4]
 388:	72000000 	andvc	r0, r0, #0	; 0x0
 38c:	725f6765 	subvcs	r6, pc, #26476544	; 0x1940000
 390:	00646165 	rsbeq	r6, r4, r5, ror #2
 394:	000000a8 	andeq	r0, r0, r8, lsr #1
 398:	5f676572 	svcpl	0x00676572
 39c:	74697277 	strvcbt	r7, [r9], #-631
 3a0:	00dc0065 	sbceqs	r0, ip, r5, rrx
 3a4:	65720000 	ldrvsb	r0, [r2]!
 3a8:	65735f67 	ldrvsb	r5, [r3, #-3943]!
 3ac:	01280074 	teqeq	r8, r4, ror r0
 3b0:	65720000 	ldrvsb	r0, [r2]!
 3b4:	6c635f67 	stcvsl	15, cr5, [r3], #-412
 3b8:	00726165 	rsbeqs	r6, r2, r5, ror #2
 3bc:	00000000 	andeq	r0, r0, r0
 3c0:	0000002b 	andeq	r0, r0, fp, lsr #32
 3c4:	1ac00002 	bne	ff0003d4 <__bss_end__+0x5bfbbc20>
 3c8:	00bf0000 	adceqs	r0, pc, r0
 3cc:	00720000 	rsbeqs	r0, r2, r0
 3d0:	65720000 	ldrvsb	r0, [r2]!
 3d4:	635f6461 	cmpvs	pc, #1627389952	; 0x61000000
 3d8:	00727370 	rsbeqs	r7, r2, r0, ror r3
 3dc:	0000009d 	muleq	r0, sp, r0
 3e0:	74697277 	strvcbt	r7, [r9], #-631
 3e4:	70635f65 	rsbvc	r5, r3, r5, ror #30
 3e8:	00007273 	andeq	r7, r0, r3, ror r2
 3ec:	31000000 	tstcc	r0, r0
 3f0:	02000000 	andeq	r0, r0, #0	; 0x0
 3f4:	001c1300 	andeqs	r1, ip, r0, lsl #6
 3f8:	00017a00 	andeq	r7, r1, r0, lsl #20
 3fc:	00008600 	andeq	r8, r0, r0, lsl #12
 400:	69727700 	ldmvsdb	r2!, {r8, r9, sl, ip, sp, lr}^
 404:	735f6574 	cmpvc	pc, #486539264	; 0x1d000000
 408:	61637379 	smcvs	14137
 40c:	f9006c6c 	undefined instruction 0xf9006c6c
 410:	72000000 	andvc	r0, r0, #0	; 0x0
 414:	5f646165 	svcpl	0x00646165
 418:	63737973 	cmnvs	r3, #1884160	; 0x1cc000
 41c:	006c6c61 	rsbeq	r6, ip, r1, ror #24
 420:	00000000 	andeq	r0, r0, r0
 424:	00000041 	andeq	r0, r0, r1, asr #32
 428:	1d8d0002 	stcne	0, cr0, [sp, #8]
 42c:	028c0000 	addeq	r0, ip, #0	; 0x0
 430:	01170000 	tsteq	r7, r0
 434:	6e690000 	cdpvs	0, 6, cr0, cr9, cr0, {0}
 438:	696c6176 	stmvsdb	ip!, {r1, r2, r4, r5, r6, r8, sp, lr}^
 43c:	79735f64 	ldmvcdb	r3!, {r2, r5, r6, r8, r9, sl, fp, ip, lr}^
 440:	6c616373 	stcvsl	3, cr6, [r1], #-460
 444:	017b006c 	cmneq	fp, ip, rrx
 448:	61740000 	cmnvs	r4, r0
 44c:	635f6b73 	cmpvs	pc, #117760	; 0x1cc00
 450:	74616572 	strvcbt	r6, [r1], #-1394
 454:	02070065 	andeq	r0, r7, #101	; 0x65
 458:	76650000 	strvcbt	r0, [r5], -r0
 45c:	5f746e65 	svcpl	0x00746e65
 460:	74696177 	strvcbt	r6, [r9], #-375
 464:	00000000 	andeq	r0, r0, r0
 468:	00003100 	andeq	r3, r0, r0, lsl #2
 46c:	19000200 	stmnedb	r0, {r9}
 470:	0c000020 	stceq	0, cr0, [r0], {32}
 474:	ad000002 	stcge	0, cr0, [r0, #-8]
 478:	74000000 	strvc	r0, [r0]
 47c:	5f656d69 	svcpl	0x00656d69
 480:	63737973 	cmnvs	r3, #1884160	; 0x1cc000
 484:	006c6c61 	rsbeq	r6, ip, r1, ror #24
 488:	00000122 	andeq	r0, r0, r2, lsr #2
 48c:	65656c73 	strvsb	r6, [r5, #-3187]!
 490:	79735f70 	ldmvcdb	r3!, {r4, r5, r6, r8, r9, sl, fp, ip, lr}^
 494:	6c616373 	stcvsl	3, cr6, [r1], #-460
 498:	0000006c 	andeq	r0, r0, ip, rrx
 49c:	003f0000 	eoreqs	r0, pc, r0
 4a0:	00020000 	andeq	r0, r2, r0
 4a4:	00002225 	andeq	r2, r0, r5, lsr #4
 4a8:	00000360 	andeq	r0, r0, r0, ror #6
 4ac:	0000023a 	andeq	r0, r0, sl, lsr r2
 4b0:	65686373 	strvsb	r6, [r8, #-883]!
 4b4:	6e695f64 	cdpvs	15, 6, cr5, cr9, cr4, {3}
 4b8:	b9007469 	stmltdb	r0, {r0, r3, r5, r6, sl, ip, sp, lr}
 4bc:	61000002 	tstvs	r0, r2
 4c0:	636f6c6c 	cmnvs	pc, #27648	; 0x6c00
 4c4:	5f657461 	svcpl	0x00657461
 4c8:	6b736174 	blvs	1cd8aa0 <_start-0xa1327560>
 4cc:	03480073 	movteq	r0, #32883	; 0x8073
 4d0:	79730000 	ldmvcdb	r3!, {}^
 4d4:	6d657473 	cfstrdvs	mvd7, [r5, #-460]!
 4d8:	6263745f 	rsbvs	r7, r3, #1593835520	; 0x5f000000
 4dc:	00000000 	andeq	r0, r0, r0
 4e0:	00002200 	andeq	r2, r0, r0, lsl #4
 4e4:	85000200 	strhi	r0, [r0, #-512]
 4e8:	37000025 	strcc	r0, [r0, -r5, lsr #32]
 4ec:	f2000001 	vhadd.s8	d0, d0, d1
 4f0:	61000000 	tstvs	r0, r0
 4f4:	67697373 	undefined
 4f8:	63735f6e 	cmnvs	r3, #440	; 0x1b8
 4fc:	75646568 	strvcb	r6, [r4, #-1384]!
 500:	0000656c 	andeq	r6, r0, ip, ror #10
 504:	96000000 	strls	r0, [r0], -r0
 508:	02000000 	andeq	r0, r0, #0	; 0x0
 50c:	0026bc00 	eoreq	fp, r6, r0, lsl #24
 510:	00030a00 	andeq	r0, r3, r0, lsl #20
 514:	0001b800 	andeq	fp, r1, r0, lsl #16
 518:	74656700 	strvcbt	r6, [r5], #-1792
 51c:	7275635f 	rsbvcs	r6, r5, #2080374785	; 0x7c000001
 520:	6972705f 	ldmvsdb	r2!, {r0, r1, r2, r3, r4, r6, ip, sp, lr}^
 524:	01cf006f 	biceq	r0, pc, pc, rrx
 528:	65670000 	strvsb	r0, [r7]!
 52c:	75635f74 	strvcb	r5, [r3, #-3956]!
 530:	63745f72 	cmnvs	r4, #456	; 0x1c8
 534:	01e60062 	mvneq	r0, r2, rrx
 538:	65670000 	strvsb	r0, [r7]!
 53c:	736b5f74 	cmnvc	fp, #464	; 0x1d0
 540:	6b636174 	blvs	18d8b18 <_start-0xa17274e8>
 544:	0001fd00 	andeq	pc, r1, r0, lsl #26
 548:	73696400 	cmnvc	r9, #0	; 0x0
 54c:	63746170 	cmnvs	r4, #28	; 0x1c
 550:	6e695f68 	cdpvs	15, 6, cr5, cr9, cr8, {3}
 554:	24007469 	strcs	r7, [r0], #-1129
 558:	63000002 	movwvs	r0, #2	; 0x2
 55c:	645f7874 	ldrvsb	r7, [pc], #2164	; 564 <_start-0xa2fffa9c>
 560:	00706d75 	rsbeqs	r6, r0, r5, ror sp
 564:	00000262 	andeq	r0, r0, r2, ror #4
 568:	70736964 	rsbvcs	r6, r3, r4, ror #18
 56c:	68637461 	stmvsda	r3!, {r0, r5, r6, sl, ip, sp, lr}^
 570:	656c735f 	strvsb	r7, [ip, #-863]!
 574:	94007065 	strls	r7, [r0], #-101
 578:	64000002 	strvs	r0, [r0], #-2
 57c:	61707369 	cmnvs	r0, r9, ror #6
 580:	5f686374 	svcpl	0x00686374
 584:	61736f6e 	cmnvs	r3, lr, ror #30
 588:	b9006576 	stmltdb	r0, {r1, r2, r4, r5, r6, r8, sl, sp, lr}
 58c:	64000002 	strvs	r0, [r0], #-2
 590:	61707369 	cmnvs	r0, r9, ror #6
 594:	5f686374 	svcpl	0x00686374
 598:	65766173 	ldrvsb	r6, [r6, #-371]!
 59c:	00000000 	andeq	r0, r0, r0
 5a0:	00005600 	andeq	r5, r0, r0, lsl #12
 5a4:	63000200 	movwvs	r0, #512	; 0x200
 5a8:	3300002a 	movwcc	r0, #42	; 0x2a
 5ac:	b8000003 	stmltda	r0, {r0, r1}
 5b0:	72000001 	andvc	r0, r0, #1	; 0x1
 5b4:	75716e75 	ldrvcb	r6, [r1, #-3701]!
 5b8:	5f657565 	svcpl	0x00657565
 5bc:	74696e69 	strvcbt	r6, [r9], #-3689
 5c0:	0001d900 	andeq	sp, r1, r0, lsl #18
 5c4:	67696800 	strvsb	r6, [r9, -r0, lsl #16]!
 5c8:	74736568 	ldrvcbt	r6, [r3], #-1384
 5cc:	6972705f 	ldmvsdb	r2!, {r0, r1, r2, r3, r4, r6, ip, sp, lr}^
 5d0:	0214006f 	andeqs	r0, r4, #111	; 0x6f
 5d4:	75720000 	ldrvcb	r0, [r2]!
 5d8:	6575716e 	ldrvsb	r7, [r5, #-366]!
 5dc:	725f6575 	subvcs	r6, pc, #490733568	; 0x1d400000
 5e0:	766f6d65 	strvcbt	r6, [pc], -r5, ror #26
 5e4:	02620065 	rsbeq	r0, r2, #101	; 0x65
 5e8:	75720000 	ldrvcb	r0, [r2]!
 5ec:	6575716e 	ldrvsb	r7, [r5, #-366]!
 5f0:	615f6575 	cmpvs	pc, r5, ror r5
 5f4:	00006464 	andeq	r6, r0, r4, ror #8
 5f8:	66000000 	strvs	r0, [r0], -r0
 5fc:	02000000 	andeq	r0, r0, #0	; 0x0
 600:	002d9600 	eoreq	r9, sp, r0, lsl #12
 604:	00055600 	andeq	r5, r5, r0, lsl #12
 608:	00026000 	andeq	r6, r2, r0
 60c:	74756d00 	ldrvcbt	r6, [r5], #-3328
 610:	755f7865 	ldrvcb	r7, [pc, #-2149]	; fffffdb3 <__bss_end__+0x5cfbb5ff>
 614:	636f6c6e 	cmnvs	pc, #28160	; 0x6e00
 618:	0341006b 	movteq	r0, #4203	; 0x106b
 61c:	756d0000 	strvcb	r0, [sp]!
 620:	5f786574 	svcpl	0x00786574
 624:	74696e69 	strvcbt	r6, [r9], #-3689
 628:	0003a500 	andeq	sl, r3, r0, lsl #10
 62c:	74756d00 	ldrvcbt	r6, [r5], #-3328
 630:	635f7865 	cmpvs	pc, #6619136	; 0x650000
 634:	74616572 	strvcbt	r6, [r1], #-1394
 638:	04340065 	ldreqt	r0, [r4], #-101
 63c:	756d0000 	strvcb	r0, [sp]!
 640:	5f786574 	svcpl	0x00786574
 644:	6b636f6c 	blvs	18dc3fc <_start-0xa1723c04>
 648:	00053100 	andeq	r3, r5, r0, lsl #2
 64c:	4d746700 	ldcmil	7, cr6, [r4]
 650:	78657475 	stmvcda	r5!, {r0, r2, r4, r5, r6, sl, ip, sp, lr}^
 654:	00054300 	andeq	r4, r5, r0, lsl #6
 658:	74756d00 	ldrvcbt	r6, [r5], #-3328
 65c:	44497865 	strmib	r7, [r9], #-2149
 660:	00000000 	andeq	r0, r0, r0
 664:	00001e00 	andeq	r1, r0, r0, lsl #28
 668:	ec000200 	sfm	f0, 4, [r0], {0}
 66c:	be000032 	mcrlt	0, 0, r0, cr0, cr2, {1}
 670:	79000000 	stmvcdb	r0, {}
 674:	61000000 	tstvs	r0, r0
 678:	735f7070 	cmpvc	pc, #112	; 0x70
 67c:	74726174 	ldrvcbt	r6, [r2], #-372
 680:	00007075 	andeq	r7, r0, r5, ror r0
 684:	Address 0x00000684 is out of bounds.

Disassembly of section .debug_info:

00000000 <.debug_info>:
       0:	0000005a 	andeq	r0, r0, sl, asr r0
       4:	00000002 	andeq	r0, r0, r2
       8:	01040000 	tsteq	r4, r0
       c:	00000000 	andeq	r0, r0, r0
      10:	a3000000 	movwge	r0, #0	; 0x0
      14:	a3000008 	movwge	r0, #8	; 0x8
      18:	72617473 	rsbvc	r7, r1, #1929379840	; 0x73000000
      1c:	00532e74 	subeqs	r2, r3, r4, ror lr
      20:	6d6f682f 	stcvsl	8, cr6, [pc, #-188]!
      24:	616a2f65 	cmnvs	sl, r5, ror #30
      28:	2f746162 	svccs	0x00746162
      2c:	75636f44 	strvcb	r6, [r3, #-3908]!
      30:	746e656d 	strvcbt	r6, [lr], #-1389
      34:	6d652f73 	stcvsl	15, cr2, [r5, #-460]!
      38:	64646562 	strvsbt	r6, [r4], #-1378
      3c:	6c5f6465 	cfldrdvs	mvd6, [pc], {101}
      40:	2f736261 	svccs	0x00736261
      44:	3462616c 	strccbt	r6, [r2], #-364
      48:	554e4700 	strplb	r4, [lr, #-1792]
      4c:	20534120 	subcss	r4, r3, r0, lsr #2
      50:	37312e32 	undefined
      54:	2e30352e 	cdpcs	5, 3, cr3, cr0, cr14, {1}
      58:	00362e30 	eoreqs	r2, r6, r0, lsr lr
      5c:	025f8001 	subeqs	r8, pc, #1	; 0x1
      60:	00020000 	andeq	r0, r2, r0
      64:	00000014 	andeq	r0, r0, r4, lsl r0
      68:	00380104 	eoreqs	r0, r8, r4, lsl #2
      6c:	00e80000 	rsceq	r0, r8, r0
      70:	0008a300 	andeq	sl, r8, r0, lsl #6
      74:	009ea300 	addeqs	sl, lr, r0, lsl #6
      78:	b8010000 	stmltda	r1, {}
      7c:	02000000 	andeq	r0, r0, #0	; 0x0
      80:	0000007d 	andeq	r0, r0, sp, ror r0
      84:	af020704 	svcge	0x00020704
      88:	04000000 	streq	r0, [r0]
      8c:	00400205 	subeq	r0, r0, r5, lsl #4
      90:	08010000 	stmeqda	r1, {}
      94:	00006702 	andeq	r6, r0, r2, lsl #14
      98:	03050200 	movweq	r0, #20992	; 0x5200
      9c:	00746e69 	rsbeqs	r6, r4, r9, ror #28
      a0:	aa020504 	bge	814b8 <_start-0xa2f7eb48>
      a4:	08000000 	stmeqda	r0, {}
      a8:	00370205 	eoreqs	r0, r7, r5, lsl #4
      ac:	08010000 	stmeqda	r1, {}
      b0:	00004d02 	andeq	r4, r0, r2, lsl #26
      b4:	04070200 	streq	r0, [r7], #-512
      b8:	000000f1 	streqd	r0, [r0], -r1
      bc:	00642c04 	rsbeq	r2, r4, r4, lsl #24
      c0:	82020000 	andhi	r0, r2, #0	; 0x0
      c4:	04000000 	streq	r0, [r0]
      c8:	00780207 	rsbeqs	r0, r8, r7, lsl #4
      cc:	07080000 	streq	r0, [r8, -r0]
      d0:	00002f04 	andeq	r2, r0, r4, lsl #30
      d4:	7d100500 	cfldr32vc	mvfx0, [r0]
      d8:	05000000 	streq	r0, [r0]
      dc:	01b40604 	moveqs	r0, r4, lsl #12
      e0:	051c0000 	ldreq	r0, [ip]
      e4:	03580000 	cmpeq	r8, #0	; 0x0
      e8:	0071070e 	rsbeqs	r0, r1, lr, lsl #14
      ec:	0f030000 	svceq	0x00030000
      f0:	00000059 	andeq	r0, r0, r9, asr r0
      f4:	07002302 	streq	r2, [r0, -r2, lsl #6]
      f8:	00000097 	muleq	r0, r7, r0
      fc:	00590f03 	subeqs	r0, r9, r3, lsl #30
     100:	23020000 	movwcs	r0, #8192	; 0x2000
     104:	00450704 	subeq	r0, r5, r4, lsl #14
     108:	0f030000 	svceq	0x00030000
     10c:	00000059 	andeq	r0, r0, r9, asr r0
     110:	07082302 	streq	r2, [r8, -r2, lsl #6]
     114:	00000000 	andeq	r0, r0, r0
     118:	00590f03 	subeqs	r0, r9, r3, lsl #30
     11c:	23020000 	movwcs	r0, #8192	; 0x2000
     120:	008f070c 	addeq	r0, pc, ip, lsl #14
     124:	0f030000 	svceq	0x00030000
     128:	00000059 	andeq	r0, r0, r9, asr r0
     12c:	08102302 	ldmeqda	r0, {r1, r8, r9, sp}
     130:	0300726c 	movweq	r7, #620	; 0x26c
     134:	00005910 	andeq	r5, r0, r0, lsl r9
     138:	14230200 	strnet	r0, [r3], #-512
     13c:	00707308 	rsbeqs	r7, r0, r8, lsl #6
     140:	00591003 	subeqs	r1, r9, r3
     144:	23020000 	movwcs	r0, #8192	; 0x2000
     148:	040e0718 	streq	r0, [lr], #-1816
     14c:	10030000 	andne	r0, r3, r0
     150:	00000059 	andeq	r0, r0, r9, asr r0
     154:	081c2302 	ldmeqda	ip, {r1, r8, r9, sp}
     158:	03003072 	movweq	r3, #114	; 0x72
     15c:	00005911 	andeq	r5, r0, r1, lsl r9
     160:	20230200 	eorcs	r0, r3, r0, lsl #4
     164:	00317208 	eoreqs	r7, r1, r8, lsl #4
     168:	00591103 	subeqs	r1, r9, r3, lsl #2
     16c:	23020000 	movwcs	r0, #8192	; 0x2000
     170:	32720824 	rsbccs	r0, r2, #2359296	; 0x240000
     174:	59110300 	ldmpldb	r1, {r8, r9}
     178:	02000000 	andeq	r0, r0, #0	; 0x0
     17c:	72082823 	andvc	r2, r8, #2293760	; 0x230000
     180:	11030033 	tstne	r3, r3, lsr r0
     184:	00000059 	andeq	r0, r0, r9, asr r0
     188:	082c2302 	stmeqda	ip!, {r1, r8, r9, sp}
     18c:	03003472 	movweq	r3, #1138	; 0x472
     190:	00005911 	andeq	r5, r0, r1, lsl r9
     194:	30230200 	eorcc	r0, r3, r0, lsl #4
     198:	00357208 	eoreqs	r7, r5, r8, lsl #4
     19c:	00591103 	subeqs	r1, r9, r3, lsl #2
     1a0:	23020000 	movwcs	r0, #8192	; 0x2000
     1a4:	36720834 	undefined
     1a8:	59110300 	ldmpldb	r1, {r8, r9}
     1ac:	02000000 	andeq	r0, r0, #0	; 0x0
     1b0:	72083823 	andvc	r3, r8, #2293760	; 0x230000
     1b4:	11030037 	tstne	r3, r7, lsr r0
     1b8:	00000059 	andeq	r0, r0, r9, asr r0
     1bc:	083c2302 	ldmeqda	ip!, {r1, r8, r9, sp}
     1c0:	03003872 	movweq	r3, #2162	; 0x872
     1c4:	00005911 	andeq	r5, r0, r1, lsl r9
     1c8:	40230200 	eormi	r0, r3, r0, lsl #4
     1cc:	00397208 	eoreqs	r7, r9, r8, lsl #4
     1d0:	00591103 	subeqs	r1, r9, r3, lsl #2
     1d4:	23020000 	movwcs	r0, #8192	; 0x2000
     1d8:	31720844 	cmncc	r2, r4, asr #16
     1dc:	11030030 	tstne	r3, r0, lsr r0
     1e0:	00000059 	andeq	r0, r0, r9, asr r0
     1e4:	08482302 	stmeqda	r8, {r1, r8, r9, sp}^
     1e8:	00313172 	eoreqs	r3, r1, r2, ror r1
     1ec:	00591103 	subeqs	r1, r9, r3, lsl #2
     1f0:	23020000 	movwcs	r0, #8192	; 0x2000
     1f4:	3172084c 	cmncc	r2, ip, asr #16
     1f8:	11030032 	tstne	r3, r2, lsr r0
     1fc:	00000059 	andeq	r0, r0, r9, asr r0
     200:	07502302 	ldreqb	r2, [r0, -r2, lsl #6]
     204:	00000060 	andeq	r0, r0, r0, rrx
     208:	00591103 	subeqs	r1, r9, r3, lsl #2
     20c:	23020000 	movwcs	r0, #8192	; 0x2000
     210:	dd090054 	stcle	0, cr0, [r9, #-336]
     214:	01000001 	tsteq	r0, r1
     218:	0000000e 	andeq	r0, r0, lr
     21c:	08012101 	stmeqda	r1, {r0, r8, sp}
     220:	bca30000 	stclt	0, cr0, [r3]
     224:	00a30000 	adceq	r0, r3, r0
     228:	0a000000 	beq	230 <_start-0xa2fffdd0>
     22c:	000000fa 	streqd	r0, [r0], -sl
     230:	01dd2001 	biceqs	r2, sp, r1
     234:	002b0000 	eoreq	r0, fp, r0
     238:	0b000000 	bleq	240 <_start-0xa2fffdc0>
     23c:	00007f04 	andeq	r7, r0, r4, lsl #30
     240:	01fd0c00 	mvneqs	r0, r0, lsl #24
     244:	1c010000 	stcne	0, cr0, [r1], {0}
     248:	02000000 	andeq	r0, r0, #0	; 0x0
     24c:	0d030141 	stfeqs	f0, [r3, #-260]
     250:	0000040e 	andeq	r0, r0, lr, lsl #8
     254:	00594202 	subeqs	r4, r9, r2, lsl #4
     258:	09000000 	stmeqdb	r0, {}
     25c:	00000257 	andeq	r0, r0, r7, asr r2
     260:	00000801 	andeq	r0, r0, r1, lsl #16
     264:	01110100 	tsteq	r1, r0, lsl #2
     268:	a30000bc 	movwge	r0, #188	; 0xbc
     26c:	a30000e8 	movwge	r0, #232	; 0xe8
     270:	00000049 	andeq	r0, r0, r9, asr #32
     274:	746d660e 	strvcbt	r6, [sp], #-1550
     278:	57100100 	ldrpl	r0, [r0, -r0, lsl #2]
     27c:	02000002 	andeq	r0, r0, #2	; 0x2
     280:	100f0091 	mulne	pc, r1, r0
     284:	00000032 	andeq	r0, r0, r2, lsr r0
     288:	00721201 	rsbeqs	r1, r2, r1, lsl #4
     28c:	91020000 	tstls	r2, r0
     290:	01e31174 	mvneq	r1, r4, ror r1
     294:	00d40000 	sbceqs	r0, r4, r0
     298:	00e8a300 	rsceq	sl, r8, r0, lsl #6
     29c:	1a01a300 	bne	68ea4 <_start-0xa2f9715c>
     2a0:	0000d412 	andeq	sp, r0, r2, lsl r4
     2a4:	0000e8a3 	andeq	lr, r0, r3, lsr #17
     2a8:	01f113a3 	mvneqs	r1, r3, lsr #7
     2ac:	00740000 	rsbeqs	r0, r4, r0
     2b0:	00000000 	andeq	r0, r0, r0
     2b4:	5d040b00 	vstrpl	d0, [r4]
     2b8:	14000002 	strne	r0, [r0], #-2
     2bc:	0000002f 	andeq	r0, r0, pc, lsr #32
     2c0:	00012700 	andeq	r2, r1, r0, lsl #14
     2c4:	17000200 	strne	r0, [r0, -r0, lsl #4]
     2c8:	04000001 	streq	r0, [r0], #-1
     2cc:	00015d01 	andeq	r5, r1, r1, lsl #26
     2d0:	0002b400 	andeq	fp, r2, r0, lsl #8
     2d4:	0000e8a3 	andeq	lr, r0, r3, lsr #17
     2d8:	00009ea3 	andeq	r9, r0, r3, lsr #29
     2dc:	012c0100 	teqeq	ip, r0, lsl #2
     2e0:	7d020000 	stcvc	0, cr0, [r2]
     2e4:	04000000 	streq	r0, [r0]
     2e8:	00af0207 	adceq	r0, pc, r7, lsl #4
     2ec:	05040000 	streq	r0, [r4]
     2f0:	00004002 	andeq	r4, r0, r2
     2f4:	02080100 	andeq	r0, r8, #0	; 0x0
     2f8:	00000067 	andeq	r0, r0, r7, rrx
     2fc:	69030502 	stmvsdb	r3, {r1, r8, sl}
     300:	0400746e 	streq	r7, [r0], #-1134
     304:	00aa0205 	adceq	r0, sl, r5, lsl #4
     308:	05080000 	streq	r0, [r8]
     30c:	00003702 	andeq	r3, r0, r2, lsl #14
     310:	02080100 	andeq	r0, r8, #0	; 0x0
     314:	0000004d 	andeq	r0, r0, sp, asr #32
     318:	f1040702 	undefined instruction 0xf1040702
     31c:	02000000 	andeq	r0, r0, #0	; 0x0
     320:	0000642c 	andeq	r6, r0, ip, lsr #8
     324:	00820200 	addeq	r0, r2, r0, lsl #4
     328:	07040000 	streq	r0, [r4, -r0]
     32c:	00007802 	andeq	r7, r0, r2, lsl #16
     330:	02070800 	andeq	r0, r7, #0	; 0x0
     334:	00000082 	andeq	r0, r0, r2, lsl #1
     338:	e2050704 	and	r0, r5, #1048576	; 0x100000
     33c:	01000000 	tsteq	r0, r0
     340:	00000106 	andeq	r0, r0, r6, lsl #2
     344:	3d012701 	stccc	7, cr2, [r1, #-4]
     348:	e8000000 	stmda	r0, {}
     34c:	b4a30000 	strltt	r0, [r3]
     350:	87a30002 	strhi	r0, [r3, r2]!
     354:	06000000 	streq	r0, [r0], -r0
     358:	0000010c 	andeq	r0, r0, ip, lsl #2
     35c:	003d2601 	eoreqs	r2, sp, r1, lsl #12
     360:	00a60000 	adceq	r0, r6, r0
     364:	6f060000 	svcvs	0x00060000
     368:	01000001 	tsteq	r0, r1
     36c:	0000e226 	andeq	lr, r0, r6, lsr #4
     370:	0000c400 	andeq	ip, r0, r0, lsl #8
     374:	0afd0600 	beq	fff41b7c <__bss_end__+0x5cefd3c8>
     378:	26010000 	strcs	r0, [r1], -r0
     37c:	00000059 	andeq	r0, r0, r9, asr r0
     380:	000000e2 	andeq	r0, r0, r2, ror #1
     384:	00017b07 	andeq	r7, r1, r7, lsl #22
     388:	ee5e0100 	rdfe	f0, f6, f0
     38c:	0b000000 	bleq	394 <_start-0xa2fffc6c>
     390:	07000001 	streq	r0, [r0, -r1]
     394:	00000174 	andeq	r0, r0, r4, ror r1
     398:	003d6701 	eoreqs	r6, sp, r1, lsl #14
     39c:	011e0000 	tsteq	lr, r0
     3a0:	08000000 	stmeqda	r0, {}
     3a4:	0000e804 	andeq	lr, r0, r4, lsl #16
     3a8:	2f040800 	svccs	0x00040800
     3ac:	08000000 	stmeqda	r0, {}
     3b0:	00006404 	andeq	r6, r0, r4, lsl #8
     3b4:	01630900 	cmneq	r3, r0, lsl #18
     3b8:	21010000 	tstcs	r1, r0
     3bc:	00000059 	andeq	r0, r0, r9, asr r0
     3c0:	ac030501 	cfstr32ge	mvfx0, [r3], {1}
     3c4:	09a3002f 	stmeqib	r3!, {r0, r1, r2, r3, r5}
     3c8:	00000111 	andeq	r0, r0, r1, lsl r1
     3cc:	00592201 	subeqs	r2, r9, r1, lsl #4
     3d0:	05010000 	streq	r0, [r1]
     3d4:	002fa803 	eoreq	sl, pc, r3, lsl #16
     3d8:	011e09a3 	tsteq	lr, r3, lsr #19
     3dc:	24010000 	strcs	r0, [r1]
     3e0:	0000003d 	andeq	r0, r0, sp, lsr r0
     3e4:	40030501 	andmi	r0, r3, r1, lsl #10
     3e8:	00a3002e 	adceq	r0, r3, lr, lsr #32
     3ec:	000000f5 	streqd	r0, [r0], -r5
     3f0:	019d0002 	orreqs	r0, sp, r2
     3f4:	01040000 	tsteq	r4, r0
     3f8:	00000233 	andeq	r0, r0, r3, lsr r2
     3fc:	a30002f8 	movwge	r0, #760	; 0x2f8
     400:	a30002b4 	movwge	r0, #692	; 0x2b4
     404:	0000009e 	muleq	r0, lr, r0
     408:	00019d01 	andeq	r9, r1, r1, lsl #26
     40c:	07e60200 	streqb	r0, [r6, r0, lsl #4]!
     410:	20020000 	andcs	r0, r2, r0
     414:	0000002c 	andeq	r0, r0, ip, lsr #32
     418:	00007d03 	andeq	r7, r0, r3, lsl #26
     41c:	03070400 	movweq	r0, #29696	; 0x7400
     420:	000000af 	andeq	r0, r0, pc, lsr #1
     424:	40030504 	andmi	r0, r3, r4, lsl #10
     428:	01000000 	tsteq	r0, r0
     42c:	00670308 	rsbeq	r0, r7, r8, lsl #6
     430:	05020000 	streq	r0, [r2]
     434:	746e6904 	strvcbt	r6, [lr], #-2308
     438:	03050400 	movweq	r0, #21504	; 0x5400
     43c:	000000aa 	andeq	r0, r0, sl, lsr #1
     440:	37030508 	strcc	r0, [r3, -r8, lsl #10]
     444:	01000000 	tsteq	r0, r0
     448:	004d0308 	subeq	r0, sp, r8, lsl #6
     44c:	07020000 	streq	r0, [r2, -r0]
     450:	00008203 	andeq	r8, r0, r3, lsl #4
     454:	03070400 	movweq	r0, #29696	; 0x7400
     458:	00000078 	andeq	r0, r0, r8, ror r0
     45c:	c2050708 	andgt	r0, r5, #2097152	; 0x200000
     460:	01000000 	tsteq	r0, r0
     464:	0000018b 	andeq	r0, r0, fp, lsl #3
     468:	64011a01 	strvs	r1, [r1], #-2561
     46c:	b4000000 	strlt	r0, [r0]
     470:	dca30002 	stcle	0, cr0, [r3], #8
     474:	01a30002 	moveq	r0, r2
     478:	7562065d 	strvcb	r0, [r2, #-1629]!
     47c:	19010066 	stmnedb	r1, {r1, r2, r5, r6}
     480:	000000c2 	andeq	r0, r0, r2, asr #1
     484:	0000013c 	andeq	r0, r0, ip, lsr r1
     488:	0001d407 	andeq	sp, r1, r7, lsl #8
     48c:	21190100 	tstcs	r9, r0, lsl #2
     490:	01000000 	tsteq	r0, r0
     494:	00690851 	rsbeq	r0, r9, r1, asr r8
     498:	00211b01 	eoreq	r1, r1, r1, lsl #22
     49c:	52010000 	andpl	r0, r1, #0	; 0x0
     4a0:	00019609 	andeq	r9, r1, r9, lsl #12
     4a4:	641c0100 	ldrvs	r0, [ip], #-256
     4a8:	01000000 	tsteq	r0, r0
     4ac:	040a005c 	streq	r0, [sl], #-92
     4b0:	00000064 	andeq	r0, r0, r4, rrx
     4b4:	0185010b 	orreq	r0, r5, fp, lsl #2
     4b8:	35010000 	strcc	r0, [r1]
     4bc:	00006401 	andeq	r6, r0, r1, lsl #8
     4c0:	0002dc00 	andeq	sp, r2, r0, lsl #24
     4c4:	0002f8a3 	andeq	pc, r2, r3, lsr #17
     4c8:	065d01a3 	ldreqb	r0, [sp], -r3, lsr #3
     4cc:	34010078 	strcc	r0, [r1], #-120
     4d0:	00000064 	andeq	r0, r0, r4, rrx
     4d4:	0000014f 	andeq	r0, r0, pc, asr #2
     4d8:	01007208 	tsteq	r0, r8, lsl #4
     4dc:	00006436 	andeq	r6, r0, r6, lsr r4
     4e0:	00530100 	subeqs	r0, r3, r0, lsl #2
     4e4:	0000fa00 	andeq	pc, r0, r0, lsl #20
     4e8:	47000200 	strmi	r0, [r0, -r0, lsl #4]
     4ec:	04000002 	streq	r0, [r0], #-2
     4f0:	0002e701 	andeq	lr, r2, r1, lsl #14
     4f4:	00033c00 	andeq	r3, r3, r0, lsl #24
     4f8:	0002f8a3 	andeq	pc, r2, r3, lsr #17
     4fc:	00009ea3 	andeq	r9, r0, r3, lsr #29
     500:	01f80100 	mvneqs	r0, r0, lsl #2
     504:	e6020000 	str	r0, [r2], -r0
     508:	02000007 	andeq	r0, r0, #7	; 0x7
     50c:	00002c20 	andeq	r2, r0, r0, lsr #24
     510:	007d0300 	rsbeqs	r0, sp, r0, lsl #6
     514:	07040000 	streq	r0, [r4, -r0]
     518:	0000af03 	andeq	sl, r0, r3, lsl #30
     51c:	03050400 	movweq	r0, #21504	; 0x5400
     520:	00000040 	andeq	r0, r0, r0, asr #32
     524:	67030801 	strvs	r0, [r3, -r1, lsl #16]
     528:	02000000 	andeq	r0, r0, #0	; 0x0
     52c:	6e690405 	cdpvs	4, 6, cr0, cr9, cr5, {0}
     530:	05040074 	streq	r0, [r4, #-116]
     534:	0000aa03 	andeq	sl, r0, r3, lsl #20
     538:	03050800 	movweq	r0, #22528	; 0x5800
     53c:	00000037 	andeq	r0, r0, r7, lsr r0
     540:	4d030801 	stcmi	8, cr0, [r3, #-4]
     544:	02000000 	andeq	r0, r0, #0	; 0x0
     548:	00f10207 	rsceqs	r0, r1, r7, lsl #4
     54c:	2c020000 	stccs	0, cr0, [r2], {0}
     550:	0000006f 	andeq	r0, r0, pc, rrx
     554:	00008203 	andeq	r8, r0, r3, lsl #4
     558:	03070400 	movweq	r0, #29696	; 0x7400
     55c:	00000078 	andeq	r0, r0, r8, ror r0
     560:	47020708 	strmi	r0, [r2, -r8, lsl #14]
     564:	02000002 	andeq	r0, r0, #2	; 0x2
     568:	00006432 	andeq	r6, r0, r2, lsr r4
     56c:	00f60500 	rsceqs	r0, r6, r0, lsl #10
     570:	ed010000 	stc	0, cr0, [r1]
     574:	01000001 	tsteq	r0, r1
     578:	00480119 	subeq	r0, r8, r9, lsl r1
     57c:	02f80000 	rsceqs	r0, r8, #0	; 0x0
     580:	033ca300 	teqeq	ip, #0	; 0x0
     584:	5d01a300 	stcpl	3, cr10, [r1]
     588:	0005fe06 	andeq	pc, r5, r6, lsl #28
     58c:	f6180100 	undefined instruction 0xf6180100
     590:	62000000 	andvs	r0, r0, #0	; 0x0
     594:	07000001 	streq	r0, [r0, -r1]
     598:	00000233 	andeq	r0, r0, r3, lsr r2
     59c:	00211801 	eoreq	r1, r1, r1, lsl #16
     5a0:	51010000 	tstpl	r1, r0
     5a4:	0001e806 	andeq	lr, r1, r6, lsl #16
     5a8:	7d180100 	ldfvcs	f0, [r8]
     5ac:	75000000 	strvc	r0, [r0]
     5b0:	06000001 	streq	r0, [r0], -r1
     5b4:	00000239 	andeq	r0, r0, r9, lsr r2
     5b8:	007d1801 	rsbeqs	r1, sp, r1, lsl #16
     5bc:	01930000 	orreqs	r0, r3, r0
     5c0:	de080000 	cdple	0, 0, cr0, cr8, cr0, {0}
     5c4:	01000001 	tsteq	r0, r1
     5c8:	00007d1a 	andeq	r7, r0, sl, lsl sp
     5cc:	023f0900 	eoreqs	r0, pc, #0	; 0x0
     5d0:	1b010000 	blne	405d8 <_start-0xa2fbfa28>
     5d4:	0000007d 	andeq	r0, r0, sp, ror r0
     5d8:	0a005201 	beq	14de4 <_start-0xa2feb21c>
     5dc:	0000fc04 	andeq	pc, r0, r4, lsl #24
     5e0:	79000b00 	stmvcdb	r0, {r8, r9, fp}
     5e4:	02000000 	andeq	r0, r0, #0	; 0x0
     5e8:	0002dd00 	andeq	sp, r2, r0, lsl #26
     5ec:	98010400 	stmlsda	r1, {sl}
     5f0:	50000003 	andpl	r0, r0, r3
     5f4:	3ca30003 	stccc	0, cr0, [r3], #12
     5f8:	9ea30003 	cdpls	0, 10, cr0, cr3, cr3, {0}
     5fc:	01000000 	tsteq	r0, r0
     600:	00000257 	andeq	r0, r0, r7, asr r2
     604:	00007d02 	andeq	r7, r0, r2, lsl #26
     608:	02070400 	andeq	r0, r7, #0	; 0x0
     60c:	000000af 	andeq	r0, r0, pc, lsr #1
     610:	40020504 	andmi	r0, r2, r4, lsl #10
     614:	01000000 	tsteq	r0, r0
     618:	00670208 	rsbeq	r0, r7, r8, lsl #4
     61c:	05020000 	streq	r0, [r2]
     620:	746e6903 	strvcbt	r6, [lr], #-2307
     624:	02050400 	andeq	r0, r5, #0	; 0x0
     628:	000000aa 	andeq	r0, r0, sl, lsr #1
     62c:	37020508 	strcc	r0, [r2, -r8, lsl #10]
     630:	01000000 	tsteq	r0, r0
     634:	004d0208 	subeq	r0, sp, r8, lsl #4
     638:	07020000 	streq	r0, [r2, -r0]
     63c:	00008202 	andeq	r8, r0, r2, lsl #4
     640:	02070400 	andeq	r0, r7, #0	; 0x0
     644:	00000078 	andeq	r0, r0, r8, ror r0
     648:	01040708 	tsteq	r4, r8, lsl #14
     64c:	00000251 	andeq	r0, r0, r1, asr r2
     650:	3c010c01 	stccc	12, cr0, [r1], {1}
     654:	50a30003 	adcpl	r0, r3, r3
     658:	b1a30003 	movlt	r0, r3
     65c:	00000001 	andeq	r0, r0, r1
     660:	000000ec 	andeq	r0, r0, ip, ror #1
     664:	031a0002 	tsteq	sl, #2	; 0x2
     668:	01040000 	tsteq	r4, r0
     66c:	00000400 	andeq	r0, r0, r0, lsl #8
     670:	a3000454 	movwge	r0, #1108	; 0x454
     674:	a3000350 	movwge	r0, #848	; 0x350
     678:	0000009e 	muleq	r0, lr, r0
     67c:	00028f01 	andeq	r8, r2, r1, lsl #30
     680:	07e60200 	streqb	r0, [r6, r0, lsl #4]!
     684:	20030000 	andcs	r0, r3, r0
     688:	0000002c 	andeq	r0, r0, ip, lsr #32
     68c:	00007d03 	andeq	r7, r0, r3, lsl #26
     690:	03070400 	movweq	r0, #29696	; 0x7400
     694:	000000af 	andeq	r0, r0, pc, lsr #1
     698:	40030504 	andmi	r0, r3, r4, lsl #10
     69c:	01000000 	tsteq	r0, r0
     6a0:	00670308 	rsbeq	r0, r7, r8, lsl #6
     6a4:	05020000 	streq	r0, [r2]
     6a8:	746e6904 	strvcbt	r6, [lr], #-2308
     6ac:	03050400 	movweq	r0, #21504	; 0x5400
     6b0:	000000aa 	andeq	r0, r0, sl, lsr #1
     6b4:	37030508 	strcc	r0, [r3, -r8, lsl #10]
     6b8:	01000000 	tsteq	r0, r0
     6bc:	004d0308 	subeq	r0, sp, r8, lsl #6
     6c0:	07020000 	streq	r0, [r2, -r0]
     6c4:	00008203 	andeq	r8, r0, r3, lsl #4
     6c8:	03070400 	movweq	r0, #29696	; 0x7400
     6cc:	00000078 	andeq	r0, r0, r8, ror r0
     6d0:	04050708 	streq	r0, [r5], #-1800
     6d4:	00009006 	andeq	r9, r0, r6
     6d8:	02d10100 	sbceqs	r0, r1, #0	; 0x0
     6dc:	1e020000 	cdpne	0, 0, cr0, cr2, cr0, {0}
     6e0:	00004801 	andeq	r4, r0, r1, lsl #16
     6e4:	63070300 	movwvs	r0, #29440	; 0x7300
     6e8:	481d0200 	ldmmida	sp, {r9}
     6ec:	00000000 	andeq	r0, r0, r0
     6f0:	0000e908 	andeq	lr, r0, r8, lsl #18
     6f4:	02c90100 	sbceq	r0, r9, #0	; 0x0
     6f8:	2d010000 	stccs	0, cr0, [r1]
     6fc:	00035001 	andeq	r5, r3, r1
     700:	000454a3 	andeq	r5, r4, r3, lsr #9
     704:	0001d0a3 	andeq	sp, r1, r3, lsr #1
     708:	75620900 	strvcb	r0, [r2, #-2304]!
     70c:	2c010066 	stccs	0, cr0, [r1], {102}
     710:	00000072 	andeq	r0, r0, r2, ror r0
     714:	000001ef 	andeq	r0, r0, pc, ror #3
     718:	6e656c09 	cdpvs	12, 6, cr6, cr5, cr9, {0}
     71c:	212c0100 	teqcs	ip, r0, lsl #2
     720:	0d000000 	stceq	0, cr0, [r0]
     724:	0a000002 	beq	734 <_start-0xa2fff8cc>
     728:	2e010069 	cdpcs	0, 0, cr0, cr1, cr9, {3}
     72c:	00000021 	andeq	r0, r0, r1, lsr #32
     730:	6a0b5601 	bvs	2d5f3c <_start-0xa2d2a0c4>
     734:	212e0100 	teqcs	lr, r0, lsl #2
     738:	2b000000 	blcs	740 <_start-0xa2fff8c0>
     73c:	0c000002 	stceq	0, cr0, [r0], {2}
     740:	2f010062 	svccs	0x00010062
     744:	000000e9 	andeq	r0, r0, r9, ror #1
     748:	3a040d00 	bcc	103b50 <_start-0xa2efc4b0>
     74c:	00000000 	andeq	r0, r0, r0
     750:	000002dc 	ldreqd	r0, [r0], -ip
     754:	03d20002 	biceqs	r0, r2, #2	; 0x2
     758:	01040000 	tsteq	r4, r0
     75c:	000004da 	ldreqd	r0, [r0], -sl
     760:	a30006bc 	movwge	r0, #1724	; 0x6bc
     764:	a3000454 	movwge	r0, #1108	; 0x454
     768:	0000009e 	muleq	r0, lr, r0
     76c:	0002ff01 	andeq	pc, r2, r1, lsl #30
     770:	007d0200 	rsbeqs	r0, sp, r0, lsl #4
     774:	07040000 	streq	r0, [r4, -r0]
     778:	0000af02 	andeq	sl, r0, r2, lsl #30
     77c:	02050400 	andeq	r0, r5, #0	; 0x0
     780:	00000040 	andeq	r0, r0, r0, asr #32
     784:	67020801 	strvs	r0, [r2, -r1, lsl #16]
     788:	02000000 	andeq	r0, r0, #0	; 0x0
     78c:	6e690305 	cdpvs	3, 6, cr0, cr9, cr5, {0}
     790:	05040074 	streq	r0, [r4, #-116]
     794:	0000aa02 	andeq	sl, r0, r2, lsl #20
     798:	02050800 	andeq	r0, r5, #0	; 0x0
     79c:	00000037 	andeq	r0, r0, r7, lsr r0
     7a0:	4d020801 	stcmi	8, cr0, [r2, #-4]
     7a4:	02000000 	andeq	r0, r0, #0	; 0x0
     7a8:	00f10407 	rsceqs	r0, r1, r7, lsl #8
     7ac:	2c030000 	stccs	0, cr0, [r3], {0}
     7b0:	00000064 	andeq	r0, r0, r4, rrx
     7b4:	00008202 	andeq	r8, r0, r2, lsl #4
     7b8:	02070400 	andeq	r0, r7, #0	; 0x0
     7bc:	00000078 	andeq	r0, r0, r8, ror r0
     7c0:	82020708 	andhi	r0, r2, #2097152	; 0x200000
     7c4:	04000000 	streq	r0, [r0]
     7c8:	00d40507 	sbceqs	r0, r4, r7, lsl #10
     7cc:	c7010000 	strgt	r0, [r1, -r0]
     7d0:	01000003 	tsteq	r0, r3
     7d4:	003d012e 	eoreqs	r0, sp, lr, lsr #2
     7d8:	04540000 	ldreqb	r0, [r4]
     7dc:	0570a300 	ldreqb	sl, [r0, #-768]!
     7e0:	0249a300 	subeq	sl, r9, #0	; 0x0
     7e4:	4d060000 	stcmi	0, cr0, [r6]
     7e8:	01000003 	tsteq	r0, r3
     7ec:	0000642d 	andeq	r6, r0, sp, lsr #8
     7f0:	00026800 	andeq	r6, r2, r0, lsl #16
     7f4:	03690700 	cmneq	r9, #0	; 0x0
     7f8:	2f010000 	svccs	0x00010000
     7fc:	000000d4 	ldreqd	r0, [r0], -r4
     800:	00035707 	andeq	r5, r3, r7, lsl #14
     804:	d4300100 	ldrlet	r0, [r0], #-256
     808:	08000000 	stmeqda	r0, {}
     80c:	000002d9 	ldreqd	r0, [r0], -r9
     810:	00d43101 	sbceqs	r3, r4, r1, lsl #2
     814:	5c010000 	stcpl	0, cr0, [r1], {0}
     818:	0003b707 	andeq	fp, r3, r7, lsl #14
     81c:	3d320100 	ldfccs	f0, [r2]
     820:	00000000 	andeq	r0, r0, r0
     824:	00640409 	rsbeq	r0, r4, r9, lsl #8
     828:	010a0000 	tsteq	sl, r0
     82c:	00000413 	andeq	r0, r0, r3, lsl r4
     830:	0570ac01 	ldreqb	sl, [r0, #-3073]!
     834:	0574a300 	ldreqb	sl, [r4, #-768]!
     838:	5d01a300 	stcpl	3, cr10, [r1]
     83c:	0424010b 	streqt	r0, [r4], #-267
     840:	7b010000 	blvc	40848 <_start-0xa2fbf7b8>
     844:	a3000574 	movwge	r0, #1396	; 0x574
     848:	a300067c 	movwge	r0, #1660	; 0x67c
     84c:	00000286 	andeq	r0, r0, r6, lsl #5
     850:	00011e0c 	andeq	r1, r1, ip, lsl #28
     854:	04090100 	streq	r0, [r9], #-256
     858:	23020000 	movwcs	r0, #8192	; 0x2000
     85c:	00005901 	andeq	r5, r0, r1, lsl #18
     860:	0e070300 	cdpeq	3, 0, cr0, cr7, cr0, {0}
     864:	02000004 	andeq	r0, r0, #4	; 0x4
     868:	00005924 	andeq	r5, r0, r4, lsr #18
     86c:	380d0000 	stmccda	sp, {}
     870:	01000001 	tsteq	r0, r1
     874:	000003de 	ldreqd	r0, [r0], -lr
     878:	03012a02 	movweq	r2, #6658	; 0x1a02
     87c:	0003ae0e 	andeq	sl, r3, lr, lsl #28
     880:	59290200 	stmpldb	r9!, {r9}
     884:	00000000 	andeq	r0, r0, r0
     888:	0001ad0f 	andeq	sl, r1, pc, lsl #26
     88c:	038c0100 	orreq	r0, ip, #0	; 0x0
     890:	97010000 	strls	r0, [r1, -r0]
     894:	a300067c 	movwge	r0, #1660	; 0x67c
     898:	a300069c 	movwge	r0, #1692	; 0x69c
     89c:	0e085d01 	cdpeq	13, 0, cr5, cr8, cr1, {0}
     8a0:	01000004 	tsteq	r0, r4
     8a4:	0000599a 	muleq	r0, sl, r9
     8a8:	10530100 	subnes	r0, r3, r0, lsl #2
     8ac:	0000017e 	andeq	r0, r0, lr, ror r1
     8b0:	00000100 	andeq	r0, r0, r0, lsl #2
     8b4:	a300067c 	movwge	r0, #1660	; 0x67c
     8b8:	a3000680 	movwge	r0, #1664	; 0x680
     8bc:	7c119d01 	ldcvc	13, cr9, [r1], {1}
     8c0:	80a30006 	adchi	r0, r3, r6
     8c4:	12a30006 	adcne	r0, r3, #6	; 0x6
     8c8:	00000112 	andeq	r0, r0, r2, lsl r1
     8cc:	97100000 	ldrls	r0, [r0, -r0]
     8d0:	1e000001 	cdpne	0, 0, cr0, cr0, cr1, {0}
     8d4:	80000001 	andhi	r0, r0, r1
     8d8:	88a30006 	stmhiia	r3!, {r1, r2}
     8dc:	01a30006 	moveq	r0, r6
     8e0:	012c139f 	streqb	r1, [ip, -pc]!
     8e4:	14000000 	strne	r0, [r0]
     8e8:	0000011e 	andeq	r0, r0, lr, lsl r1
     8ec:	a3000690 	movwge	r0, #1680	; 0x690
     8f0:	a3000694 	movwge	r0, #1684	; 0x694
     8f4:	2c13a701 	ldccs	7, cr10, [r3], {1}
     8f8:	00000001 	andeq	r0, r0, r1
     8fc:	02220f00 	eoreq	r0, r2, #0	; 0x0
     900:	9c010000 	stcls	0, cr0, [r1], {0}
     904:	01000003 	tsteq	r0, r3
     908:	00069cc1 	andeq	r9, r6, r1, asr #25
     90c:	0006bca3 	andeq	fp, r6, r3, lsr #25
     910:	085d01a3 	ldmeqda	sp, {r0, r1, r5, r7, r8}^
     914:	0000040e 	andeq	r0, r0, lr, lsl #8
     918:	0059c201 	subeqs	ip, r9, r1, lsl #4
     91c:	53010000 	movwpl	r0, #4096	; 0x1000
     920:	0001f310 	andeq	pc, r1, r0, lsl r3
     924:	00010000 	andeq	r0, r1, r0
     928:	00069c00 	andeq	r9, r6, r0, lsl #24
     92c:	0006a0a3 	andeq	sl, r6, r3, lsr #1
     930:	11c501a3 	bicne	r0, r5, r3, lsr #3
     934:	a300069c 	movwge	r0, #1692	; 0x69c
     938:	a30006a0 	movwge	r0, #1696	; 0x6a0
     93c:	00011212 	andeq	r1, r1, r2, lsl r2
     940:	10000000 	andne	r0, r0, r0
     944:	0000020c 	andeq	r0, r0, ip, lsl #4
     948:	0000011e 	andeq	r0, r0, lr, lsl r1
     94c:	a30006a0 	movwge	r0, #1696	; 0x6a0
     950:	a30006a8 	movwge	r0, #1704	; 0x6a8
     954:	2c13c701 	ldccs	7, cr12, [r3], {1}
     958:	00000001 	andeq	r0, r0, r1
     95c:	00011e14 	andeq	r1, r1, r4, lsl lr
     960:	0006b000 	andeq	fp, r6, r0
     964:	0006b4a3 	andeq	fp, r6, r3, lsr #9
     968:	13cf01a3 	bicne	r0, pc, #-1073741784	; 0xc0000028
     96c:	0000012c 	andeq	r0, r0, ip, lsr #2
     970:	3b080000 	blcc	200978 <_start-0xa2dff688>
     974:	01000003 	tsteq	r0, r3
     978:	00023321 	andeq	r3, r2, r1, lsr #6
     97c:	44030500 	strmi	r0, [r3], #-1280
     980:	09a3002e 	stmeqib	r3!, {r1, r2, r3, r5}
     984:	00005904 	andeq	r5, r0, r4, lsl #18
     988:	037a0800 	cmneq	sl, #0	; 0x0
     98c:	22010000 	andcs	r0, r1, #0	; 0x0
     990:	00000233 	andeq	r0, r0, r3, lsr r2
     994:	2e480305 	cdpcs	3, 4, cr0, cr8, cr5, {0}
     998:	f708a300 	undefined instruction 0xf708a300
     99c:	01000003 	tsteq	r0, r3
     9a0:	00023323 	andeq	r3, r2, r3, lsr #6
     9a4:	4c030500 	cfstr32mi	mvfx0, [r3], {0}
     9a8:	15a3002e 	strne	r0, [r3, #46]!
     9ac:	0000026b 	andeq	r0, r0, fp, ror #4
     9b0:	00000059 	andeq	r0, r0, r9, asr r0
     9b4:	00007216 	andeq	r7, r0, r6, lsl r2
     9b8:	08000100 	stmeqda	r0, {r8}
     9bc:	000003e9 	andeq	r0, r0, r9, ror #7
     9c0:	025b2401 	subeqs	r2, fp, #16777216	; 0x1000000
     9c4:	03050000 	movweq	r0, #20480	; 0x5000
     9c8:	a3002e50 	movwge	r2, #3664	; 0xe50
     9cc:	00043508 	andeq	r3, r4, r8, lsl #10
     9d0:	5b250100 	blpl	940dd8 <_start-0xa26bf228>
     9d4:	05000002 	streq	r0, [r0, #-2]
     9d8:	002e5803 	eoreq	r5, lr, r3, lsl #16
     9dc:	02f108a3 	rsceqs	r0, r1, #10682368	; 0xa30000
     9e0:	26010000 	strcs	r0, [r1], -r0
     9e4:	0000025b 	andeq	r0, r0, fp, asr r2
     9e8:	2e600305 	cdpcs	3, 6, cr0, cr0, cr5, {0}
     9ec:	1e17a300 	cdpne	3, 1, cr10, cr7, cr0, {0}
     9f0:	04000001 	streq	r0, [r0], #-1
     9f4:	00003d05 	andeq	r3, r0, r5, lsl #26
     9f8:	15010100 	strne	r0, [r1, #-256]
     9fc:	000002bb 	streqh	r0, [r0], -fp
     a00:	00000059 	andeq	r0, r0, r9, asr r0
     a04:	00007216 	andeq	r7, r0, r6, lsl r2
     a08:	1800ff00 	stmneda	r0, {r8, r9, sl, fp, ip, sp, lr, pc}
     a0c:	000003a2 	andeq	r0, r0, r2, lsr #7
     a10:	02ab2a01 	adceq	r2, fp, #4096	; 0x1000
     a14:	05010000 	streq	r0, [r1]
     a18:	002fb003 	eoreq	fp, pc, r3
     a1c:	039218a3 	orreqs	r1, r2, #10682368	; 0xa30000
     a20:	2b010000 	blcs	40a28 <_start-0xa2fbf5d8>
     a24:	000002ab 	andeq	r0, r0, fp, lsr #5
     a28:	b0030501 	andlt	r0, r3, r1, lsl #10
     a2c:	00a30033 	adceq	r0, r3, r3, lsr r0
     a30:	0000041a 	andeq	r0, r0, sl, lsl r4
     a34:	052f0002 	streq	r0, [pc, #-2]!	; a3a <_start-0xa2fff5c6>
     a38:	01040000 	tsteq	r4, r0
     a3c:	00000674 	andeq	r0, r0, r4, ror r6
     a40:	a3000870 	movwge	r0, #2160	; 0x870
     a44:	a30006bc 	movwge	r0, #1724	; 0x6bc
     a48:	0000009e 	muleq	r0, lr, r0
     a4c:	00047b01 	andeq	r7, r4, r1, lsl #22
     a50:	007d0200 	rsbeqs	r0, sp, r0, lsl #4
     a54:	07040000 	streq	r0, [r4, -r0]
     a58:	0000af02 	andeq	sl, r0, r2, lsl #30
     a5c:	02050400 	andeq	r0, r5, #0	; 0x0
     a60:	00000040 	andeq	r0, r0, r0, asr #32
     a64:	67020801 	strvs	r0, [r2, -r1, lsl #16]
     a68:	02000000 	andeq	r0, r0, #0	; 0x0
     a6c:	6e690305 	cdpvs	3, 6, cr0, cr9, cr5, {0}
     a70:	05040074 	streq	r0, [r4, #-116]
     a74:	0000aa02 	andeq	sl, r0, r2, lsl #20
     a78:	04050800 	streq	r0, [r5], #-2048
     a7c:	00000451 	andeq	r0, r0, r1, asr r4
     a80:	00562a03 	subeqs	r2, r6, r3, lsl #20
     a84:	37020000 	strcc	r0, [r2, -r0]
     a88:	01000000 	tsteq	r0, r0
     a8c:	004d0208 	subeq	r0, sp, r8, lsl #4
     a90:	07020000 	streq	r0, [r2, -r0]
     a94:	0000f104 	andeq	pc, r0, r4, lsl #2
     a98:	6f2c0300 	svcvs	0x002c0300
     a9c:	02000000 	andeq	r0, r0, #0	; 0x0
     aa0:	00000082 	andeq	r0, r0, r2, lsl #1
     aa4:	78020704 	stmvcda	r2, {r2, r8, r9, sl}
     aa8:	08000000 	stmeqda	r0, {}
     aac:	06040507 	streq	r0, [r4], -r7, lsl #10
     ab0:	00000110 	andeq	r0, r0, r0, lsl r1
     ab4:	00000516 	andeq	r0, r0, r6, lsl r5
     ab8:	07260428 	streq	r0, [r6, -r8, lsr #8]!
     abc:	04003472 	streq	r3, [r0], #-1138
     ac0:	00006427 	andeq	r6, r0, r7, lsr #8
     ac4:	00230200 	eoreq	r0, r3, r0, lsl #4
     ac8:	00357207 	eoreqs	r7, r5, r7, lsl #4
     acc:	00642804 	rsbeq	r2, r4, r4, lsl #16
     ad0:	23020000 	movwcs	r0, #8192	; 0x2000
     ad4:	36720704 	ldrccbt	r0, [r2], -r4, lsl #14
     ad8:	64290400 	strvst	r0, [r9], #-1024
     adc:	02000000 	andeq	r0, r0, #0	; 0x0
     ae0:	72070823 	andvc	r0, r7, #2293760	; 0x230000
     ae4:	2a040037 	bcs	100bc8 <_start-0xa2eff438>
     ae8:	00000064 	andeq	r0, r0, r4, rrx
     aec:	070c2302 	streq	r2, [ip, -r2, lsl #6]
     af0:	04003872 	streq	r3, [r0], #-2162
     af4:	0000642b 	andeq	r6, r0, fp, lsr #8
     af8:	10230200 	eorne	r0, r3, r0, lsl #4
     afc:	00397207 	eoreqs	r7, r9, r7, lsl #4
     b00:	00642c04 	rsbeq	r2, r4, r4, lsl #24
     b04:	23020000 	movwcs	r0, #8192	; 0x2000
     b08:	31720714 	cmncc	r2, r4, lsl r7
     b0c:	2d040030 	stccs	0, cr0, [r4, #-192]
     b10:	00000064 	andeq	r0, r0, r4, rrx
     b14:	07182302 	ldreq	r2, [r8, -r2, lsl #6]
     b18:	00313172 	eoreqs	r3, r1, r2, ror r1
     b1c:	00642e04 	rsbeq	r2, r4, r4, lsl #28
     b20:	23020000 	movwcs	r0, #8192	; 0x2000
     b24:	7073071c 	rsbvcs	r0, r3, ip, lsl r7
     b28:	7d2f0400 	cfstrsvc	mvf0, [pc]
     b2c:	02000000 	andeq	r0, r0, #0	; 0x0
     b30:	6c072023 	stcvs	0, cr2, [r7], {35}
     b34:	30040072 	andcc	r0, r4, r2, ror r0
     b38:	0000007d 	andeq	r0, r0, sp, ror r0
     b3c:	00242302 	eoreq	r2, r4, r2, lsl #6
     b40:	00007f08 	andeq	r7, r0, r8, lsl #30
     b44:	01860900 	orreq	r0, r6, r0, lsl #18
     b48:	63740000 	cmnvs	r4, #0	; 0x0
     b4c:	10380062 	eornes	r0, r8, r2, rrx
     b50:	f50a3604 	undefined instruction 0xf50a3604
     b54:	04000004 	streq	r0, [r0], #-4
     b58:	00004b37 	andeq	r4, r0, r7, lsr fp
     b5c:	00230200 	eoreq	r0, r3, r0, lsl #4
     b60:	000a4f0a 	andeq	r4, sl, sl, lsl #30
     b64:	4b380400 	blmi	e01b6c <_start-0xa21fe494>
     b68:	02000000 	andeq	r0, r0, #0	; 0x0
     b6c:	1c0a0123 	stfnes	f0, [sl], {35}
     b70:	04000005 	streq	r0, [r0], #-5
     b74:	00011039 	andeq	r1, r1, r9, lsr r0
     b78:	04230200 	streqt	r0, [r3], #-512
     b7c:	0005240a 	andeq	r2, r5, sl, lsl #8
     b80:	3d3a0400 	cfldrscc	mvf0, [sl]
     b84:	02000000 	andeq	r0, r0, #0	; 0x0
     b88:	010a2c23 	tsteq	sl, r3, lsr #24
     b8c:	04000005 	streq	r0, [r0], #-5
     b90:	0001863b 	andeq	r8, r1, fp, lsr r6
     b94:	30230200 	eorcc	r0, r3, r0, lsl #4
     b98:	000a5c0a 	andeq	r5, sl, sl, lsl #24
     b9c:	913e0400 	teqls	lr, r0, lsl #8
     ba0:	02000001 	andeq	r0, r0, #1	; 0x1
     ba4:	c60a3823 	strgt	r3, [sl], -r3, lsr #16
     ba8:	04000004 	streq	r0, [r0], #-4
     bac:	0001a93f 	andeq	sl, r1, pc, lsr r9
     bb0:	b8230300 	stmltda	r3!, {r8, r9}
     bb4:	040b0020 	streq	r0, [fp], #-32
     bb8:	0000018c 	andeq	r0, r0, ip, lsl #3
     bbc:	00011508 	andeq	r1, r1, r8, lsl #10
     bc0:	01a20c00 	moveq	r0, r0, lsl #24
     bc4:	00640000 	rsbeq	r0, r4, r0
     bc8:	a20d0000 	andge	r0, sp, #0	; 0x0
     bcc:	ff000001 	undefined instruction 0xff000001
     bd0:	82020003 	andhi	r0, r2, #3	; 0x3
     bd4:	04000000 	streq	r0, [r0]
     bd8:	01b80c07 	moveqs	r0, r7, lsl #24
     bdc:	00640000 	rsbeq	r0, r4, r0
     be0:	a20e0000 	andge	r0, lr, #0	; 0x0
     be4:	00000001 	andeq	r0, r0, r1
     be8:	0001e10f 	andeq	lr, r1, pc, lsl #2
     bec:	76656400 	strvcbt	r6, [r5], -r0, lsl #8
     bf0:	22010800 	andcs	r0, r1, #0	; 0x0
     bf4:	0005010a 	andeq	r0, r5, sl, lsl #2
     bf8:	86230100 	strhit	r0, [r3], -r0, lsl #2
     bfc:	02000001 	andeq	r0, r0, #1	; 0x1
     c00:	700a0023 	andvc	r0, sl, r3, lsr #32
     c04:	01000004 	tsteq	r0, r4
     c08:	00002124 	andeq	r2, r0, r4, lsr #2
     c0c:	04230200 	streqt	r0, [r3], #-512
     c10:	04590400 	ldreqb	r0, [r9], #-1024
     c14:	26010000 	strcs	r0, [r1], -r0
     c18:	000001b8 	streqh	r0, [r0], -r8
     c1c:	00020610 	andeq	r0, r2, r0, lsl r6
     c20:	001c0100 	andeqs	r0, ip, r0, lsl #2
     c24:	41020000 	tstmi	r2, r0
     c28:	0e110301 	cdpeq	3, 1, cr0, cr1, cr1, {0}
     c2c:	02000004 	andeq	r0, r0, #4	; 0x4
     c30:	00006442 	andeq	r6, r0, r2, asr #8
     c34:	20100000 	andcss	r0, r0, r0
     c38:	01000002 	tsteq	r0, r2
     c3c:	000004b4 	streqh	r0, [r0], -r4
     c40:	03013902 	movweq	r3, #6402	; 0x1902
     c44:	00040e11 	andeq	r0, r4, r1, lsl lr
     c48:	643a0200 	ldrvst	r0, [sl], #-512
     c4c:	00000000 	andeq	r0, r0, r0
     c50:	0002db12 	andeq	sp, r2, r2, lsl fp
     c54:	04ea0100 	streqbt	r0, [sl], #256
     c58:	5b010000 	blpl	40c60 <_start-0xa2fbf3a0>
     c5c:	0006bc01 	andeq	fp, r6, r1, lsl #24
     c60:	0007aca3 	andeq	sl, r7, r3, lsr #25
     c64:	0002a5a3 	andeq	sl, r2, r3, lsr #11
     c68:	04e31300 	streqbt	r1, [r3], #768
     c6c:	5a010000 	bpl	40c74 <_start-0xa2fbf38c>
     c70:	00000021 	andeq	r0, r0, r1, lsr #32
     c74:	000002c4 	andeq	r0, r0, r4, asr #5
     c78:	01006914 	tsteq	r0, r4, lsl r9
     c7c:	00003d5f 	andeq	r3, r0, pc, asr sp
     c80:	0002e200 	andeq	lr, r2, r0, lsl #4
     c84:	04661500 	streqbt	r1, [r6], #-1280
     c88:	60010000 	andvs	r0, r1, r0
     c8c:	0000003d 	andeq	r0, r0, sp, lsr r0
     c90:	0000030b 	andeq	r0, r0, fp, lsl #6
     c94:	00028b16 	andeq	r8, r2, r6, lsl fp
     c98:	0001ec00 	andeq	lr, r1, r0, lsl #24
     c9c:	0006c400 	andeq	ip, r6, r0, lsl #8
     ca0:	0006e0a3 	andeq	lr, r6, r3, lsr #1
     ca4:	175c01a3 	ldrneb	r0, [ip, -r3, lsr #3]
     ca8:	a30006c4 	movwge	r0, #1732	; 0x6c4
     cac:	a30006e0 	movwge	r0, #1760	; 0x6e0
     cb0:	0001fa18 	andeq	pc, r1, r8, lsl sl
     cb4:	00032900 	andeq	r2, r3, r0, lsl #18
     cb8:	19000000 	stmnedb	r0, {}
     cbc:	000002b7 	streqh	r0, [r0], -r7
     cc0:	a30006ec 	movwge	r0, #1772	; 0x6ec
     cc4:	a3000768 	movwge	r0, #1896	; 0x768
     cc8:	00045f15 	andeq	r5, r4, r5, lsl pc
     ccc:	866b0100 	strhibt	r0, [fp], -r0, lsl #2
     cd0:	47000001 	strmi	r0, [r0, -r1]
     cd4:	15000003 	strne	r0, [r0, #-3]
     cd8:	00000443 	andeq	r0, r0, r3, asr #8
     cdc:	01866c01 	orreq	r6, r6, r1, lsl #24
     ce0:	03910000 	orreqs	r0, r1, #0	; 0x0
     ce4:	1a000000 	bne	cec <_start-0xa2fff314>
     ce8:	00000206 	andeq	r0, r0, r6, lsl #4
     cec:	a3000788 	movwge	r0, #1928	; 0x788
     cf0:	a3000794 	movwge	r0, #1940	; 0x794
     cf4:	88178401 	ldmhida	r7, {r0, sl, pc}
     cf8:	94a30007 	strlst	r0, [r3], #7
     cfc:	18a30007 	stmneia	r3!, {r0, r1, r2}
     d00:	00000214 	andeq	r0, r0, r4, lsl r2
     d04:	000003af 	andeq	r0, r0, pc, lsr #7
     d08:	1b000000 	blne	d10 <_start-0xa2fff2f0>
     d0c:	00000346 	andeq	r0, r0, r6, asr #6
     d10:	00050d01 	andeq	r0, r5, r1, lsl #26
     d14:	01300100 	teqeq	r0, r0, lsl #2
     d18:	a30007ac 	movwge	r0, #1964	; 0x7ac
     d1c:	a30007ec 	movwge	r0, #2028	; 0x7ec
     d20:	691c5d01 	ldmvsdb	ip, {r0, r8, sl, fp, ip, lr}
     d24:	3d330100 	ldfccs	f0, [r3]
     d28:	16000000 	strne	r0, [r0], -r0
     d2c:	00000322 	andeq	r0, r0, r2, lsr #6
     d30:	000001ec 	andeq	r0, r0, ip, ror #3
     d34:	a30007ac 	movwge	r0, #1964	; 0x7ac
     d38:	a30007b8 	movwge	r0, #1976	; 0x7b8
     d3c:	ac173101 	ldfges	f3, [r7], {1}
     d40:	b8a30007 	stmltia	r3!, {r0, r1, r2}
     d44:	18a30007 	stmneia	r3!, {r0, r1, r2}
     d48:	000001fa 	streqd	r0, [r0], -sl
     d4c:	000003c2 	andeq	r0, r0, r2, asr #7
     d50:	061a0000 	ldreq	r0, [sl], -r0
     d54:	d8000002 	stmleda	r0, {r1}
     d58:	e4a30007 	strt	r0, [r3], #7
     d5c:	01a30007 	moveq	r0, r7
     d60:	07d8173a 	undefined
     d64:	07e4a300 	streqb	sl, [r4, r0, lsl #6]!
     d68:	1418a300 	ldrne	sl, [r8], #-768
     d6c:	d5000002 	strle	r0, [r0, #-2]
     d70:	00000003 	andeq	r0, r0, r3
     d74:	c8120000 	ldmgtda	r2, {}
     d78:	01000003 	tsteq	r0, r3
     d7c:	0000052f 	andeq	r0, r0, pc, lsr #10
     d80:	ec014501 	cfstr32	mvfx4, [r1], {1}
     d84:	70a30007 	adcvc	r0, r3, r7
     d88:	e8a30008 	stmia	r3!, {r3}
     d8c:	1d000003 	stcne	0, cr0, [r0, #-12]
     d90:	00766564 	rsbeqs	r6, r6, r4, ror #10
     d94:	006f4401 	rsbeq	r4, pc, r1, lsl #8
     d98:	04070000 	streq	r0, [r7]
     d9c:	d2150000 	andles	r0, r5, #0	; 0x0
     da0:	01000004 	tsteq	r0, r4
     da4:	0001864a 	andeq	r8, r1, sl, asr #12
     da8:	00042500 	andeq	r2, r4, r0, lsl #10
     dac:	03a41600 	moveq	r1, #0	; 0x0
     db0:	01ec0000 	mvneq	r0, r0
     db4:	07f40000 	ldreqb	r0, [r4, r0]!
     db8:	0800a300 	stmeqda	r0, {r8, r9, sp, pc}
     dbc:	4601a300 	strmi	sl, [r1], -r0, lsl #6
     dc0:	0007f417 	andeq	pc, r7, r7, lsl r4
     dc4:	000800a3 	andeq	r0, r8, r3, lsr #1
     dc8:	01fa18a3 	mvneqs	r1, r3, lsr #17
     dcc:	04430000 	streqb	r0, [r3]
     dd0:	00000000 	andeq	r0, r0, r0
     dd4:	0002061a 	andeq	r0, r2, sl, lsl r6
     dd8:	00085000 	andeq	r5, r8, r0
     ddc:	00085ca3 	andeq	r5, r8, r3, lsr #25
     de0:	174f01a3 	strneb	r0, [pc, -r3, lsr #3]
     de4:	a3000850 	movwge	r0, #2128	; 0x850
     de8:	a300085c 	movwge	r0, #2140	; 0x85c
     dec:	00021418 	andeq	r1, r2, r8, lsl r4
     df0:	00046100 	andeq	r6, r4, r0, lsl #2
     df4:	00000000 	andeq	r0, r0, r0
     df8:	0003d80c 	andeq	sp, r3, ip, lsl #16
     dfc:	0001e100 	andeq	lr, r1, r0, lsl #2
     e00:	01a21e00 	moveq	r1, r0, lsl #28
     e04:	00030000 	andeq	r0, r3, r0
     e08:	0004db1f 	andeq	sp, r4, pc, lsl fp
     e0c:	c82a0100 	stmgtda	sl!, {r8}
     e10:	05000003 	streq	r0, [r0, #-3]
     e14:	002e6803 	eoreq	r6, lr, r3, lsl #16
     e18:	03f90ca3 	mvneqs	r0, #41728	; 0xa300
     e1c:	00210000 	eoreq	r0, r1, r0
     e20:	a21e0000 	andges	r0, lr, #0	; 0x0
     e24:	03000001 	movweq	r0, #1	; 0x1
     e28:	04482000 	streqb	r2, [r8]
     e2c:	29010000 	stmcsdb	r1, {}
     e30:	0000040b 	andeq	r0, r0, fp, lsl #8
     e34:	cc030501 	cfstr32gt	mvfx0, [r3], {1}
     e38:	21a30023 	movcs	r0, r3, lsr #32
     e3c:	000003e9 	andeq	r0, r0, r9, ror #7
     e40:	00011e22 	andeq	r1, r1, r2, lsr #28
     e44:	3d050500 	cfstr32cc	mvfx0, [r5]
     e48:	01000000 	tsteq	r0, r0
     e4c:	02a30001 	adceq	r0, r3, #1	; 0x1
     e50:	00020000 	andeq	r0, r2, r0
     e54:	000006f4 	streqd	r0, [r0], -r4
     e58:	07ea0104 	streqb	r0, [sl, r4, lsl #2]!
     e5c:	09fc0000 	ldmeqib	ip!, {}^
     e60:	0870a300 	ldmeqda	r0!, {r8, r9, sp, pc}^
     e64:	009ea300 	addeqs	sl, lr, r0, lsl #6
     e68:	48010000 	stmmida	r1, {}
     e6c:	02000005 	andeq	r0, r0, #5	; 0x5
     e70:	0000003d 	andeq	r0, r0, sp, lsr r0
     e74:	00058001 	andeq	r8, r5, r1
     e78:	01230100 	teqeq	r3, r0, lsl #2
     e7c:	0000003d 	andeq	r0, r0, sp, lsr r0
     e80:	00630301 	rsbeq	r0, r3, r1, lsl #6
     e84:	003d2201 	eoreqs	r2, sp, r1, lsl #4
     e88:	04000000 	streq	r0, [r0]
     e8c:	00746e69 	rsbeqs	r6, r4, r9, ror #28
     e90:	60020504 	andvs	r0, r2, r4, lsl #10
     e94:	01000000 	tsteq	r0, r0
     e98:	000005c8 	andeq	r0, r0, r8, asr #11
     e9c:	3d013301 	stccc	3, cr3, [r1, #-4]
     ea0:	01000000 	tsteq	r0, r0
     ea4:	01006303 	tsteq	r0, r3, lsl #6
     ea8:	00003d32 	andeq	r3, r0, r2, lsr sp
     eac:	7c020000 	stcvc	0, cr0, [r2], {0}
     eb0:	01000000 	tsteq	r0, r0
     eb4:	00000590 	muleq	r0, r0, r5
     eb8:	3d011901 	stccc	9, cr1, [r1, #-4]
     ebc:	01000000 	tsteq	r0, r0
     ec0:	01006303 	tsteq	r0, r3, lsl #6
     ec4:	00003d18 	andeq	r3, r0, r8, lsl sp
     ec8:	a5050000 	strge	r0, [r5]
     ecc:	01000000 	tsteq	r0, r0
     ed0:	000005a8 	andeq	r0, r0, r8, lsr #11
     ed4:	3d010f01 	stccc	15, cr0, [r1, #-4]
     ed8:	70000000 	andvc	r0, r0, r0
     edc:	80a30008 	adchi	r0, r3, r8
     ee0:	01a30008 	moveq	r0, r8
     ee4:	0063065d 	rsbeq	r0, r3, sp, asr r6
     ee8:	003d0e01 	eoreqs	r0, sp, r1, lsl #28
     eec:	04740000 	ldreqbt	r0, [r4]
     ef0:	05000000 	streq	r0, [r0]
     ef4:	000000ce 	andeq	r0, r0, lr, asr #1
     ef8:	00054001 	andeq	r4, r5, r1
     efc:	01140100 	tsteq	r4, r0, lsl #2
     f00:	0000003d 	andeq	r0, r0, sp, lsr r0
     f04:	a3000880 	movwge	r0, #2176	; 0x880
     f08:	a3000894 	movwge	r0, #2196	; 0x894
     f0c:	63065d01 	movwvs	r5, #27905	; 0x6d01
     f10:	3d130100 	ldfccs	f0, [r3]
     f14:	87000000 	strhi	r0, [r0, -r0]
     f18:	00000004 	andeq	r0, r0, r4
     f1c:	0000eb07 	andeq	lr, r0, r7, lsl #22
     f20:	00006000 	andeq	r6, r0, r0
     f24:	00089400 	andeq	r9, r8, r0, lsl #8
     f28:	0008a8a3 	andeq	sl, r8, r3, lsr #17
     f2c:	085d01a3 	ldmeqda	sp, {r0, r1, r5, r7, r8}^
     f30:	00000072 	andeq	r0, r0, r2, ror r0
     f34:	0000049a 	muleq	r0, sl, r4
     f38:	01070200 	tsteq	r7, r0, lsl #4
     f3c:	d1010000 	tstle	r1, r0
     f40:	01000002 	tsteq	r0, r2
     f44:	003d011e 	eoreqs	r0, sp, lr, lsl r1
     f48:	03010000 	movweq	r0, #4096	; 0x1000
     f4c:	1d010063 	stcne	0, cr0, [r1, #-396]
     f50:	0000003d 	andeq	r0, r0, sp, lsr r0
     f54:	01240700 	teqeq	r4, r0, lsl #14
     f58:	00eb0000 	rsceq	r0, fp, r0
     f5c:	08a80000 	stmeqia	r8!, {}
     f60:	08bca300 	ldmeqia	ip!, {r8, r9, sp, pc}
     f64:	5d01a300 	stcpl	3, cr10, [r1]
     f68:	0000fd08 	andeq	pc, r0, r8, lsl #26
     f6c:	0004ad00 	andeq	sl, r4, r0, lsl #26
     f70:	41070000 	tstmi	r7, r0
     f74:	21000001 	tstcs	r0, r1
     f78:	bc000000 	stclt	0, cr0, [r0], {0}
     f7c:	d0a30008 	adcle	r0, r3, r8
     f80:	01a30008 	moveq	r0, r8
     f84:	0033085d 	eoreqs	r0, r3, sp, asr r8
     f88:	04c00000 	streqb	r0, [r0]
     f8c:	05000000 	streq	r0, [r0]
     f90:	0000016a 	andeq	r0, r0, sl, ror #2
     f94:	00053801 	andeq	r3, r5, r1, lsl #16
     f98:	01280100 	teqeq	r8, r0, lsl #2
     f9c:	0000003d 	andeq	r0, r0, sp, lsr r0
     fa0:	a30008d0 	movwge	r0, #2256	; 0x8d0
     fa4:	a30008e4 	movwge	r0, #2276	; 0x8e4
     fa8:	63065d01 	movwvs	r5, #27905	; 0x6d01
     fac:	3d270100 	stfccs	f0, [r7]
     fb0:	d3000000 	movwle	r0, #0	; 0x0
     fb4:	00000004 	andeq	r0, r0, r4
     fb8:	00019305 	andeq	r9, r1, r5, lsl #6
     fbc:	05b80100 	ldreq	r0, [r8, #256]!
     fc0:	2d010000 	stccs	0, cr0, [r1]
     fc4:	00003d01 	andeq	r3, r0, r1, lsl #26
     fc8:	0008e400 	andeq	lr, r8, r0, lsl #8
     fcc:	000918a3 	andeq	r1, r9, r3, lsr #17
     fd0:	065d01a3 	ldreqb	r0, [sp], -r3, lsr #3
     fd4:	2c010063 	stccs	0, cr0, [r1], {99}
     fd8:	0000003d 	andeq	r0, r0, sp, lsr r0
     fdc:	000004e6 	andeq	r0, r0, r6, ror #9
     fe0:	01b00700 	moveqs	r0, r0, lsl #14
     fe4:	00440000 	subeq	r0, r4, r0
     fe8:	09180000 	ldmeqdb	r8, {}
     fec:	092ca300 	stmeqdb	ip!, {r8, r9, sp, pc}
     ff0:	5d01a300 	stcpl	3, cr10, [r1]
     ff4:	00005608 	andeq	r5, r0, r8, lsl #12
     ff8:	00050400 	andeq	r0, r5, r0, lsl #8
     ffc:	d9050000 	stmledb	r5, {}
    1000:	01000001 	tsteq	r0, r1
    1004:	00000598 	muleq	r0, r8, r5
    1008:	3d013f01 	stccc	15, cr3, [r1, #-4]
    100c:	2c000000 	stccs	0, cr0, [r0], {0}
    1010:	54a30009 	strplt	r0, [r3], #9
    1014:	01a30009 	moveq	r0, r9
    1018:	0063065d 	rsbeq	r0, r3, sp, asr r6
    101c:	003d3e01 	eoreqs	r3, sp, r1, lsl #28
    1020:	05170000 	ldreq	r0, [r7]
    1024:	09000000 	stmeqdb	r0, {}
    1028:	00000204 	andeq	r0, r0, r4, lsl #4
    102c:	00058801 	andeq	r8, r5, r1, lsl #16
    1030:	01440100 	cmpeq	r4, r0, lsl #2
    1034:	0000003d 	andeq	r0, r0, sp, lsr r0
    1038:	a3000954 	movwge	r0, #2388	; 0x954
    103c:	a3000980 	movwge	r0, #2432	; 0x980
    1040:	0000052a 	andeq	r0, r0, sl, lsr #10
    1044:	01006306 	tsteq	r0, r6, lsl #6
    1048:	00003d43 	andeq	r3, r0, r3, asr #26
    104c:	00054900 	andeq	r4, r5, r0, lsl #18
    1050:	2d050000 	stccs	0, cr0, [r5]
    1054:	01000002 	tsteq	r0, r2
    1058:	000005a0 	andeq	r0, r0, r0, lsr #11
    105c:	3d015301 	stccc	3, cr5, [r1, #-4]
    1060:	80000000 	andhi	r0, r0, r0
    1064:	90a30009 	adcls	r0, r3, r9
    1068:	01a30009 	moveq	r0, r9
    106c:	0063065d 	rsbeq	r0, r3, sp, asr r6
    1070:	003d5201 	eoreqs	r5, sp, r1, lsl #4
    1074:	05670000 	streqb	r0, [r7]!
    1078:	05000000 	streq	r0, [r0]
    107c:	00000256 	andeq	r0, r0, r6, asr r2
    1080:	0005d001 	andeq	sp, r5, r1
    1084:	01380100 	teqeq	r8, r0, lsl #2
    1088:	0000003d 	andeq	r0, r0, sp, lsr r0
    108c:	a3000990 	movwge	r0, #2448	; 0x990
    1090:	a30009c4 	movwge	r0, #2500	; 0x9c4
    1094:	63065d01 	movwvs	r5, #27905	; 0x6d01
    1098:	3d370100 	ldfccs	f0, [r7]
    109c:	7a000000 	bvc	10a4 <_start-0xa2ffef5c>
    10a0:	00000005 	andeq	r0, r0, r5
    10a4:	00028109 	andeq	r8, r2, r9, lsl #2
    10a8:	05b00100 	ldreq	r0, [r0, #256]!
    10ac:	49010000 	stmmidb	r1, {}
    10b0:	00003d01 	andeq	r3, r0, r1, lsl #26
    10b4:	0009c400 	andeq	ip, r9, r0, lsl #8
    10b8:	0009eca3 	andeq	lr, r9, r3, lsr #25
    10bc:	000598a3 	andeq	r9, r5, r3, lsr #17
    10c0:	00630600 	rsbeq	r0, r3, r0, lsl #12
    10c4:	003d4801 	eoreqs	r4, sp, r1, lsl #16
    10c8:	05b70000 	ldreq	r0, [r7]!
    10cc:	0a000000 	beq	10d4 <_start-0xa2ffef2c>
    10d0:	0005c001 	andeq	ip, r5, r1
    10d4:	014e0100 	cmpeq	lr, r0, lsl #2
    10d8:	0000003d 	andeq	r0, r0, sp, lsr r0
    10dc:	a30009ec 	movwge	r0, #2540	; 0x9ec
    10e0:	a30009fc 	movwge	r0, #2556	; 0x9fc
    10e4:	63065d01 	movwvs	r5, #27905	; 0x6d01
    10e8:	3d4d0100 	stfcce	f0, [sp]
    10ec:	d5000000 	strle	r0, [r0]
    10f0:	00000005 	andeq	r0, r0, r5
    10f4:	00005a00 	andeq	r5, r0, r0, lsl #20
    10f8:	a3000200 	movwge	r0, #512	; 0x200
    10fc:	04000007 	streq	r0, [r0], #-7
    1100:	00088b01 	andeq	r8, r8, r1, lsl #22
    1104:	0009fc00 	andeq	pc, r9, r0, lsl #24
    1108:	000a50a3 	andeq	r5, sl, r3, lsr #1
    110c:	6f6261a3 	svcvs	0x006261a3
    1110:	532e7472 	teqpl	lr, #1912602624	; 0x72000000
    1114:	6f682f00 	svcvs	0x00682f00
    1118:	6a2f656d 	bvs	bda6d4 <_start-0xa242592c>
    111c:	74616261 	strvcbt	r6, [r1], #-609
    1120:	636f442f 	cmnvs	pc, #788529152	; 0x2f000000
    1124:	6e656d75 	mcrvs	13, 3, r6, cr5, cr5, {3}
    1128:	652f7374 	strvs	r7, [pc, #-884]!	; dbc <_start-0xa2fff244>
    112c:	6465626d 	strvsbt	r6, [r5], #-621
    1130:	5f646564 	svcpl	0x00646564
    1134:	7362616c 	cmnvc	r2, #27	; 0x1b
    1138:	62616c2f 	rsbvs	r6, r1, #12032	; 0x2f00
    113c:	4e470034 	mcrmi	0, 2, r0, cr7, cr4, {1}
    1140:	53412055 	movtpl	r2, #4181	; 0x1055
    1144:	312e3220 	teqcc	lr, r0, lsr #4
    1148:	30352e37 	eorccs	r2, r5, r7, lsr lr
    114c:	362e302e 	strcct	r3, [lr], -lr, lsr #32
    1150:	60800100 	addvs	r0, r0, r0, lsl #2
    1154:	02000000 	andeq	r0, r0, #0	; 0x0
    1158:	0007b700 	andeq	fp, r7, r0, lsl #14
    115c:	d5010400 	strle	r0, [r1, #-1024]
    1160:	50000008 	andpl	r0, r0, r8
    1164:	98a3000a 	stmlsia	r3!, {r1, r3}
    1168:	73a3000a 	movvc	r0, #10	; 0xa
    116c:	685f6977 	ldmvsda	pc, {r0, r1, r2, r4, r5, r6, r8, fp, sp, lr}^
    1170:	6c646e61 	stcvsl	14, cr6, [r4], #-388
    1174:	532e7265 	teqpl	lr, #1342177286	; 0x50000006
    1178:	6f682f00 	svcvs	0x00682f00
    117c:	6a2f656d 	bvs	bda738 <_start-0xa24258c8>
    1180:	74616261 	strvcbt	r6, [r1], #-609
    1184:	636f442f 	cmnvs	pc, #788529152	; 0x2f000000
    1188:	6e656d75 	mcrvs	13, 3, r6, cr5, cr5, {3}
    118c:	652f7374 	strvs	r7, [pc, #-884]!	; e20 <_start-0xa2fff1e0>
    1190:	6465626d 	strvsbt	r6, [r5], #-621
    1194:	5f646564 	svcpl	0x00646564
    1198:	7362616c 	cmnvc	r2, #27	; 0x1b
    119c:	62616c2f 	rsbvs	r6, r1, #12032	; 0x2f00
    11a0:	4e470034 	mcrmi	0, 2, r0, cr7, cr4, {1}
    11a4:	53412055 	movtpl	r2, #4181	; 0x1055
    11a8:	312e3220 	teqcc	lr, r0, lsr #4
    11ac:	30352e37 	eorccs	r2, r5, r7, lsr lr
    11b0:	362e302e 	strcct	r3, [lr], -lr, lsr #32
    11b4:	59800100 	stmplib	r0, {r8}
    11b8:	02000000 	andeq	r0, r0, #0	; 0x0
    11bc:	0007cb00 	andeq	ip, r7, r0, lsl #22
    11c0:	22010400 	andcs	r0, r1, #0	; 0x0
    11c4:	98000009 	stmlsda	r0, {r0, r3}
    11c8:	a4a3000a 	strget	r0, [r3], #10
    11cc:	65a3000a 	strvs	r0, [r3, #10]!
    11d0:	2e746978 	mrccs	9, 3, r6, cr4, cr8, {3}
    11d4:	682f0053 	stmvsda	pc!, {r0, r1, r4, r6}
    11d8:	2f656d6f 	svccs	0x00656d6f
    11dc:	6162616a 	cmnvs	r2, sl, ror #2
    11e0:	6f442f74 	svcvs	0x00442f74
    11e4:	656d7563 	strvsb	r7, [sp, #-1379]!
    11e8:	2f73746e 	svccs	0x0073746e
    11ec:	65626d65 	strvsb	r6, [r2, #-3429]!
    11f0:	64656464 	strvsbt	r6, [r5], #-1124
    11f4:	62616c5f 	rsbvs	r6, r1, #24320	; 0x5f00
    11f8:	616c2f73 	smcvs	49907
    11fc:	47003462 	strmi	r3, [r0, -r2, ror #8]
    1200:	4120554e 	teqmi	r0, lr, asr #10
    1204:	2e322053 	mrccs	0, 1, r2, cr2, cr3, {2}
    1208:	352e3731 	strcc	r3, [lr, #-1841]!
    120c:	2e302e30 	mrccs	14, 1, r2, cr0, cr0, {1}
    1210:	80010036 	andhi	r0, r1, r6, lsr r0
    1214:	00000090 	muleq	r0, r0, r0
    1218:	07df0002 	ldreqb	r0, [pc, r2]
    121c:	01040000 	tsteq	r4, r0
    1220:	0000095a 	andeq	r0, r0, sl, asr r9
    1224:	a3000aa4 	movwge	r0, #2724	; 0xaa4
    1228:	a3000b18 	movwge	r0, #2840	; 0xb18
    122c:	6d6f682f 	stcvsl	8, cr6, [pc, #-188]!
    1230:	616a2f65 	cmnvs	sl, r5, ror #30
    1234:	2f746162 	svccs	0x00746162
    1238:	75636f44 	strvcb	r6, [r3, #-3908]!
    123c:	746e656d 	strvcbt	r6, [lr], #-1389
    1240:	6d652f73 	stcvsl	15, cr2, [r5, #-460]!
    1244:	64646562 	strvsbt	r6, [r4], #-1378
    1248:	6c5f6465 	cfldrdvs	mvd6, [pc], {101}
    124c:	2f736261 	svccs	0x00736261
    1250:	3462616c 	strccbt	r6, [r2], #-364
    1254:	72656b2f 	rsbvc	r6, r5, #48128	; 0xbc00
    1258:	2f6c656e 	svccs	0x006c656e
    125c:	6e72656b 	cdpvs	5, 7, cr6, cr2, cr11, {3}
    1260:	755f6c65 	ldrvcb	r6, [pc, #-3173]	; 603 <_start-0xa2fff9fd>
    1264:	2e6c6974 	mcrcs	9, 3, r6, cr12, cr4, {3}
    1268:	682f0053 	stmvsda	pc!, {r0, r1, r4, r6}
    126c:	2f656d6f 	svccs	0x00656d6f
    1270:	6162616a 	cmnvs	r2, sl, ror #2
    1274:	6f442f74 	svcvs	0x00442f74
    1278:	656d7563 	strvsb	r7, [sp, #-1379]!
    127c:	2f73746e 	svccs	0x0073746e
    1280:	65626d65 	strvsb	r6, [r2, #-3429]!
    1284:	64656464 	strvsbt	r6, [r5], #-1124
    1288:	62616c5f 	rsbvs	r6, r1, #24320	; 0x5f00
    128c:	616c2f73 	smcvs	49907
    1290:	47003462 	strmi	r3, [r0, -r2, ror #8]
    1294:	4120554e 	teqmi	r0, lr, asr #10
    1298:	2e322053 	mrccs	0, 1, r2, cr2, cr3, {2}
    129c:	352e3731 	strcc	r3, [lr, #-1841]!
    12a0:	2e302e30 	mrccs	14, 1, r2, cr0, cr0, {1}
    12a4:	80010036 	andhi	r0, r1, r6, lsr r0
    12a8:	00000275 	andeq	r0, r0, r5, ror r2
    12ac:	07f30002 	ldreqb	r0, [r3, r2]!
    12b0:	01040000 	tsteq	r4, r0
    12b4:	000009e4 	andeq	r0, r0, r4, ror #19
    12b8:	a3000c14 	movwge	r0, #3092	; 0xc14
    12bc:	a3000b18 	movwge	r0, #2840	; 0xb18
    12c0:	0000009e 	muleq	r0, lr, r0
    12c4:	00062201 	andeq	r2, r6, r1, lsl #4
    12c8:	07e60200 	streqb	r0, [r6, r0, lsl #4]!
    12cc:	20030000 	andcs	r0, r3, r0
    12d0:	0000002c 	andeq	r0, r0, ip, lsr #32
    12d4:	00007d03 	andeq	r7, r0, r3, lsl #26
    12d8:	03070400 	movweq	r0, #29696	; 0x7400
    12dc:	000000af 	andeq	r0, r0, pc, lsr #1
    12e0:	40030504 	andmi	r0, r3, r4, lsl #10
    12e4:	01000000 	tsteq	r0, r0
    12e8:	00670308 	rsbeq	r0, r7, r8, lsl #6
    12ec:	05020000 	streq	r0, [r2]
    12f0:	746e6904 	strvcbt	r6, [lr], #-2308
    12f4:	03050400 	movweq	r0, #21504	; 0x5400
    12f8:	000000aa 	andeq	r0, r0, sl, lsr #1
    12fc:	37030508 	strcc	r0, [r3, -r8, lsl #10]
    1300:	01000000 	tsteq	r0, r0
    1304:	004d0308 	subeq	r0, sp, r8, lsl #6
    1308:	07020000 	streq	r0, [r2, -r0]
    130c:	0000f102 	andeq	pc, r0, r2, lsl #2
    1310:	6f2c0300 	svcvs	0x002c0300
    1314:	03000000 	movweq	r0, #0	; 0x0
    1318:	00000082 	andeq	r0, r0, r2, lsl #1
    131c:	78030704 	stmvcda	r3, {r2, r8, r9, sl}
    1320:	08000000 	stmeqda	r0, {}
    1324:	00820307 	addeq	r0, r2, r7, lsl #6
    1328:	07040000 	streq	r0, [r4, -r0]
    132c:	0000e105 	andeq	lr, r0, r5, lsl #2
    1330:	06620100 	streqbt	r0, [r2], -r0, lsl #2
    1334:	34010000 	strcc	r0, [r1]
    1338:	0000e101 	andeq	lr, r0, r1, lsl #2
    133c:	000b1800 	andeq	r1, fp, r0, lsl #16
    1340:	000b58a3 	andeq	r5, fp, r3, lsr #17
    1344:	0005e8a3 	andeq	lr, r5, r3, lsr #17
    1348:	05f80600 	ldreqb	r0, [r8, #1536]!
    134c:	33010000 	movwcc	r0, #4096	; 0x1000
    1350:	0000006f 	andeq	r0, r0, pc, rrx
    1354:	00000607 	andeq	r0, r0, r7, lsl #12
    1358:	00010c07 	andeq	r0, r1, r7, lsl #24
    135c:	48330100 	ldmmida	r3!, {r8}
    1360:	01000000 	tsteq	r0, r0
    1364:	016f0651 	cmneq	pc, r1, asr r6
    1368:	33010000 	movwcc	r0, #4096	; 0x1000
    136c:	000000e7 	andeq	r0, r0, r7, ror #1
    1370:	0000061a 	andeq	r0, r0, sl, lsl r6
    1374:	00017b08 	andeq	r7, r1, r8, lsl #22
    1378:	e1370100 	teq	r7, r0, lsl #2
    137c:	09000000 	stmeqdb	r0, {}
    1380:	3a01006a 	bcc	41530 <_start-0xa2fbead0>
    1384:	00000048 	andeq	r0, r0, r8, asr #32
    1388:	6f040a00 	svcvs	0x00040a00
    138c:	0a000000 	beq	1394 <_start-0xa2ffec6c>
    1390:	0000ed04 	andeq	lr, r0, r4, lsl #26
    1394:	3a040a00 	bcc	103b9c <_start-0xa2efc464>
    1398:	0b000000 	bleq	13a0 <_start-0xa2ffec60>
    139c:	00000125 	andeq	r0, r0, r5, lsr #2
    13a0:	00066e01 	andeq	r6, r6, r1, lsl #28
    13a4:	01450100 	cmpeq	r5, r0, lsl #2
    13a8:	a3000b58 	movwge	r0, #2904	; 0xb58
    13ac:	a3000b70 	movwge	r0, #2928	; 0xb70
    13b0:	04075d01 	streq	r5, [r7], #-3329
    13b4:	01000006 	tsteq	r0, r6
    13b8:	0000e144 	andeq	lr, r0, r4, asr #2
    13bc:	0c500100 	ldfeqe	f0, [r0], {0}
    13c0:	00000618 	andeq	r0, r0, r8, lsl r6
    13c4:	00e14601 	rsceq	r4, r1, r1, lsl #12
    13c8:	52010000 	andpl	r0, r1, #0	; 0x0
    13cc:	014a0d00 	cmpeq	sl, r0, lsl #26
    13d0:	0e010000 	cdpeq	0, 0, cr0, cr1, cr0, {0}
    13d4:	02000006 	andeq	r0, r0, #6	; 0x6
    13d8:	0e030118 	mcreq	1, 0, r0, cr3, cr8, {0}
    13dc:	000001f3 	streqd	r0, [r0], -r3
    13e0:	00211702 	eoreq	r1, r1, r2, lsl #14
    13e4:	6a0e0000 	bvs	3813ec <_start-0xa2c7ec14>
    13e8:	02000001 	andeq	r0, r0, #1	; 0x1
    13ec:	00006417 	andeq	r6, r0, r7, lsl r4
    13f0:	030f0000 	movweq	r0, #61440	; 0xf000
    13f4:	01000002 	tsteq	r0, r2
    13f8:	000005e7 	andeq	r0, r0, r7, ror #11
    13fc:	0b701301 	bleq	1c06008 <_start-0xa13f9ff8>
    1400:	0bd4a300 	bleq	ff52a008 <__bss_end__+0x5c4e5854>
    1404:	062da300 	streqt	sl, [sp], -r0, lsl #6
    1408:	7c100000 	ldcvc	0, cr0, [r0], {0}
    140c:	25000001 	strcs	r0, [r0, #-1]
    1410:	00000001 	andeq	r0, r0, r1
    1414:	01000000 	tsteq	r0, r0
    1418:	013e1119 	teqeq	lr, r9, lsl r1
    141c:	33110000 	tstcc	r1, #0	; 0x0
    1420:	00000001 	andeq	r0, r0, r1
    1424:	00019610 	andeq	r9, r1, r0, lsl r6
    1428:	00012500 	andeq	r2, r1, r0, lsl #10
    142c:	00001800 	andeq	r1, r0, r0, lsl #16
    1430:	111f0100 	tstne	pc, r0, lsl #2
    1434:	0000013e 	andeq	r0, r0, lr, lsr r1
    1438:	00013311 	andeq	r3, r1, r1, lsl r3
    143c:	b0100000 	andlts	r0, r0, r0
    1440:	25000001 	strcs	r0, [r0, #-1]
    1444:	38000001 	stmccda	r0, {r0}
    1448:	01000000 	tsteq	r0, r0
    144c:	013e111c 	teqeq	lr, ip, lsl r1
    1450:	33110000 	tstcc	r1, #0	; 0x0
    1454:	00000001 	andeq	r0, r0, r1
    1458:	0001ca10 	andeq	ip, r1, r0, lsl sl
    145c:	00012500 	andeq	r2, r1, r0, lsl #10
    1460:	00005000 	andeq	r5, r0, r0
    1464:	11250100 	teqne	r5, r0, lsl #2
    1468:	0000013e 	andeq	r0, r0, lr, lsr r1
    146c:	00013311 	andeq	r3, r1, r1, lsl r3
    1470:	e8120000 	ldmda	r2, {}
    1474:	25000001 	strcs	r0, [r0, #-1]
    1478:	b0000001 	andlt	r0, r0, r1
    147c:	b4a3000b 	strltt	r0, [r3], #11
    1480:	01a3000b 	moveq	r0, fp
    1484:	013e1122 	teqeq	lr, r2, lsr #2
    1488:	33110000 	tstcc	r1, #0	; 0x0
    148c:	00000001 	andeq	r0, r0, r1
    1490:	00012513 	andeq	r2, r1, r3, lsl r5
    1494:	000bb800 	andeq	fp, fp, r0, lsl #16
    1498:	000bc0a3 	andeq	ip, fp, r3, lsr #1
    149c:	112801a3 	smulwbne	r8, r3, r1
    14a0:	0000013e 	andeq	r0, r0, lr, lsr r1
    14a4:	00013311 	andeq	r3, r1, r1, lsl r3
    14a8:	0f000000 	svceq	0x00000000
    14ac:	00000254 	andeq	r0, r0, r4, asr r2
    14b0:	0005e501 	andeq	lr, r5, r1, lsl #10
    14b4:	d42c0100 	strlet	r0, [ip], #-256
    14b8:	14a3000b 	strnet	r0, [r3], #11
    14bc:	4ca3000c 	stcmi	0, cr0, [r3], #48
    14c0:	12000006 	andne	r0, r0, #6	; 0x6
    14c4:	00000239 	andeq	r0, r0, r9, lsr r2
    14c8:	00000125 	andeq	r0, r0, r5, lsr #2
    14cc:	a3000bf0 	movwge	r0, #3056	; 0xbf0
    14d0:	a3000bfc 	movwge	r0, #3068	; 0xbfc
    14d4:	3e112f01 	cdpcc	15, 1, cr2, cr1, cr1, {0}
    14d8:	11000001 	tstne	r0, r1
    14dc:	00000133 	andeq	r0, r0, r3, lsr r1
    14e0:	01251300 	teqeq	r5, r0, lsl #6
    14e4:	0bfc0000 	bleq	fff014ec <__bss_end__+0x5cebcd38>
    14e8:	0c04a300 	stceq	3, cr10, [r4], {0}
    14ec:	3001a300 	andcc	sl, r1, r0, lsl #6
    14f0:	00013e11 	andeq	r3, r1, r1, lsl lr
    14f4:	01331100 	teqeq	r3, r0, lsl #2
    14f8:	00000000 	andeq	r0, r0, r0
    14fc:	0005d914 	andeq	sp, r5, r4, lsl r9
    1500:	66100100 	ldrvs	r0, [r0], -r0, lsl #2
    1504:	01000002 	tsteq	r0, r2
    1508:	2e880305 	cdpcs	3, 8, cr0, cr8, cr5, {0}
    150c:	2c15a300 	ldccs	3, cr10, [r5], {0}
    1510:	16000000 	strne	r0, [r0], -r0
    1514:	0000011e 	andeq	r0, r0, lr, lsl r1
    1518:	00480504 	subeq	r0, r8, r4, lsl #10
    151c:	01010000 	tsteq	r1, r0
    1520:	00017e00 	andeq	r7, r1, r0, lsl #28
    1524:	3c000200 	sfmcc	f0, 4, [r0], {0}
    1528:	04000009 	streq	r0, [r0], #-9
    152c:	000b1301 	andeq	r1, fp, r1, lsl #6
    1530:	000c5c00 	andeq	r5, ip, r0, lsl #24
    1534:	000c14a3 	andeq	r1, ip, r3, lsr #9
    1538:	00009ea3 	andeq	r9, r0, r3, lsr #29
    153c:	06800100 	streq	r0, [r0], r0, lsl #2
    1540:	e6020000 	str	r0, [r2], -r0
    1544:	03000007 	movweq	r0, #7	; 0x7
    1548:	00002c20 	andeq	r2, r0, r0, lsr #24
    154c:	007d0300 	rsbeqs	r0, sp, r0, lsl #6
    1550:	07040000 	streq	r0, [r4, -r0]
    1554:	0000af03 	andeq	sl, r0, r3, lsl #30
    1558:	03050400 	movweq	r0, #21504	; 0x5400
    155c:	00000040 	andeq	r0, r0, r0, asr #32
    1560:	67030801 	strvs	r0, [r3, -r1, lsl #16]
    1564:	02000000 	andeq	r0, r0, #0	; 0x0
    1568:	6e690405 	cdpvs	4, 6, cr0, cr9, cr5, {0}
    156c:	05040074 	streq	r0, [r4, #-116]
    1570:	0000aa03 	andeq	sl, r0, r3, lsl #20
    1574:	03050800 	movweq	r0, #22528	; 0x5800
    1578:	00000037 	andeq	r0, r0, r7, lsr r0
    157c:	4d030801 	stcmi	8, cr0, [r3, #-4]
    1580:	02000000 	andeq	r0, r0, #0	; 0x0
    1584:	00f10207 	rsceqs	r0, r1, r7, lsl #4
    1588:	2c030000 	stccs	0, cr0, [r3], {0}
    158c:	0000006f 	andeq	r0, r0, pc, rrx
    1590:	00008203 	andeq	r8, r0, r3, lsl #4
    1594:	03070400 	movweq	r0, #29696	; 0x7400
    1598:	00000078 	andeq	r0, r0, r8, ror r0
    159c:	82030708 	andhi	r0, r3, #2097152	; 0x200000
    15a0:	04000000 	streq	r0, [r0]
    15a4:	00a20507 	adceq	r0, r2, r7, lsl #10
    15a8:	c7010000 	strgt	r0, [r1, -r0]
    15ac:	02000006 	andeq	r0, r0, #6	; 0x6
    15b0:	00640113 	rsbeq	r0, r4, r3, lsl r1
    15b4:	06030000 	streq	r0, [r3], -r0
    15b8:	000001f3 	streqd	r0, [r0], -r3
    15bc:	00211202 	eoreq	r1, r1, r2, lsl #4
    15c0:	07000000 	streq	r0, [r0, -r0]
    15c4:	000000c7 	andeq	r0, r0, r7, asr #1
    15c8:	00060e01 	andeq	r0, r6, r1, lsl #28
    15cc:	01180200 	tsteq	r8, r0, lsl #4
    15d0:	01f30603 	mvneqs	r0, r3, lsl #12
    15d4:	17020000 	strne	r0, [r2, -r0]
    15d8:	00000021 	andeq	r0, r0, r1, lsr #32
    15dc:	00016a06 	andeq	r6, r1, r6, lsl #20
    15e0:	64170200 	ldrvs	r0, [r7], #-512
    15e4:	00000000 	andeq	r0, r0, r0
    15e8:	00015808 	andeq	r5, r1, r8, lsl #16
    15ec:	06d00100 	ldreqb	r0, [r0], r0, lsl #2
    15f0:	17010000 	strne	r0, [r1, -r0]
    15f4:	a3000c14 	movwge	r0, #3092	; 0xc14
    15f8:	a3000c5c 	movwge	r0, #3164	; 0xc5c
    15fc:	c0095d01 	andgt	r5, r9, r1, lsl #26
    1600:	01000006 	tsteq	r0, r6
    1604:	00006f19 	andeq	r6, r0, r9, lsl pc
    1608:	00066b00 	andeq	r6, r6, r0, lsl #22
    160c:	01010a00 	tsteq	r1, r0, lsl #20
    1610:	00840000 	addeq	r0, r4, r0
    1614:	00680000 	rsbeq	r0, r8, r0
    1618:	19010000 	stmnedb	r1, {}
    161c:	0000960b 	andeq	r9, r0, fp, lsl #12
    1620:	1f0c0000 	svcne	0x000c0000
    1624:	a2000001 	andge	r0, r0, #1	; 0x1
    1628:	28000000 	stmcsda	r0, {}
    162c:	30a3000c 	adccc	r0, r3, ip
    1630:	01a3000c 	moveq	r0, ip
    1634:	00bb0b1f 	adceqs	r0, fp, pc, lsl fp
    1638:	b00b0000 	andlt	r0, fp, r0
    163c:	00000000 	andeq	r0, r0, r0
    1640:	00013d0c 	andeq	r3, r1, ip, lsl #26
    1644:	0000a200 	andeq	sl, r0, r0, lsl #4
    1648:	000c3000 	andeq	r3, ip, r0
    164c:	000c38a3 	andeq	r3, ip, r3, lsr #17
    1650:	0b2001a3 	bleq	801ce4 <_start-0xa27fe31c>
    1654:	000000bb 	streqh	r0, [r0], -fp
    1658:	0000b00b 	andeq	fp, r0, fp
    165c:	a20d0000 	andge	r0, sp, #0	; 0x0
    1660:	38000000 	stmccda	r0, {}
    1664:	40a3000c 	adcmi	r0, r3, ip
    1668:	01a3000c 	moveq	r0, ip
    166c:	00bb0b21 	adceqs	r0, fp, r1, lsr #22
    1670:	b00b0000 	andlt	r0, fp, r0
    1674:	00000000 	andeq	r0, r0, r0
    1678:	05d90e00 	ldreqb	r0, [r9, #3584]
    167c:	29040000 	stmcsdb	r4, {}
    1680:	00000165 	andeq	r0, r0, r5, ror #2
    1684:	2c0f0101 	stfcss	f0, [pc], {1}
    1688:	10000000 	andne	r0, r0, r0
    168c:	000006de 	ldreqd	r0, [r0], -lr
    1690:	017c1501 	cmneq	ip, r1, lsl #10
    1694:	05010000 	streq	r0, [r1]
    1698:	002e8c03 	eoreq	r8, lr, r3, lsl #24
    169c:	006f0fa3 	rsbeq	r0, pc, r3, lsr #31
    16a0:	90000000 	andls	r0, r0, r0
    16a4:	02000000 	andeq	r0, r0, #0	; 0x0
    16a8:	000a2900 	andeq	r2, sl, r0, lsl #18
    16ac:	2e010400 	cfcpyscs	mvf0, mvf1
    16b0:	5c00000c 	stcpl	0, cr0, [r0], {12}
    16b4:	6ca3000c 	stcvs	0, cr0, [r3], #48
    16b8:	2fa3000c 	svccs	0x00a3000c
    16bc:	656d6f68 	strvsb	r6, [sp, #-3944]!
    16c0:	62616a2f 	rsbvs	r6, r1, #192512	; 0x2f000
    16c4:	442f7461 	strmit	r7, [pc], #1121	; 16cc <_start-0xa2ffe934>
    16c8:	6d75636f 	ldcvsl	3, cr6, [r5, #-444]!
    16cc:	73746e65 	cmnvc	r4, #1616	; 0x650
    16d0:	626d652f 	rsbvs	r6, sp, #197132288	; 0xbc00000
    16d4:	65646465 	strvsb	r6, [r4, #-1125]!
    16d8:	616c5f64 	cmnvs	ip, r4, ror #30
    16dc:	6c2f7362 	stcvs	3, cr7, [pc], #-392
    16e0:	2f346261 	svccs	0x00346261
    16e4:	6e72656b 	cdpvs	5, 7, cr6, cr2, cr11, {3}
    16e8:	692f6c65 	stmvsdb	pc!, {r0, r2, r5, r6, sl, fp, sp, lr}
    16ec:	685f7172 	ldmvsda	pc, {r1, r4, r5, r6, r8, ip, sp, lr}^
    16f0:	6c646e61 	stcvsl	14, cr6, [r4], #-388
    16f4:	532e7265 	teqpl	lr, #1342177286	; 0x50000006
    16f8:	6f682f00 	svcvs	0x00682f00
    16fc:	6a2f656d 	bvs	bdacb8 <_start-0xa2425348>
    1700:	74616261 	strvcbt	r6, [r1], #-609
    1704:	636f442f 	cmnvs	pc, #788529152	; 0x2f000000
    1708:	6e656d75 	mcrvs	13, 3, r6, cr5, cr5, {3}
    170c:	652f7374 	strvs	r7, [pc, #-884]!	; 13a0 <_start-0xa2ffec60>
    1710:	6465626d 	strvsbt	r6, [r5], #-621
    1714:	5f646564 	svcpl	0x00646564
    1718:	7362616c 	cmnvc	r2, #27	; 0x1b
    171c:	62616c2f 	rsbvs	r6, r1, #12032	; 0x2f00
    1720:	4e470034 	mcrmi	0, 2, r0, cr7, cr4, {1}
    1724:	53412055 	movtpl	r2, #4181	; 0x1055
    1728:	312e3220 	teqcc	lr, r0, lsr #4
    172c:	30352e37 	eorccs	r2, r5, r7, lsr lr
    1730:	362e302e 	strcct	r3, [lr], -lr, lsr #32
    1734:	1f800100 	svcne	0x00800100
    1738:	02000002 	andeq	r0, r0, #2	; 0x2
    173c:	000a3d00 	andeq	r3, sl, r0, lsl #26
    1740:	9e010400 	cfcpysls	mvf0, mvf1
    1744:	f400000c 	vst4.8	{d0-d3}, [r0], ip
    1748:	6ca3000d 	stcvs	0, cr0, [r3], #52
    174c:	9ea3000c 	cdpls	0, 10, cr0, cr3, cr12, {0}
    1750:	01000000 	tsteq	r0, r0
    1754:	00000704 	andeq	r0, r0, r4, lsl #14
    1758:	00007d02 	andeq	r7, r0, r2, lsl #26
    175c:	02070400 	andeq	r0, r7, #0	; 0x0
    1760:	000000af 	andeq	r0, r0, pc, lsr #1
    1764:	40020504 	andmi	r0, r2, r4, lsl #10
    1768:	01000000 	tsteq	r0, r0
    176c:	00670208 	rsbeq	r0, r7, r8, lsl #4
    1770:	05020000 	streq	r0, [r2]
    1774:	746e6903 	strvcbt	r6, [lr], #-2307
    1778:	02050400 	andeq	r0, r5, #0	; 0x0
    177c:	000000aa 	andeq	r0, r0, sl, lsr #1
    1780:	37020508 	strcc	r0, [r2, -r8, lsl #10]
    1784:	01000000 	tsteq	r0, r0
    1788:	004d0208 	subeq	r0, sp, r8, lsl #4
    178c:	07020000 	streq	r0, [r2, -r0]
    1790:	0000f104 	andeq	pc, r0, r4, lsl #2
    1794:	642c0300 	strvst	r0, [ip], #-768
    1798:	02000000 	andeq	r0, r0, #0	; 0x0
    179c:	00000082 	andeq	r0, r0, r2, lsl #1
    17a0:	78020704 	stmvcda	r2, {r2, r8, r9, sl}
    17a4:	08000000 	stmeqda	r0, {}
    17a8:	06040507 	streq	r0, [r4], -r7, lsl #10
    17ac:	00000105 	andeq	r0, r0, r5, lsl #2
    17b0:	00000516 	andeq	r0, r0, r6, lsl r5
    17b4:	07260428 	streq	r0, [r6, -r8, lsr #8]!
    17b8:	04003472 	streq	r3, [r0], #-1138
    17bc:	00005927 	andeq	r5, r0, r7, lsr #18
    17c0:	00230200 	eoreq	r0, r3, r0, lsl #4
    17c4:	00357207 	eoreqs	r7, r5, r7, lsl #4
    17c8:	00592804 	subeqs	r2, r9, r4, lsl #16
    17cc:	23020000 	movwcs	r0, #8192	; 0x2000
    17d0:	36720704 	ldrccbt	r0, [r2], -r4, lsl #14
    17d4:	59290400 	stmpldb	r9!, {sl}
    17d8:	02000000 	andeq	r0, r0, #0	; 0x0
    17dc:	72070823 	andvc	r0, r7, #2293760	; 0x230000
    17e0:	2a040037 	bcs	1018c4 <_start-0xa2efe73c>
    17e4:	00000059 	andeq	r0, r0, r9, asr r0
    17e8:	070c2302 	streq	r2, [ip, -r2, lsl #6]
    17ec:	04003872 	streq	r3, [r0], #-2162
    17f0:	0000592b 	andeq	r5, r0, fp, lsr #18
    17f4:	10230200 	eorne	r0, r3, r0, lsl #4
    17f8:	00397207 	eoreqs	r7, r9, r7, lsl #4
    17fc:	00592c04 	subeqs	r2, r9, r4, lsl #24
    1800:	23020000 	movwcs	r0, #8192	; 0x2000
    1804:	31720714 	cmncc	r2, r4, lsl r7
    1808:	2d040030 	stccs	0, cr0, [r4, #-192]
    180c:	00000059 	andeq	r0, r0, r9, asr r0
    1810:	07182302 	ldreq	r2, [r8, -r2, lsl #6]
    1814:	00313172 	eoreqs	r3, r1, r2, ror r1
    1818:	00592e04 	subeqs	r2, r9, r4, lsl #28
    181c:	23020000 	movwcs	r0, #8192	; 0x2000
    1820:	7073071c 	rsbvcs	r0, r3, ip, lsl r7
    1824:	722f0400 	eorvc	r0, pc, #0	; 0x0
    1828:	02000000 	andeq	r0, r0, #0	; 0x0
    182c:	6c072023 	stcvs	0, cr2, [r7], {35}
    1830:	30040072 	andcc	r0, r4, r2, ror r0
    1834:	00000072 	andeq	r0, r0, r2, ror r0
    1838:	00242302 	eoreq	r2, r4, r2, lsl #6
    183c:	00007408 	andeq	r7, r0, r8, lsl #8
    1840:	00820200 	addeq	r0, r2, r0, lsl #4
    1844:	07040000 	streq	r0, [r4, -r0]
    1848:	00013809 	andeq	r3, r1, r9, lsl #16
    184c:	06f50100 	ldreqbt	r0, [r5], r0, lsl #2
    1850:	16010000 	strne	r0, [r1], -r0
    1854:	000c6c01 	andeq	r6, ip, r1, lsl #24
    1858:	000c70a3 	andeq	r7, ip, r3, lsr #1
    185c:	0a5d01a3 	beq	1741ef0 <_start-0xa18be110>
    1860:	00000174 	andeq	r0, r0, r4, ror r1
    1864:	003d1601 	eoreqs	r1, sp, r1, lsl #12
    1868:	067e0000 	ldreqbt	r0, [lr], -r0
    186c:	0b000000 	bleq	1874 <_start-0xa2ffe78c>
    1870:	00000152 	andeq	r0, r0, r2, asr r1
    1874:	0004b401 	andeq	fp, r4, r1, lsl #8
    1878:	01390200 	teqeq	r9, r0, lsl #4
    187c:	040e0c03 	streq	r0, [lr], #-3075
    1880:	3a020000 	bcc	81888 <_start-0xa2f7e778>
    1884:	00000059 	andeq	r0, r0, r9, asr r0
    1888:	016c0b00 	cmneq	ip, r0, lsl #22
    188c:	1c010000 	stcne	0, cr0, [r1], {0}
    1890:	02000000 	andeq	r0, r0, #0	; 0x0
    1894:	0c030141 	stfeqs	f0, [r3], {65}
    1898:	0000040e 	andeq	r0, r0, lr, lsl #8
    189c:	00594202 	subeqs	r4, r9, r2, lsl #4
    18a0:	0d000000 	stceq	0, cr0, [r0]
    18a4:	0000020f 	andeq	r0, r0, pc, lsl #4
    18a8:	0006e701 	andeq	lr, r6, r1, lsl #14
    18ac:	011b0100 	tsteq	fp, r0, lsl #2
    18b0:	0000003d 	andeq	r0, r0, sp, lsr r0
    18b4:	a3000c70 	movwge	r0, #3184	; 0xc70
    18b8:	a3000df4 	movwge	r0, #3572	; 0xdf4
    18bc:	00000691 	muleq	r0, r1, r6
    18c0:	0006fc0a 	andeq	pc, r6, sl, lsl #24
    18c4:	641b0100 	ldrvs	r0, [fp], #-256
    18c8:	bc000000 	stclt	0, cr0, [r0], {0}
    18cc:	0a000006 	beq	18ec <_start-0xa2ffe714>
    18d0:	00000744 	andeq	r0, r0, r4, asr #14
    18d4:	020f1b01 	andeq	r1, pc, #1024	; 0x400
    18d8:	06da0000 	ldreqb	r0, [sl], r0
    18dc:	630e0000 	movwvs	r0, #57344	; 0xe000
    18e0:	01007874 	tsteq	r0, r4, ror r8
    18e4:	0001051e 	andeq	r0, r1, lr, lsl r5
    18e8:	4c910200 	lfmmi	f0, 4, [r1], {0}
    18ec:	7465720f 	strvcbt	r7, [r5], #-527
    18f0:	3d210100 	stfccs	f0, [r1]
    18f4:	0e000000 	cdpeq	0, 0, cr0, cr0, cr0, {0}
    18f8:	10000007 	andne	r0, r0, r7
    18fc:	000001eb 	andeq	r0, r0, fp, ror #3
    1900:	00000138 	andeq	r0, r0, r8, lsr r1
    1904:	a3000ca4 	movwge	r0, #3236	; 0xca4
    1908:	a3000cb0 	movwge	r0, #3248	; 0xcb0
    190c:	a4111f01 	ldrge	r1, [r1], #-3841
    1910:	b0a3000c 	adclt	r0, r3, ip
    1914:	12a3000c 	adcne	r0, r3, #12	; 0xc
    1918:	00000146 	andeq	r0, r0, r6, asr #2
    191c:	00000737 	andeq	r0, r0, r7, lsr r7
    1920:	52130000 	andpls	r0, r3, #0	; 0x0
    1924:	ac000001 	stcge	0, cr0, [r0], {1}
    1928:	b8a3000d 	stmltia	r3!, {r0, r2, r3}
    192c:	01a3000d 	moveq	r0, sp
    1930:	0dac1153 	stfeqs	f1, [ip, #332]!
    1934:	0db8a300 	ldceq	3, cr10, [r8]
    1938:	6012a300 	andvss	sl, r2, r0, lsl #6
    193c:	4a000001 	bmi	1948 <_start-0xa2ffe6b8>
    1940:	00000007 	andeq	r0, r0, r7
    1944:	04140000 	ldreq	r0, [r4]
    1948:	00000064 	andeq	r0, r0, r4, rrx
    194c:	00011e15 	andeq	r1, r1, r5, lsl lr
    1950:	3d050500 	cfstr32cc	mvfx0, [r5]
    1954:	01000000 	tsteq	r0, r0
    1958:	01620001 	cmneq	r2, r1
    195c:	00020000 	andeq	r0, r2, r0
    1960:	00000b67 	andeq	r0, r0, r7, ror #22
    1964:	0ddc0104 	ldfeqe	f0, [ip, #16]
    1968:	0e340000 	cdpeq	0, 3, cr0, cr4, cr0, {0}
    196c:	0df4a300 	ldceql	3, cr10, [r4]
    1970:	009ea300 	addeqs	sl, lr, r0, lsl #6
    1974:	4f010000 	svcmi	0x00010000
    1978:	02000007 	andeq	r0, r0, #7	; 0x7
    197c:	000007e6 	andeq	r0, r0, r6, ror #15
    1980:	002c2002 	eoreq	r2, ip, r2
    1984:	7d030000 	stcvc	0, cr0, [r3]
    1988:	04000000 	streq	r0, [r0]
    198c:	00af0307 	adceq	r0, pc, r7, lsl #6
    1990:	05040000 	streq	r0, [r4]
    1994:	00004003 	andeq	r4, r0, r3
    1998:	03080100 	movweq	r0, #33024	; 0x8100
    199c:	00000067 	andeq	r0, r0, r7, rrx
    19a0:	69040502 	stmvsdb	r4, {r1, r8, sl}
    19a4:	0400746e 	streq	r7, [r0], #-1134
    19a8:	00aa0305 	adceq	r0, sl, r5, lsl #6
    19ac:	05080000 	streq	r0, [r8]
    19b0:	00003703 	andeq	r3, r0, r3, lsl #14
    19b4:	03080100 	movweq	r0, #33024	; 0x8100
    19b8:	0000004d 	andeq	r0, r0, sp, asr #32
    19bc:	f1020702 	undefined instruction 0xf1020702
    19c0:	02000000 	andeq	r0, r0, #0	; 0x0
    19c4:	00006f2c 	andeq	r6, r0, ip, lsr #30
    19c8:	00820300 	addeq	r0, r2, r0, lsl #6
    19cc:	07040000 	streq	r0, [r4, -r0]
    19d0:	00007803 	andeq	r7, r0, r3, lsl #16
    19d4:	05070800 	streq	r0, [r7, #-2048]
    19d8:	000000a8 	andeq	r0, r0, r8, lsr #1
    19dc:	0006c701 	andeq	ip, r6, r1, lsl #14
    19e0:	01130100 	tsteq	r3, r0, lsl #2
    19e4:	00000064 	andeq	r0, r0, r4, rrx
    19e8:	a3000df4 	movwge	r0, #3572	; 0xdf4
    19ec:	a3000e00 	movwge	r0, #3584	; 0xe00
    19f0:	f3065d01 	vpadd.f32	d5, d6, d1
    19f4:	01000001 	tsteq	r0, r1
    19f8:	00002112 	andeq	r2, r0, r2, lsl r1
    19fc:	00076800 	andeq	r6, r7, r0, lsl #16
    1a00:	dc070000 	stcle	0, cr0, [r7], {0}
    1a04:	01000000 	tsteq	r0, r0
    1a08:	0000060e 	andeq	r0, r0, lr, lsl #12
    1a0c:	00011801 	andeq	r1, r1, r1, lsl #16
    1a10:	0ca3000e 	stceq	0, cr0, [r3], #56
    1a14:	01a3000e 	moveq	r0, lr
    1a18:	01f3065d 	mvneqs	r0, sp, asr r6
    1a1c:	17010000 	strne	r0, [r1, -r0]
    1a20:	00000021 	andeq	r0, r0, r1, lsr #32
    1a24:	0000077b 	andeq	r0, r0, fp, ror r7
    1a28:	00016a08 	andeq	r6, r1, r8, lsl #20
    1a2c:	64170100 	ldrvs	r0, [r7], #-256
    1a30:	01000000 	tsteq	r0, r0
    1a34:	1d070051 	stcne	0, cr0, [r7, #-324]
    1a38:	01000001 	tsteq	r0, r1
    1a3c:	00000793 	muleq	r0, r3, r7
    1a40:	0c012001 	stceq	0, cr2, [r1], {1}
    1a44:	20a3000e 	adccs	r0, r3, lr
    1a48:	01a3000e 	moveq	r0, lr
    1a4c:	01f3065d 	mvneqs	r0, sp, asr r6
    1a50:	1f010000 	svcne	0x00010000
    1a54:	00000021 	andeq	r0, r0, r1, lsr #32
    1a58:	0000078e 	andeq	r0, r0, lr, lsl #15
    1a5c:	00074908 	andeq	r4, r7, r8, lsl #18
    1a60:	641f0100 	ldrvs	r0, [pc], #256	; 1a68 <_start-0xa2ffe598>
    1a64:	01000000 	tsteq	r0, r0
    1a68:	65720951 	ldrvsb	r0, [r2, #-2385]!
    1a6c:	21010067 	tstcs	r1, r7, rrx
    1a70:	0000011d 	andeq	r0, r0, sp, lsl r1
    1a74:	0a005001 	beq	15a80 <_start-0xa2fea580>
    1a78:	00012304 	andeq	r2, r1, r4, lsl #6
    1a7c:	00640b00 	rsbeq	r0, r4, r0, lsl #22
    1a80:	010c0000 	tsteq	ip, r0
    1a84:	00000789 	andeq	r0, r0, r9, lsl #15
    1a88:	20012601 	andcs	r2, r1, r1, lsl #12
    1a8c:	34a3000e 	strcct	r0, [r3], #14
    1a90:	01a3000e 	moveq	r0, lr
    1a94:	01f3065d 	mvneqs	r0, sp, asr r6
    1a98:	25010000 	strcs	r0, [r1]
    1a9c:	00000021 	andeq	r0, r0, r1, lsr #32
    1aa0:	000007a1 	andeq	r0, r0, r1, lsr #15
    1aa4:	00074908 	andeq	r4, r7, r8, lsl #18
    1aa8:	64250100 	strvst	r0, [r5], #-256
    1aac:	01000000 	tsteq	r0, r0
    1ab0:	65720951 	ldrvsb	r0, [r2, #-2385]!
    1ab4:	27010067 	strcs	r0, [r1, -r7, rrx]
    1ab8:	0000011d 	andeq	r0, r0, sp, lsl r1
    1abc:	00005001 	andeq	r5, r0, r1
    1ac0:	000000bb 	streqh	r0, [r0], -fp
    1ac4:	0c1e0002 	ldceq	0, cr0, [lr], {2}
    1ac8:	01040000 	tsteq	r4, r0
    1acc:	00000e9c 	muleq	r0, ip, lr
    1ad0:	a3000e44 	movwge	r0, #3652	; 0xe44
    1ad4:	a3000e34 	movwge	r0, #3636	; 0xe34
    1ad8:	0000009e 	muleq	r0, lr, r0
    1adc:	00079b01 	andeq	r9, r7, r1, lsl #22
    1ae0:	007d0200 	rsbeqs	r0, sp, r0, lsl #4
    1ae4:	07040000 	streq	r0, [r4, -r0]
    1ae8:	0000af02 	andeq	sl, r0, r2, lsl #30
    1aec:	02050400 	andeq	r0, r5, #0	; 0x0
    1af0:	00000040 	andeq	r0, r0, r0, asr #32
    1af4:	67020801 	strvs	r0, [r2, -r1, lsl #16]
    1af8:	02000000 	andeq	r0, r0, #0	; 0x0
    1afc:	6e690305 	cdpvs	3, 6, cr0, cr9, cr5, {0}
    1b00:	05040074 	streq	r0, [r4, #-116]
    1b04:	0000aa02 	andeq	sl, r0, r2, lsl #20
    1b08:	02050800 	andeq	r0, r5, #0	; 0x0
    1b0c:	00000037 	andeq	r0, r0, r7, lsr r0
    1b10:	4d020801 	stcmi	8, cr0, [r2, #-4]
    1b14:	02000000 	andeq	r0, r0, #0	; 0x0
    1b18:	00f10407 	rsceqs	r0, r1, r7, lsl #8
    1b1c:	2c020000 	stccs	0, cr0, [r2], {0}
    1b20:	00000064 	andeq	r0, r0, r4, rrx
    1b24:	00008202 	andeq	r8, r0, r2, lsl #4
    1b28:	02070400 	andeq	r0, r7, #0	; 0x0
    1b2c:	00000078 	andeq	r0, r0, r8, ror r0
    1b30:	9d050708 	stcls	7, cr0, [r5, #-32]
    1b34:	01000000 	tsteq	r0, r0
    1b38:	00000409 	andeq	r0, r0, r9, lsl #8
    1b3c:	59012301 	stmpldb	r1, {r0, r8, r9, sp}
    1b40:	34000000 	strcc	r0, [r0]
    1b44:	3ca3000e 	stccc	0, cr0, [r3], #56
    1b48:	01a3000e 	moveq	r0, lr
    1b4c:	040e065d 	streq	r0, [lr], #-1629
    1b50:	24010000 	strcs	r0, [r1]
    1b54:	00000059 	andeq	r0, r0, r9, asr r0
    1b58:	000007b4 	streqh	r0, [r0], -r4
    1b5c:	de010700 	cdple	7, 0, cr0, cr1, cr0, {0}
    1b60:	01000003 	tsteq	r0, r3
    1b64:	0e3c012a 	rsfeqep	f0, f4, #2.0
    1b68:	0e44a300 	cdpeq	3, 4, cr10, cr4, cr0, {0}
    1b6c:	5d01a300 	stcpl	3, cr10, [r1]
    1b70:	0003ae08 	andeq	sl, r3, r8, lsl #28
    1b74:	59290100 	stmpldb	r9!, {r8}
    1b78:	01000000 	tsteq	r0, r0
    1b7c:	90000050 	andls	r0, r0, r0, asr r0
    1b80:	02000000 	andeq	r0, r0, #0	; 0x0
    1b84:	000c9f00 	andeq	r9, ip, r0, lsl #30
    1b88:	53010400 	movwpl	r0, #5120	; 0x1400
    1b8c:	4400000f 	strmi	r0, [r0], #-15
    1b90:	a4a3000e 	strget	r0, [r3], #14
    1b94:	2fa3000e 	svccs	0x00a3000e
    1b98:	656d6f68 	strvsb	r6, [sp, #-3944]!
    1b9c:	62616a2f 	rsbvs	r6, r1, #192512	; 0x2f000
    1ba0:	442f7461 	strmit	r7, [pc], #1121	; 1ba8 <_start-0xa2ffe458>
    1ba4:	6d75636f 	ldcvsl	3, cr6, [r5, #-444]!
    1ba8:	73746e65 	cmnvc	r4, #1616	; 0x650
    1bac:	626d652f 	rsbvs	r6, sp, #197132288	; 0xbc00000
    1bb0:	65646465 	strvsb	r6, [r4, #-1125]!
    1bb4:	616c5f64 	cmnvs	ip, r4, ror #30
    1bb8:	6c2f7362 	stcvs	3, cr7, [pc], #-392
    1bbc:	2f346261 	svccs	0x00346261
    1bc0:	6e72656b 	cdpvs	5, 7, cr6, cr2, cr11, {3}
    1bc4:	612f6c65 	teqvs	pc, r5, ror #24
    1bc8:	692f6d72 	stmvsdb	pc!, {r1, r4, r5, r6, r8, sl, fp, sp, lr}
    1bcc:	615f746e 	cmpvs	pc, lr, ror #8
    1bd0:	532e6d73 	teqpl	lr, #7360	; 0x1cc0
    1bd4:	6f682f00 	svcvs	0x00682f00
    1bd8:	6a2f656d 	bvs	bdb194 <_start-0xa2424e6c>
    1bdc:	74616261 	strvcbt	r6, [r1], #-609
    1be0:	636f442f 	cmnvs	pc, #788529152	; 0x2f000000
    1be4:	6e656d75 	mcrvs	13, 3, r6, cr5, cr5, {3}
    1be8:	652f7374 	strvs	r7, [pc, #-884]!	; 187c <_start-0xa2ffe784>
    1bec:	6465626d 	strvsbt	r6, [r5], #-621
    1bf0:	5f646564 	svcpl	0x00646564
    1bf4:	7362616c 	cmnvc	r2, #27	; 0x1b
    1bf8:	62616c2f 	rsbvs	r6, r1, #12032	; 0x2f00
    1bfc:	4e470034 	mcrmi	0, 2, r0, cr7, cr4, {1}
    1c00:	53412055 	movtpl	r2, #4181	; 0x1055
    1c04:	312e3220 	teqcc	lr, r0, lsr #4
    1c08:	30352e37 	eorccs	r2, r5, r7, lsr lr
    1c0c:	362e302e 	strcct	r3, [lr], -lr, lsr #32
    1c10:	76800100 	strvc	r0, [r0], r0, lsl #2
    1c14:	02000001 	andeq	r0, r0, #1	; 0x1
    1c18:	000cb300 	andeq	fp, ip, r0, lsl #6
    1c1c:	d4010400 	strle	r0, [r1], #-1024
    1c20:	1400000f 	strne	r0, [r0], #-15
    1c24:	a4a30010 	strget	r0, [r3], #16
    1c28:	9ea3000e 	cdpls	0, 10, cr0, cr3, cr14, {0}
    1c2c:	01000000 	tsteq	r0, r0
    1c30:	000007ed 	andeq	r0, r0, sp, ror #15
    1c34:	0007e602 	andeq	lr, r7, r2, lsl #12
    1c38:	2c200200 	sfmcs	f0, 4, [r0]
    1c3c:	03000000 	movweq	r0, #0	; 0x0
    1c40:	0000007d 	andeq	r0, r0, sp, ror r0
    1c44:	e5020704 	str	r0, [r2, #-1796]
    1c48:	02000007 	andeq	r0, r0, #7	; 0x7
    1c4c:	00003e21 	andeq	r3, r0, r1, lsr #28
    1c50:	00af0300 	adceq	r0, pc, r0, lsl #6
    1c54:	05040000 	streq	r0, [r4]
    1c58:	00004003 	andeq	r4, r0, r3
    1c5c:	03080100 	movweq	r0, #33024	; 0x8100
    1c60:	00000067 	andeq	r0, r0, r7, rrx
    1c64:	69040502 	stmvsdb	r4, {r1, r8, sl}
    1c68:	0400746e 	streq	r7, [r0], #-1134
    1c6c:	00aa0305 	adceq	r0, sl, r5, lsl #6
    1c70:	05080000 	streq	r0, [r8]
    1c74:	00003703 	andeq	r3, r0, r3, lsl #14
    1c78:	03080100 	movweq	r0, #33024	; 0x8100
    1c7c:	0000004d 	andeq	r0, r0, sp, asr #32
    1c80:	82030702 	andhi	r0, r3, #524288	; 0x80000
    1c84:	04000000 	streq	r0, [r0]
    1c88:	00780307 	rsbeqs	r0, r8, r7, lsl #6
    1c8c:	07080000 	streq	r0, [r8, -r0]
    1c90:	82030405 	andhi	r0, r3, #83886080	; 0x5000000
    1c94:	04000000 	streq	r0, [r0]
    1c98:	00ec0607 	rsceq	r0, ip, r7, lsl #12
    1c9c:	2a010000 	bcs	41ca4 <_start-0xa2fbe35c>
    1ca0:	01000008 	tsteq	r0, r8
    1ca4:	0033016f 	eoreqs	r0, r3, pc, ror #2
    1ca8:	0ea40000 	cdpeq	0, 10, cr0, cr4, cr0, {0}
    1cac:	0f48a300 	svceq	0x0048a300
    1cb0:	07c7a300 	streqb	sl, [r7, r0, lsl #6]
    1cb4:	66070000 	strvs	r0, [r7], -r0
    1cb8:	6e010064 	cdpvs	0, 0, cr0, cr1, cr4, {3}
    1cbc:	00000053 	andeq	r0, r0, r3, asr r0
    1cc0:	000007e6 	andeq	r0, r0, r6, ror #15
    1cc4:	66756207 	ldrvsbt	r6, [r5], -r7, lsl #4
    1cc8:	ec6e0100 	stfe	f0, [lr]
    1ccc:	0f000000 	svceq	0x00000000
    1cd0:	08000008 	stmeqda	r0, {r3}
    1cd4:	00000233 	andeq	r0, r0, r3, lsr r2
    1cd8:	00216e01 	eoreq	r6, r1, r1, lsl #28
    1cdc:	082d0000 	stmeqda	sp!, {}
    1ce0:	de090000 	cdple	0, 0, cr0, cr9, cr0, {0}
    1ce4:	01000007 	tsteq	r0, r7
    1ce8:	0000f372 	andeq	pc, r0, r2, ror r3
    1cec:	00085600 	andeq	r5, r8, r0, lsl #12
    1cf0:	07d50a00 	ldreqb	r0, [r5, r0, lsl #20]
    1cf4:	81010000 	tsthi	r1, r0
    1cf8:	00000053 	andeq	r0, r0, r3, asr r0
    1cfc:	0b005501 	bleq	17108 <_start-0xa2fe8ef8>
    1d00:	0000f204 	andeq	pc, r0, r4, lsl #4
    1d04:	040b0c00 	streq	r0, [fp], #-3072
    1d08:	00000045 	andeq	r0, r0, r5, asr #32
    1d0c:	00016c06 	andeq	r6, r1, r6, lsl #24
    1d10:	08380100 	ldmeqda	r8!, {r8}
    1d14:	24010000 	strcs	r0, [r1]
    1d18:	00003301 	andeq	r3, r0, r1, lsl #6
    1d1c:	000f4800 	andeq	r4, pc, r0, lsl #16
    1d20:	001014a3 	andeqs	r1, r0, r3, lsr #9
    1d24:	000869a3 	andeq	r6, r8, r3, lsr #19
    1d28:	64660700 	strvsbt	r0, [r6], #-1792
    1d2c:	53230100 	teqpl	r3, #0	; 0x0
    1d30:	88000000 	stmhida	r0, {}
    1d34:	07000008 	streq	r0, [r0, -r8]
    1d38:	00667562 	rsbeq	r7, r6, r2, ror #10
    1d3c:	007d2301 	rsbeqs	r2, sp, r1, lsl #6
    1d40:	08b10000 	ldmeqia	r1!, {}
    1d44:	33080000 	movwcc	r0, #32768	; 0x8000
    1d48:	01000002 	tsteq	r0, r2
    1d4c:	00002123 	andeq	r2, r0, r3, lsr #2
    1d50:	0008cf00 	andeq	ip, r8, r0, lsl #30
    1d54:	07de0900 	ldreqb	r0, [lr, r0, lsl #18]
    1d58:	27010000 	strcs	r0, [r1, -r0]
    1d5c:	000000f3 	streqd	r0, [r0], -r3
    1d60:	000008ed 	andeq	r0, r0, sp, ror #17
    1d64:	0007d50a 	andeq	sp, r7, sl, lsl #10
    1d68:	6f360100 	svcvs	0x00360100
    1d6c:	01000000 	tsteq	r0, r0
    1d70:	00630d54 	rsbeq	r0, r3, r4, asr sp
    1d74:	00453701 	subeq	r3, r5, r1, lsl #14
    1d78:	09000000 	stmeqdb	r0, {}
    1d7c:	0e000000 	cdpeq	0, 0, cr0, cr0, cr0, {0}
    1d80:	0000011e 	andeq	r0, r0, lr, lsl r1
    1d84:	00530503 	subeqs	r0, r3, r3, lsl #10
    1d88:	01010000 	tsteq	r1, r0
    1d8c:	00028800 	andeq	r8, r2, r0, lsl #16
    1d90:	72000200 	andvc	r0, r0, #0	; 0x0
    1d94:	0400000d 	streq	r0, [r0], #-13
    1d98:	0010c601 	andeqs	ip, r0, r1, lsl #12
    1d9c:	00112c00 	andeqs	r2, r1, r0, lsl #24
    1da0:	001014a3 	andeqs	r1, r0, r3, lsr #9
    1da4:	00009ea3 	andeq	r9, r0, r3, lsr #29
    1da8:	08a20100 	stmeqia	r2!, {r8}
    1dac:	e6020000 	str	r0, [r2], -r0
    1db0:	03000007 	movweq	r0, #7	; 0x7
    1db4:	00002c20 	andeq	r2, r0, r0, lsr #24
    1db8:	007d0300 	rsbeqs	r0, sp, r0, lsl #6
    1dbc:	07040000 	streq	r0, [r4, -r0]
    1dc0:	0000af03 	andeq	sl, r0, r3, lsl #30
    1dc4:	03050400 	movweq	r0, #21504	; 0x5400
    1dc8:	00000040 	andeq	r0, r0, r0, asr #32
    1dcc:	67030801 	strvs	r0, [r3, -r1, lsl #16]
    1dd0:	02000000 	andeq	r0, r0, #0	; 0x0
    1dd4:	6e690405 	cdpvs	4, 6, cr0, cr9, cr5, {0}
    1dd8:	05040074 	streq	r0, [r4, #-116]
    1ddc:	0000aa03 	andeq	sl, r0, r3, lsl #20
    1de0:	03050800 	movweq	r0, #22528	; 0x5800
    1de4:	00000037 	andeq	r0, r0, r7, lsr r0
    1de8:	4d030801 	stcmi	8, cr0, [r3, #-4]
    1dec:	02000000 	andeq	r0, r0, #0	; 0x0
    1df0:	00f10207 	rsceqs	r0, r1, r7, lsl #4
    1df4:	2c030000 	stccs	0, cr0, [r3], {0}
    1df8:	0000006f 	andeq	r0, r0, pc, rrx
    1dfc:	00008203 	andeq	r8, r0, r3, lsl #4
    1e00:	03070400 	movweq	r0, #29696	; 0x7400
    1e04:	00000078 	andeq	r0, r0, r8, ror r0
    1e08:	89050708 	stmhidb	r5, {r3, r8, r9, sl}
    1e0c:	01000000 	tsteq	r0, r0
    1e10:	00008906 	andeq	r8, r0, r6, lsl #18
    1e14:	04070000 	streq	r0, [r7]
    1e18:	00087602 	andeq	r7, r8, r2, lsl #12
    1e1c:	96130400 	ldrls	r0, [r3], -r0, lsl #8
    1e20:	08000000 	stmeqda	r0, {}
    1e24:	00007d04 	andeq	r7, r0, r4, lsl #26
    1e28:	00eb0900 	rsceq	r0, fp, r0, lsl #18
    1e2c:	09b90000 	ldmeqib	r9!, {}
    1e30:	04140000 	ldreq	r0, [r4]
    1e34:	085f0a16 	ldmeqda	pc, {r1, r2, r4, r9, fp}^
    1e38:	17040000 	strne	r0, [r4, -r0]
    1e3c:	0000008b 	andeq	r0, r0, fp, lsl #1
    1e40:	0a002302 	beq	aa50 <_start-0xa2ff55b0>
    1e44:	0000016a 	andeq	r0, r0, sl, ror #2
    1e48:	00891804 	addeq	r1, r9, r4, lsl #16
    1e4c:	23020000 	movwcs	r0, #8192	; 0x2000
    1e50:	088c0a04 	stmeqia	ip, {r2, r9, fp}
    1e54:	19040000 	stmnedb	r4, {}
    1e58:	00000089 	andeq	r0, r0, r9, lsl #1
    1e5c:	0b082302 	bleq	20aa6c <_start-0xa2df5594>
    1e60:	1a040043 	bne	101f74 <_start-0xa2efe08c>
    1e64:	0000002c 	andeq	r0, r0, ip, lsr #32
    1e68:	0b0c2302 	bleq	30aa78 <_start-0xa2cf5588>
    1e6c:	1b040054 	blne	101fc4 <_start-0xa2efe03c>
    1e70:	0000002c 	andeq	r0, r0, ip, lsr #32
    1e74:	00102302 	andeqs	r2, r0, r2, lsl #6
    1e78:	00084502 	andeq	r4, r8, r2, lsl #10
    1e7c:	9c1d0400 	cfldrsls	mvf0, [sp], {0}
    1e80:	03000000 	movweq	r0, #0	; 0x0
    1e84:	00000082 	andeq	r0, r0, r2, lsl #1
    1e88:	170c0704 	strne	r0, [ip, -r4, lsl #14]
    1e8c:	01000001 	tsteq	r0, r1
    1e90:	0000001c 	andeq	r0, r0, ip, lsl r0
    1e94:	03014102 	movweq	r4, #4354	; 0x1102
    1e98:	00040e0d 	andeq	r0, r4, sp, lsl #28
    1e9c:	64420200 	strvsb	r0, [r2], #-512
    1ea0:	00000000 	andeq	r0, r0, r0
    1ea4:	0001610e 	andeq	r6, r1, lr, lsl #2
    1ea8:	08660100 	stmeqda	r6!, {r8}^
    1eac:	54010000 	strpl	r0, [r1]
    1eb0:	00101401 	andeqs	r1, r0, r1, lsl #8
    1eb4:	001034a3 	andeqs	r3, r0, r3, lsr #9
    1eb8:	0f5d01a3 	svceq	0x005d01a3
    1ebc:	00000856 	andeq	r0, r0, r6, asr r8
    1ec0:	006f5301 	rsbeq	r5, pc, r1, lsl #6
    1ec4:	093f0000 	ldmeqdb	pc!, {}
    1ec8:	fd100000 	ldc2	0, cr0, [r0]
    1ecc:	20000000 	andcs	r0, r0, r0
    1ed0:	34a30010 	strcct	r0, [r3], #16
    1ed4:	01a30010 	moveq	r0, r0, lsl r0
    1ed8:	10201157 	eorne	r1, r0, r7, asr r1
    1edc:	1034a300 	eornes	sl, r4, r0, lsl #6
    1ee0:	0b12a300 	bleq	4aaae8 <_start-0xa2b55518>
    1ee4:	5d000001 	stcpl	0, cr0, [r0, #-4]
    1ee8:	00000009 	andeq	r0, r0, r9
    1eec:	7b0c0000 	blvc	301ef4 <_start-0xa2cfe10c>
    1ef0:	01000001 	tsteq	r0, r1
    1ef4:	000004b4 	streqh	r0, [r0], -r4
    1ef8:	03013902 	movweq	r3, #6402	; 0x1902
    1efc:	00040e0d 	andeq	r0, r4, sp, lsl #28
    1f00:	643a0200 	ldrvst	r0, [sl], #-512
    1f04:	00000000 	andeq	r0, r0, r0
    1f08:	00020113 	andeq	r0, r2, r3, lsl r1
    1f0c:	08960100 	ldmeqia	r6, {r8}
    1f10:	1e010000 	cdpne	0, 0, cr0, cr1, cr0, {0}
    1f14:	00004801 	andeq	r4, r0, r1, lsl #16
    1f18:	00103400 	andeqs	r3, r0, r0, lsl #8
    1f1c:	0010c0a3 	andeqs	ip, r0, r3, lsr #1
    1f20:	000970a3 	andeq	r7, r9, r3, lsr #1
    1f24:	09950f00 	ldmeqib	r5, {r8, r9, sl, fp}
    1f28:	1d010000 	stcne	0, cr0, [r1]
    1f2c:	00000201 	andeq	r0, r0, r1, lsl #4
    1f30:	0000099b 	muleq	r0, fp, r9
    1f34:	00084c0f 	andeq	r4, r8, pc, lsl #24
    1f38:	211d0100 	tstcs	sp, r0, lsl #2
    1f3c:	ba000000 	blt	1f44 <_start-0xa2ffe0bc>
    1f40:	14000009 	strne	r0, [r0], #-9
    1f44:	000001dd 	ldreqd	r0, [r0], -sp
    1f48:	000000fd 	streqd	r0, [r0], -sp
    1f4c:	a3001044 	movwge	r1, #68	; 0x44
    1f50:	a3001050 	movwge	r1, #80	; 0x50
    1f54:	44111f01 	ldrmi	r1, [r1], #-3841
    1f58:	50a30010 	adcpl	r0, r3, r0, lsl r0
    1f5c:	12a30010 	adcne	r0, r3, #16	; 0x10
    1f60:	0000010b 	andeq	r0, r0, fp, lsl #2
    1f64:	000009ee 	andeq	r0, r0, lr, ror #19
    1f68:	61100000 	tstvs	r0, r0
    1f6c:	98000001 	stmlsda	r0, {r0}
    1f70:	a8a30010 	stmgeia	r3!, {r4}
    1f74:	01a30010 	moveq	r0, r0, lsl r0
    1f78:	1098113c 	addnes	r1, r8, ip, lsr r1
    1f7c:	10a8a300 	adcne	sl, r8, r0, lsl #6
    1f80:	6f12a300 	svcvs	0x0012a300
    1f84:	01000001 	tsteq	r0, r1
    1f88:	0000000a 	andeq	r0, r0, sl
    1f8c:	04080000 	streq	r0, [r8]
    1f90:	000000eb 	andeq	r0, r0, fp, ror #1
    1f94:	00027e13 	andeq	r7, r2, r3, lsl lr
    1f98:	08810100 	stmeqia	r1, {r8}
    1f9c:	42010000 	andmi	r0, r1, #0	; 0x0
    1fa0:	00004801 	andeq	r4, r0, r1, lsl #16
    1fa4:	0010c000 	andeqs	ip, r0, r0
    1fa8:	00112ca3 	andeqs	r2, r1, r3, lsr #25
    1fac:	000a14a3 	andeq	r1, sl, r3, lsr #9
    1fb0:	65641500 	strvsb	r1, [r4, #-1280]!
    1fb4:	41010076 	tstmi	r1, r6, ror r0
    1fb8:	0000006f 	andeq	r0, r0, pc, rrx
    1fbc:	00000a33 	andeq	r0, r0, r3, lsr sl
    1fc0:	00025a14 	andeq	r5, r2, r4, lsl sl
    1fc4:	0000fd00 	andeq	pc, r0, r0, lsl #26
    1fc8:	0010c800 	andeqs	ip, r0, r0, lsl #16
    1fcc:	0010d4a3 	andeqs	sp, r0, r3, lsr #9
    1fd0:	114301a3 	smlaltbne	r0, r3, r3, r1
    1fd4:	a30010c8 	movwge	r1, #200	; 0xc8
    1fd8:	a30010d4 	movwge	r1, #212	; 0xd4
    1fdc:	00010b12 	andeq	r0, r1, r2, lsl fp
    1fe0:	000a5100 	andeq	r5, sl, r0, lsl #2
    1fe4:	10000000 	andne	r0, r0, r0
    1fe8:	00000161 	andeq	r0, r0, r1, ror #2
    1fec:	a300110c 	movwge	r1, #268	; 0x10c
    1ff0:	a3001118 	movwge	r1, #280	; 0x118
    1ff4:	0c114d01 	ldceq	13, cr4, [r1], {1}
    1ff8:	18a30011 	stmneia	r3!, {r0, r4}
    1ffc:	12a30011 	adcne	r0, r3, #17	; 0x11
    2000:	0000016f 	andeq	r0, r0, pc, ror #2
    2004:	00000a64 	andeq	r0, r0, r4, ror #20
    2008:	16000000 	strne	r0, [r0], -r0
    200c:	0000011e 	andeq	r0, r0, lr, lsl r1
    2010:	00480505 	subeq	r0, r8, r5, lsl #10
    2014:	01010000 	tsteq	r1, r0
    2018:	00020800 	andeq	r0, r2, r0, lsl #16
    201c:	a5000200 	strge	r0, [r0, #-512]
    2020:	0400000e 	streq	r0, [r0], #-14
    2024:	00121b01 	andeqs	r1, r2, r1, lsl #22
    2028:	0011ac00 	andeqs	sl, r1, r0, lsl #24
    202c:	00112ca3 	andeqs	r2, r1, r3, lsr #25
    2030:	00009ea3 	andeq	r9, r0, r3, lsr #29
    2034:	090f0100 	stmeqdb	pc, {r8}
    2038:	7d020000 	stcvc	0, cr0, [r2]
    203c:	04000000 	streq	r0, [r0]
    2040:	00af0207 	adceq	r0, pc, r7, lsl #4
    2044:	05040000 	streq	r0, [r4]
    2048:	00004002 	andeq	r4, r0, r2
    204c:	02080100 	andeq	r0, r8, #0	; 0x0
    2050:	00000067 	andeq	r0, r0, r7, rrx
    2054:	69030502 	stmvsdb	r3, {r1, r8, sl}
    2058:	0400746e 	streq	r7, [r0], #-1134
    205c:	00aa0205 	adceq	r0, sl, r5, lsl #4
    2060:	05080000 	streq	r0, [r8]
    2064:	00003702 	andeq	r3, r0, r2, lsl #14
    2068:	02080100 	andeq	r0, r8, #0	; 0x0
    206c:	0000004d 	andeq	r0, r0, sp, asr #32
    2070:	f1040702 	undefined instruction 0xf1040702
    2074:	03000000 	movweq	r0, #0	; 0x0
    2078:	0000642c 	andeq	r6, r0, ip, lsr #8
    207c:	00820200 	addeq	r0, r2, r0, lsl #4
    2080:	07040000 	streq	r0, [r4, -r0]
    2084:	00007802 	andeq	r7, r0, r2, lsl #16
    2088:	02070800 	andeq	r0, r7, #0	; 0x0
    208c:	00000082 	andeq	r0, r0, r2, lsl #1
    2090:	93050704 	movwls	r0, #22276	; 0x5704
    2094:	01000000 	tsteq	r0, r0
    2098:	0000001c 	andeq	r0, r0, ip, lsl r0
    209c:	03014102 	movweq	r4, #4354	; 0x1102
    20a0:	00040e06 	andeq	r0, r4, r6, lsl #28
    20a4:	59420200 	stmpldb	r2, {r9}^
    20a8:	00000000 	andeq	r0, r0, r0
    20ac:	0000ad05 	andeq	sl, r0, r5, lsl #26
    20b0:	04b40100 	ldreqt	r0, [r4], #256
    20b4:	39020000 	stmccdb	r2, {}
    20b8:	0e060301 	cdpeq	3, 0, cr0, cr6, cr1, {0}
    20bc:	02000004 	andeq	r0, r0, #4	; 0x4
    20c0:	0000593a 	andeq	r5, r0, sl, lsr r9
    20c4:	22070000 	andcs	r0, r7, #0	; 0x0
    20c8:	01000001 	tsteq	r0, r1
    20cc:	000008e1 	andeq	r0, r0, r1, ror #17
    20d0:	21011a01 	tstcs	r1, r1, lsl #20
    20d4:	2c000000 	stccs	0, cr0, [r0], {0}
    20d8:	54a30011 	strplt	r0, [r3], #17
    20dc:	01a30011 	moveq	r0, r1, lsl r0
    20e0:	05df085d 	ldreqb	r0, [pc, #2141]	; 2945 <_start-0xa2ffd6bb>
    20e4:	1c010000 	stcne	0, cr0, [r1], {0}
    20e8:	00000021 	andeq	r0, r0, r1, lsr #32
    20ec:	00000a77 	andeq	r0, r0, r7, ror sl
    20f0:	0000fe09 	andeq	pc, r0, r9, lsl #28
    20f4:	00007900 	andeq	r7, r0, r0, lsl #18
    20f8:	00112c00 	andeqs	r2, r1, r0, lsl #24
    20fc:	001138a3 	andeqs	r3, r1, r3, lsr #17
    2100:	0a1b01a3 	beq	6c2794 <_start-0xa293d86c>
    2104:	a300112c 	movwge	r1, #300	; 0x12c
    2108:	a3001138 	movwge	r1, #312	; 0x138
    210c:	0000870b 	andeq	r8, r0, fp, lsl #14
    2110:	000a8a00 	andeq	r8, sl, r0, lsl #20
    2114:	0c000000 	stceq	0, cr0, [r0], {0}
    2118:	00000093 	muleq	r0, r3, r0
    211c:	a3001140 	movwge	r1, #320	; 0x140
    2120:	a300114c 	movwge	r1, #332	; 0x14c
    2124:	400a1d01 	andmi	r1, sl, r1, lsl #26
    2128:	4ca30011 	stcmi	0, cr0, [r3], #68
    212c:	0ba30011 	bleq	fe8c2178 <__bss_end__+0x5b87d9c4>
    2130:	000000a1 	andeq	r0, r0, r1, lsr #1
    2134:	00000a9d 	muleq	r0, sp, sl
    2138:	0d000000 	stceq	0, cr0, [r0]
    213c:	000001f9 	streqd	r0, [r0], -r9
    2140:	0008f701 	andeq	pc, r8, r1, lsl #14
    2144:	012d0100 	teqeq	sp, r0, lsl #2
    2148:	a3001154 	movwge	r1, #340	; 0x154
    214c:	a30011ac 	movwge	r1, #428	; 0x1ac
    2150:	e30e5d01 	movw	r5, #60673	; 0xed01
    2154:	01000004 	tsteq	r0, r4
    2158:	0000212c 	andeq	r2, r0, ip, lsr #2
    215c:	0f500100 	svceq	0x00500100
    2160:	000008ee 	andeq	r0, r0, lr, ror #17
    2164:	00212e01 	eoreq	r2, r1, r1, lsl #28
    2168:	52010000 	andpl	r0, r1, #0	; 0x0
    216c:	0009050f 	andeq	r0, r9, pc, lsl #10
    2170:	212e0100 	teqcs	lr, r0, lsl #2
    2174:	01000000 	tsteq	r0, r0
    2178:	01870951 	orreq	r0, r7, r1, asr r9
    217c:	00790000 	rsbeqs	r0, r9, r0
    2180:	11540000 	cmpne	r4, r0
    2184:	1160a300 	cmnne	r0, r0, lsl #6
    2188:	3001a300 	andcc	sl, r1, r0, lsl #6
    218c:	0011540a 	andeqs	r5, r1, sl, lsl #8
    2190:	001160a3 	andeqs	r6, r1, r3, lsr #1
    2194:	00870ba3 	addeq	r0, r7, r3, lsr #23
    2198:	0ab00000 	beq	fec021a0 <__bss_end__+0x5bbbd9ec>
    219c:	00000000 	andeq	r0, r0, r0
    21a0:	0001ae09 	andeq	sl, r1, r9, lsl #28
    21a4:	00009300 	andeq	r9, r0, r0, lsl #6
    21a8:	00116800 	andeqs	r6, r1, r0, lsl #16
    21ac:	001174a3 	andeqs	r7, r1, r3, lsr #9
    21b0:	0a3201a3 	beq	c82844 <_start-0xa237d7bc>
    21b4:	a3001168 	movwge	r1, #360	; 0x168
    21b8:	a3001174 	movwge	r1, #372	; 0x174
    21bc:	0000a10b 	andeq	sl, r0, fp, lsl #2
    21c0:	000ace00 	andeq	ip, sl, r0, lsl #28
    21c4:	09000000 	stmeqdb	r0, {}
    21c8:	000001d5 	ldreqd	r0, [r0], -r5
    21cc:	00000079 	andeq	r0, r0, r9, ror r0
    21d0:	a300117c 	movwge	r1, #380	; 0x17c
    21d4:	a3001188 	movwge	r1, #392	; 0x188
    21d8:	7c0a3901 	stcvc	9, cr3, [sl], {1}
    21dc:	88a30011 	stmhiia	r3!, {r0, r4}
    21e0:	0ba30011 	bleq	fe8c222c <__bss_end__+0x5b87da78>
    21e4:	00000087 	andeq	r0, r0, r7, lsl #1
    21e8:	00000af7 	streqd	r0, [r0], -r7
    21ec:	930c0000 	movwls	r0, #49152	; 0xc000
    21f0:	90000000 	andls	r0, r0, r0
    21f4:	9ca30011 	stcls	0, cr0, [r3], #68
    21f8:	01a30011 	moveq	r0, r1, lsl r0
    21fc:	11900a3b 	orrnes	r0, r0, fp, lsr sl
    2200:	119ca300 	orrnes	sl, ip, r0, lsl #6
    2204:	a10ba300 	tstge	fp, r0, lsl #6
    2208:	15000000 	strne	r0, [r0]
    220c:	0000000b 	andeq	r0, r0, fp
    2210:	d9100000 	ldmledb	r0, {}
    2214:	04000005 	streq	r0, [r0], #-5
    2218:	00020629 	andeq	r0, r2, r9, lsr #12
    221c:	11010100 	tstne	r1, r0, lsl #2
    2220:	00000021 	andeq	r0, r0, r1, lsr #32
    2224:	00035c00 	andeq	r5, r3, r0, lsl #24
    2228:	a1000200 	tstge	r0, r0, lsl #4
    222c:	0400000f 	streq	r0, [r0], #-15
    2230:	00136701 	andeqs	r6, r3, r1, lsl #14
    2234:	00139000 	andeqs	r9, r3, r0
    2238:	0011aca3 	andeqs	sl, r1, r3, lsr #25
    223c:	00009ea3 	andeq	r9, r0, r3, lsr #29
    2240:	094e0100 	stmeqdb	lr, {r8}^
    2244:	e6020000 	str	r0, [r2], -r0
    2248:	04000007 	streq	r0, [r0], #-7
    224c:	00002c20 	andeq	r2, r0, r0, lsr #24
    2250:	007d0300 	rsbeqs	r0, sp, r0, lsl #6
    2254:	07040000 	streq	r0, [r4, -r0]
    2258:	0000af03 	andeq	sl, r0, r3, lsl #30
    225c:	03050400 	movweq	r0, #21504	; 0x5400
    2260:	00000040 	andeq	r0, r0, r0, asr #32
    2264:	67030801 	strvs	r0, [r3, -r1, lsl #16]
    2268:	02000000 	andeq	r0, r0, #0	; 0x0
    226c:	6e690405 	cdpvs	4, 6, cr0, cr9, cr5, {0}
    2270:	05040074 	streq	r0, [r4, #-116]
    2274:	0000aa03 	andeq	sl, r0, r3, lsl #20
    2278:	02050800 	andeq	r0, r5, #0	; 0x0
    227c:	00000451 	andeq	r0, r0, r1, asr r4
    2280:	00612a04 	rsbeq	r2, r1, r4, lsl #20
    2284:	37030000 	strcc	r0, [r3, -r0]
    2288:	01000000 	tsteq	r0, r0
    228c:	004d0308 	subeq	r0, sp, r8, lsl #6
    2290:	07020000 	streq	r0, [r2, -r0]
    2294:	0000f102 	andeq	pc, r0, r2, lsl #2
    2298:	7a2c0400 	bvc	b032a0 <_start-0xa24fcd60>
    229c:	03000000 	movweq	r0, #0	; 0x0
    22a0:	00000082 	andeq	r0, r0, r2, lsl #1
    22a4:	78030704 	stmvcda	r3, {r2, r8, r9, sl}
    22a8:	08000000 	stmeqda	r0, {}
    22ac:	00940507 	addeqs	r0, r4, r7, lsl #10
    22b0:	06010000 	streq	r0, [r1], -r0
    22b4:	00000094 	muleq	r0, r4, r0
    22b8:	02040700 	andeq	r0, r4, #0	; 0x0
    22bc:	00000876 	andeq	r0, r0, r6, ror r8
    22c0:	00a11303 	adceq	r1, r1, r3, lsl #6
    22c4:	04080000 	streq	r0, [r8]
    22c8:	00000088 	andeq	r0, r0, r8, lsl #1
    22cc:	0000f609 	andeq	pc, r0, r9, lsl #12
    22d0:	0009b900 	andeq	fp, r9, r0, lsl #18
    22d4:	16031400 	strne	r1, [r3], -r0, lsl #8
    22d8:	00085f0a 	andeq	r5, r8, sl, lsl #30
    22dc:	96170300 	ldrls	r0, [r7], -r0, lsl #6
    22e0:	02000000 	andeq	r0, r0, #0	; 0x0
    22e4:	6a0a0023 	bvs	282378 <_start-0xa2d7dc88>
    22e8:	03000001 	movweq	r0, #1	; 0x1
    22ec:	00009418 	andeq	r9, r0, r8, lsl r4
    22f0:	04230200 	streqt	r0, [r3], #-512
    22f4:	00088c0a 	andeq	r8, r8, sl, lsl #24
    22f8:	94190300 	ldrls	r0, [r9], #-768
    22fc:	02000000 	andeq	r0, r0, #0	; 0x0
    2300:	430b0823 	movwmi	r0, #47139	; 0xb823
    2304:	2c1a0300 	ldccs	3, cr0, [sl], {0}
    2308:	02000000 	andeq	r0, r0, #0	; 0x0
    230c:	540b0c23 	strpl	r0, [fp], #-3107
    2310:	2c1b0300 	ldccs	3, cr0, [fp], {0}
    2314:	02000000 	andeq	r0, r0, #0	; 0x0
    2318:	02001023 	andeq	r1, r0, #35	; 0x23
    231c:	00000845 	andeq	r0, r0, r5, asr #16
    2320:	00a71d03 	adceq	r1, r7, r3, lsl #26
    2324:	92090000 	andls	r0, r9, #0	; 0x0
    2328:	16000001 	strne	r0, [r0], -r1
    232c:	28000005 	stmcsda	r0, {r0, r2}
    2330:	720b2603 	andvc	r2, fp, #3145728	; 0x300000
    2334:	27030034 	smladxcs	r3, r4, r0, r0
    2338:	0000006f 	andeq	r0, r0, pc, rrx
    233c:	0b002302 	bleq	af4c <_start-0xa2ff50b4>
    2340:	03003572 	movweq	r3, #1394	; 0x572
    2344:	00006f28 	andeq	r6, r0, r8, lsr #30
    2348:	04230200 	streqt	r0, [r3], #-512
    234c:	0036720b 	eoreqs	r7, r6, fp, lsl #4
    2350:	006f2903 	rsbeq	r2, pc, r3, lsl #18
    2354:	23020000 	movwcs	r0, #8192	; 0x2000
    2358:	37720b08 	ldrccb	r0, [r2, -r8, lsl #22]!
    235c:	6f2a0300 	svcvs	0x002a0300
    2360:	02000000 	andeq	r0, r0, #0	; 0x0
    2364:	720b0c23 	andvc	r0, fp, #8960	; 0x2300
    2368:	2b030038 	blcs	c2450 <_start-0xa2f3dbb0>
    236c:	0000006f 	andeq	r0, r0, pc, rrx
    2370:	0b102302 	bleq	40af80 <_start-0xa2bf5080>
    2374:	03003972 	movweq	r3, #2418	; 0x972
    2378:	00006f2c 	andeq	r6, r0, ip, lsr #30
    237c:	14230200 	strnet	r0, [r3], #-512
    2380:	3031720b 	eorccs	r7, r1, fp, lsl #4
    2384:	6f2d0300 	svcvs	0x002d0300
    2388:	02000000 	andeq	r0, r0, #0	; 0x0
    238c:	720b1823 	andvc	r1, fp, #2293760	; 0x230000
    2390:	03003131 	movweq	r3, #305	; 0x131
    2394:	00006f2e 	andeq	r6, r0, lr, lsr #30
    2398:	1c230200 	sfmne	f0, 4, [r3]
    239c:	0070730b 	rsbeqs	r7, r0, fp, lsl #6
    23a0:	00942f03 	addeqs	r2, r4, r3, lsl #30
    23a4:	23020000 	movwcs	r0, #8192	; 0x2000
    23a8:	726c0b20 	rsbvc	r0, ip, #32768	; 0x8000
    23ac:	94300300 	ldrlst	r0, [r0], #-768
    23b0:	02000000 	andeq	r0, r0, #0	; 0x0
    23b4:	0c002423 	cfstrseq	mvf2, [r0], {35}
    23b8:	00000101 	andeq	r0, r0, r1, lsl #2
    23bc:	0002080d 	andeq	r0, r2, sp, lsl #16
    23c0:	62637400 	rsbvs	r7, r3, #0	; 0x0
    23c4:	03103800 	tsteq	r0, #0	; 0x0
    23c8:	04f50a36 	ldreqbt	r0, [r5], #2614
    23cc:	37030000 	strcc	r0, [r3, -r0]
    23d0:	00000056 	andeq	r0, r0, r6, asr r0
    23d4:	0a002302 	beq	afe4 <_start-0xa2ff501c>
    23d8:	00000a4f 	andeq	r0, r0, pc, asr #20
    23dc:	00563803 	subeqs	r3, r6, r3, lsl #16
    23e0:	23020000 	movwcs	r0, #8192	; 0x2000
    23e4:	051c0a01 	ldreq	r0, [ip, #-2561]
    23e8:	39030000 	stmccdb	r3, {}
    23ec:	00000192 	muleq	r0, r2, r1
    23f0:	0a042302 	beq	10b000 <_start-0xa2ef5000>
    23f4:	00000524 	andeq	r0, r0, r4, lsr #10
    23f8:	00483a03 	subeq	r3, r8, r3, lsl #20
    23fc:	23020000 	movwcs	r0, #8192	; 0x2000
    2400:	05010a2c 	streq	r0, [r1, #-2604]
    2404:	3b030000 	blcc	c240c <_start-0xa2f3dbf4>
    2408:	00000208 	andeq	r0, r0, r8, lsl #4
    240c:	0a302302 	beq	c0b01c <_start-0xa23f4fe4>
    2410:	00000a5c 	andeq	r0, r0, ip, asr sl
    2414:	02133e03 	andeqs	r3, r3, #48	; 0x30
    2418:	23020000 	movwcs	r0, #8192	; 0x2000
    241c:	04c60a38 	streqb	r0, [r6], #2616
    2420:	3f030000 	svccc	0x00030000
    2424:	0000022b 	andeq	r0, r0, fp, lsr #4
    2428:	20b82303 	adccss	r2, r8, r3, lsl #6
    242c:	0e040800 	cdpeq	8, 0, cr0, cr4, cr0, {0}
    2430:	0c000002 	stceq	0, cr0, [r0], {2}
    2434:	00000197 	muleq	r0, r7, r1
    2438:	0002240e 	andeq	r2, r2, lr, lsl #8
    243c:	00006f00 	andeq	r6, r0, r0, lsl #30
    2440:	02240f00 	eoreq	r0, r4, #0	; 0x0
    2444:	03ff0000 	mvneqs	r0, #0	; 0x0
    2448:	00820300 	addeq	r0, r2, r0, lsl #6
    244c:	07040000 	streq	r0, [r4, -r0]
    2450:	00023a0e 	andeq	r3, r2, lr, lsl #20
    2454:	00006f00 	andeq	r6, r0, r0, lsl #30
    2458:	02241000 	eoreq	r1, r4, #0	; 0x0
    245c:	11000000 	tstne	r0, r0
    2460:	0000025f 	andeq	r0, r0, pc, asr r2
    2464:	0009be01 	andeq	fp, r9, r1, lsl #28
    2468:	011e0100 	tsteq	lr, r0, lsl #2
    246c:	a30011ac 	movwge	r1, #428	; 0x1ac
    2470:	a30011b0 	movwge	r1, #432	; 0x1b0
    2474:	b4125d01 	ldrlt	r5, [r2], #-3329
    2478:	01000009 	tsteq	r0, r9
    247c:	00025f1d 	andeq	r5, r2, sp, lsl pc
    2480:	00500100 	subeqs	r0, r0, r0, lsl #2
    2484:	00f60408 	rsceqs	r0, r6, r8, lsl #8
    2488:	7f130000 	svcvc	0x00130000
    248c:	01000002 	tsteq	r0, r2
    2490:	000004b4 	streqh	r0, [r0], -r4
    2494:	03013902 	movweq	r3, #6402	; 0x1902
    2498:	00040e14 	andeq	r0, r4, r4, lsl lr
    249c:	6f3a0200 	svcvs	0x003a0200
    24a0:	00000000 	andeq	r0, r0, r0
    24a4:	0002b915 	andeq	fp, r2, r5, lsl r9
    24a8:	0009af00 	andeq	sl, r9, r0, lsl #30
    24ac:	01270100 	teqeq	r7, r0, lsl #2
    24b0:	a30011b0 	movwge	r1, #432	; 0x1b0
    24b4:	a30011c0 	movwge	r1, #448	; 0x1c0
    24b8:	65165d01 	ldrvs	r5, [r6, #-3329]
    24bc:	b0000002 	andlt	r0, r0, r2
    24c0:	c0a30011 	adcgt	r0, r3, r1, lsl r0
    24c4:	01a30011 	moveq	r0, r1, lsl r0
    24c8:	11b01728 	movnes	r1, r8, lsr #14
    24cc:	11c0a300 	bicne	sl, r0, r0, lsl #6
    24d0:	7318a300 	tstvc	r8, #0	; 0x0
    24d4:	33000002 	movwcc	r0, #2	; 0x2
    24d8:	0000000b 	andeq	r0, r0, fp
    24dc:	25190000 	ldrcs	r0, [r9]
    24e0:	01000003 	tsteq	r0, r3
    24e4:	0000098c 	andeq	r0, r0, ip, lsl #19
    24e8:	c0013a01 	andgt	r3, r1, r1, lsl #20
    24ec:	90a30011 	adcls	r0, r3, r1, lsl r0
    24f0:	46a30013 	ssatmi	r0, #4, r3
    24f4:	1a00000b 	bne	2528 <_start-0xa2ffdad8>
    24f8:	00000995 	muleq	r0, r5, r9
    24fc:	03253901 	teqeq	r5, #16384	; 0x4000
    2500:	0b650000 	bleq	1942508 <_start-0xa16bdaf8>
    2504:	4c1a0000 	ldcmi	0, cr0, [sl], {0}
    2508:	01000008 	tsteq	r0, r8
    250c:	00002139 	andeq	r2, r0, r9, lsr r1
    2510:	000b8300 	andeq	r8, fp, r0, lsl #6
    2514:	00691b00 	rsbeq	r1, r9, r0, lsl #22
    2518:	00214501 	eoreq	r4, r1, r1, lsl #10
    251c:	56010000 	strpl	r0, [r1], -r0
    2520:	000add1c 	andeq	sp, sl, ip, lsl sp
    2524:	08460100 	stmeqda	r6, {r8}^
    2528:	a1000002 	tstge	r0, r2
    252c:	1c00000b 	stcne	0, cr0, [r0], {11}
    2530:	000009c9 	andeq	r0, r0, r9, asr #19
    2534:	025f4701 	subeqs	r4, pc, #262144	; 0x40000
    2538:	0bb40000 	bleq	fed02540 <__bss_end__+0x5bcbdd8c>
    253c:	9b140000 	blls	502544 <_start-0xa2afdabc>
    2540:	01000009 	tsteq	r0, r9
    2544:	00020868 	andeq	r0, r2, r8, ror #16
    2548:	04080000 	streq	r0, [r8]
    254c:	0000025f 	andeq	r0, r0, pc, asr r2
    2550:	00011e1d 	andeq	r1, r1, sp, lsl lr
    2554:	48050500 	stmmida	r5, {r8, sl}
    2558:	01000000 	tsteq	r0, r0
    255c:	03480e01 	movteq	r0, #36353	; 0x8e01
    2560:	01970000 	orreqs	r0, r7, r0
    2564:	241e0000 	ldrcs	r0, [lr]
    2568:	3f000002 	svccc	0x00000002
    256c:	09a41f00 	stmeqib	r4!, {r8, r9, sl, fp, ip}
    2570:	16010000 	strne	r0, [r1], -r0
    2574:	0000035a 	andeq	r0, r0, sl, asr r3
    2578:	b0030501 	andlt	r0, r3, r1, lsl #10
    257c:	0ca30037 	stceq	0, cr0, [r3], #220
    2580:	00000338 	andeq	r0, r0, r8, lsr r3
    2584:	00013300 	andeq	r3, r1, r0, lsl #6
    2588:	3d000200 	sfmcc	f0, 4, [r0]
    258c:	04000011 	streq	r0, [r0], #-17
    2590:	0014c501 	andeqs	ip, r4, r1, lsl #10
    2594:	00139800 	andeqs	r9, r3, r0, lsl #16
    2598:	001390a3 	andeqs	r9, r3, r3, lsr #1
    259c:	00009ea3 	andeq	r9, r0, r3, lsr #29
    25a0:	09d20100 	ldmeqib	r2, {r8}^
    25a4:	e6020000 	str	r0, [r2], -r0
    25a8:	03000007 	movweq	r0, #7	; 0x7
    25ac:	00002c20 	andeq	r2, r0, r0, lsr #24
    25b0:	007d0300 	rsbeqs	r0, sp, r0, lsl #6
    25b4:	07040000 	streq	r0, [r4, -r0]
    25b8:	0000af03 	andeq	sl, r0, r3, lsl #30
    25bc:	03050400 	movweq	r0, #21504	; 0x5400
    25c0:	00000040 	andeq	r0, r0, r0, asr #32
    25c4:	67030801 	strvs	r0, [r3, -r1, lsl #16]
    25c8:	02000000 	andeq	r0, r0, #0	; 0x0
    25cc:	6e690405 	cdpvs	4, 6, cr0, cr9, cr5, {0}
    25d0:	05040074 	streq	r0, [r4, #-116]
    25d4:	0000aa03 	andeq	sl, r0, r3, lsl #20
    25d8:	03050800 	movweq	r0, #22528	; 0x5800
    25dc:	00000037 	andeq	r0, r0, r7, lsr r0
    25e0:	4d030801 	stcmi	8, cr0, [r3, #-4]
    25e4:	02000000 	andeq	r0, r0, #0	; 0x0
    25e8:	00820307 	addeq	r0, r2, r7, lsl #6
    25ec:	07040000 	streq	r0, [r4, -r0]
    25f0:	00007803 	andeq	r7, r0, r3, lsl #16
    25f4:	02070800 	andeq	r0, r7, #0	; 0x0
    25f8:	00000876 	andeq	r0, r0, r6, ror r8
    25fc:	007d1302 	rsbeqs	r1, sp, r2, lsl #6
    2600:	04050000 	streq	r0, [r5]
    2604:	00000083 	andeq	r0, r0, r3, lsl #1
    2608:	00008f06 	andeq	r8, r0, r6, lsl #30
    260c:	8f070100 	svchi	0x00070100
    2610:	00000000 	andeq	r0, r0, r0
    2614:	e0090408 	and	r0, r9, r8, lsl #8
    2618:	b9000000 	stmltdb	r0, {}
    261c:	14000009 	strne	r0, [r0], #-9
    2620:	5f0a1602 	svcpl	0x000a1602
    2624:	02000008 	andeq	r0, r0, #8	; 0x8
    2628:	00007217 	andeq	r7, r0, r7, lsl r2
    262c:	00230200 	eoreq	r0, r3, r0, lsl #4
    2630:	00016a0a 	andeq	r6, r1, sl, lsl #20
    2634:	8f180200 	svchi	0x00180200
    2638:	02000000 	andeq	r0, r0, #0	; 0x0
    263c:	8c0a0423 	cfstrshi	mvf0, [sl], {35}
    2640:	02000008 	andeq	r0, r0, #8	; 0x8
    2644:	00008f19 	andeq	r8, r0, r9, lsl pc
    2648:	08230200 	stmeqda	r3!, {r9}
    264c:	0200430b 	andeq	r4, r0, #738197504	; 0x2c000000
    2650:	00002c1a 	andeq	r2, r0, sl, lsl ip
    2654:	0c230200 	sfmeq	f0, 4, [r3]
    2658:	0200540b 	andeq	r5, r0, #184549376	; 0xb000000
    265c:	00002c1b 	andeq	r2, r0, fp, lsl ip
    2660:	10230200 	eorne	r0, r3, r0, lsl #4
    2664:	08450200 	stmeqda	r5, {r9}^
    2668:	1d020000 	stcne	0, cr0, [r2]
    266c:	00000091 	muleq	r0, r1, r0
    2670:	00008203 	andeq	r8, r0, r3, lsl #4
    2674:	0c070400 	cfstrseq	mvf0, [r7], {0}
    2678:	0000012a 	andeq	r0, r0, sl, lsr #2
    267c:	000a1201 	andeq	r1, sl, r1, lsl #4
    2680:	011f0100 	tsteq	pc, r0, lsl #2
    2684:	00000048 	andeq	r0, r0, r8, asr #32
    2688:	a3001390 	movwge	r1, #912	; 0x390
    268c:	a3001398 	movwge	r1, #920	; 0x398
    2690:	950d5d01 	strls	r5, [sp, #-3329]
    2694:	01000009 	tsteq	r0, r9
    2698:	00012a1e 	andeq	r2, r1, lr, lsl sl
    269c:	000bc700 	andeq	ip, fp, r0, lsl #14
    26a0:	084c0e00 	stmeqda	ip, {r9, sl, fp}^
    26a4:	1e010000 	cdpne	0, 0, cr0, cr1, cr0, {0}
    26a8:	00000021 	andeq	r0, r0, r1, lsr #32
    26ac:	05005101 	streq	r5, [r0, #-257]
    26b0:	00013004 	andeq	r3, r1, r4
    26b4:	e0040500 	and	r0, r4, r0, lsl #10
    26b8:	00000000 	andeq	r0, r0, r0
    26bc:	00000306 	andeq	r0, r0, r6, lsl #6
    26c0:	11f60002 	mvnnes	r0, r2
    26c4:	01040000 	tsteq	r4, r0
    26c8:	00001582 	andeq	r1, r0, r2, lsl #11
    26cc:	a30016c0 	movwge	r1, #1728	; 0x6c0
    26d0:	a3001398 	movwge	r1, #920	; 0x398
    26d4:	0000009e 	muleq	r0, lr, r0
    26d8:	000a8001 	andeq	r8, sl, r1
    26dc:	007d0200 	rsbeqs	r0, sp, r0, lsl #4
    26e0:	07040000 	streq	r0, [r4, -r0]
    26e4:	0000af02 	andeq	sl, r0, r2, lsl #30
    26e8:	02050400 	andeq	r0, r5, #0	; 0x0
    26ec:	00000040 	andeq	r0, r0, r0, asr #32
    26f0:	67020801 	strvs	r0, [r2, -r1, lsl #16]
    26f4:	02000000 	andeq	r0, r0, #0	; 0x0
    26f8:	6e690305 	cdpvs	3, 6, cr0, cr9, cr5, {0}
    26fc:	05040074 	streq	r0, [r4, #-116]
    2700:	0000aa02 	andeq	sl, r0, r2, lsl #20
    2704:	04050800 	streq	r0, [r5], #-2048
    2708:	00000451 	andeq	r0, r0, r1, asr r4
    270c:	00562a02 	subeqs	r2, r6, r2, lsl #20
    2710:	37020000 	strcc	r0, [r2, -r0]
    2714:	01000000 	tsteq	r0, r0
    2718:	004d0208 	subeq	r0, sp, r8, lsl #4
    271c:	07020000 	streq	r0, [r2, -r0]
    2720:	0000f104 	andeq	pc, r0, r4, lsl #2
    2724:	6f2c0200 	svcvs	0x002c0200
    2728:	02000000 	andeq	r0, r0, #0	; 0x0
    272c:	00000082 	andeq	r0, r0, r2, lsl #1
    2730:	78020704 	stmvcda	r2, {r2, r8, r9, sl}
    2734:	08000000 	stmeqda	r0, {}
    2738:	06040507 	streq	r0, [r4], -r7, lsl #10
    273c:	00000110 	andeq	r0, r0, r0, lsl r1
    2740:	00000516 	andeq	r0, r0, r6, lsl r5
    2744:	07260328 	streq	r0, [r6, -r8, lsr #6]!
    2748:	03003472 	movweq	r3, #1138	; 0x472
    274c:	00006427 	andeq	r6, r0, r7, lsr #8
    2750:	00230200 	eoreq	r0, r3, r0, lsl #4
    2754:	00357207 	eoreqs	r7, r5, r7, lsl #4
    2758:	00642803 	rsbeq	r2, r4, r3, lsl #16
    275c:	23020000 	movwcs	r0, #8192	; 0x2000
    2760:	36720704 	ldrccbt	r0, [r2], -r4, lsl #14
    2764:	64290300 	strvst	r0, [r9], #-768
    2768:	02000000 	andeq	r0, r0, #0	; 0x0
    276c:	72070823 	andvc	r0, r7, #2293760	; 0x230000
    2770:	2a030037 	bcs	c2854 <_start-0xa2f3d7ac>
    2774:	00000064 	andeq	r0, r0, r4, rrx
    2778:	070c2302 	streq	r2, [ip, -r2, lsl #6]
    277c:	03003872 	movweq	r3, #2162	; 0x872
    2780:	0000642b 	andeq	r6, r0, fp, lsr #8
    2784:	10230200 	eorne	r0, r3, r0, lsl #4
    2788:	00397207 	eoreqs	r7, r9, r7, lsl #4
    278c:	00642c03 	rsbeq	r2, r4, r3, lsl #24
    2790:	23020000 	movwcs	r0, #8192	; 0x2000
    2794:	31720714 	cmncc	r2, r4, lsl r7
    2798:	2d030030 	stccs	0, cr0, [r3, #-192]
    279c:	00000064 	andeq	r0, r0, r4, rrx
    27a0:	07182302 	ldreq	r2, [r8, -r2, lsl #6]
    27a4:	00313172 	eoreqs	r3, r1, r2, ror r1
    27a8:	00642e03 	rsbeq	r2, r4, r3, lsl #28
    27ac:	23020000 	movwcs	r0, #8192	; 0x2000
    27b0:	7073071c 	rsbvcs	r0, r3, ip, lsl r7
    27b4:	7d2f0300 	stcvc	3, cr0, [pc]
    27b8:	02000000 	andeq	r0, r0, #0	; 0x0
    27bc:	6c072023 	stcvs	0, cr2, [r7], {35}
    27c0:	30030072 	andcc	r0, r3, r2, ror r0
    27c4:	0000007d 	andeq	r0, r0, sp, ror r0
    27c8:	00242302 	eoreq	r2, r4, r2, lsl #6
    27cc:	00007f08 	andeq	r7, r0, r8, lsl #30
    27d0:	01860900 	orreq	r0, r6, r0, lsl #18
    27d4:	63740000 	cmnvs	r4, #0	; 0x0
    27d8:	10380062 	eornes	r0, r8, r2, rrx
    27dc:	f50a3603 	undefined instruction 0xf50a3603
    27e0:	03000004 	movweq	r0, #4	; 0x4
    27e4:	00004b37 	andeq	r4, r0, r7, lsr fp
    27e8:	00230200 	eoreq	r0, r3, r0, lsl #4
    27ec:	000a4f0a 	andeq	r4, sl, sl, lsl #30
    27f0:	4b380300 	blmi	e033f8 <_start-0xa21fcc08>
    27f4:	02000000 	andeq	r0, r0, #0	; 0x0
    27f8:	1c0a0123 	stfnes	f0, [sl], {35}
    27fc:	03000005 	movweq	r0, #5	; 0x5
    2800:	00011039 	andeq	r1, r1, r9, lsr r0
    2804:	04230200 	streqt	r0, [r3], #-512
    2808:	0005240a 	andeq	r2, r5, sl, lsl #8
    280c:	3d3a0300 	ldccc	3, cr0, [sl]
    2810:	02000000 	andeq	r0, r0, #0	; 0x0
    2814:	010a2c23 	tsteq	sl, r3, lsr #24
    2818:	03000005 	movweq	r0, #5	; 0x5
    281c:	0001863b 	andeq	r8, r1, fp, lsr r6
    2820:	30230200 	eorcc	r0, r3, r0, lsl #4
    2824:	000a5c0a 	andeq	r5, sl, sl, lsl #24
    2828:	913e0300 	teqls	lr, r0, lsl #6
    282c:	02000001 	andeq	r0, r0, #1	; 0x1
    2830:	c60a3823 	strgt	r3, [sl], -r3, lsr #16
    2834:	03000004 	movweq	r0, #4	; 0x4
    2838:	0001a93f 	andeq	sl, r1, pc, lsr r9
    283c:	b8230300 	stmltda	r3!, {r8, r9}
    2840:	040b0020 	streq	r0, [fp], #-32
    2844:	0000018c 	andeq	r0, r0, ip, lsl #3
    2848:	00011508 	andeq	r1, r1, r8, lsl #10
    284c:	01a20c00 	moveq	r0, r0, lsl #24
    2850:	00640000 	rsbeq	r0, r4, r0
    2854:	a20d0000 	andge	r0, sp, #0	; 0x0
    2858:	ff000001 	undefined instruction 0xff000001
    285c:	82020003 	andhi	r0, r2, #3	; 0x3
    2860:	04000000 	streq	r0, [r0]
    2864:	01b80c07 	moveqs	r0, r7, lsl #24
    2868:	00640000 	rsbeq	r0, r4, r0
    286c:	a20e0000 	andge	r0, lr, #0	; 0x0
    2870:	00000001 	andeq	r0, r0, r1
    2874:	0a4b010f 	beq	12c2cb8 <_start-0xa1d3d348>
    2878:	a5010000 	strge	r0, [r1]
    287c:	00004b01 	andeq	r4, r0, r1, lsl #22
    2880:	00139800 	andeqs	r9, r3, r0, lsl #16
    2884:	0013aca3 	andeqs	sl, r3, r3, lsr #25
    2888:	0f5d01a3 	svceq	0x005d01a3
    288c:	000ad901 	andeq	sp, sl, r1, lsl #18
    2890:	01ad0100 	moveq	r0, r0, lsl #2
    2894:	00000186 	andeq	r0, r0, r6, lsl #3
    2898:	a30013ac 	movwge	r1, #940	; 0x3ac
    289c:	a30013bc 	movwge	r1, #956	; 0x3bc
    28a0:	010f5d01 	tsteq	pc, r1, lsl #26
    28a4:	00000a58 	andeq	r0, r0, r8, asr sl
    28a8:	6401b301 	strvs	fp, [r1], #-769
    28ac:	bc000000 	stclt	0, cr0, [r0], {0}
    28b0:	d4a30013 	strlet	r0, [r3], #19
    28b4:	01a30013 	moveq	r0, r3, lsl r0
    28b8:	0224105d 	eoreq	r1, r4, #93	; 0x5d
    28bc:	cb010000 	blgt	428c4 <_start-0xa2fbd73c>
    28c0:	0100000a 	tsteq	r0, sl
    28c4:	13d40122 	bicnes	r0, r4, #-2147483640	; 0x80000008
    28c8:	1400a300 	strne	sl, [r0], #-768
    28cc:	5d01a300 	stcpl	3, cr10, [r1]
    28d0:	0009af11 	andeq	sl, r9, r1, lsl pc
    28d4:	86210100 	strhit	r0, [r1], -r0, lsl #2
    28d8:	da000001 	ble	28e4 <_start-0xa2ffd71c>
    28dc:	0000000b 	andeq	r0, r0, fp
    28e0:	00025c12 	andeq	r5, r2, r2, lsl ip
    28e4:	0a220100 	beq	882cec <_start-0xa277d314>
    28e8:	28010000 	stmcsda	r1, {}
    28ec:	00140001 	andeqs	r0, r4, r1
    28f0:	0014b8a3 	andeqs	fp, r4, r3, lsr #17
    28f4:	000beda3 	andeq	lr, fp, r3, lsr #27
    28f8:	0ac31100 	beq	ff0c6d00 <__bss_end__+0x5c08254c>
    28fc:	27010000 	strcs	r0, [r1, -r0]
    2900:	0000025c 	andeq	r0, r0, ip, asr r2
    2904:	00000c0c 	andeq	r0, r0, ip, lsl #24
    2908:	0004fc11 	andeq	pc, r4, r1, lsl ip
    290c:	6f270100 	svcvs	0x00270100
    2910:	2a000000 	bcs	2918 <_start-0xa2ffd6e8>
    2914:	0000000c 	andeq	r0, r0, ip
    2918:	0110040b 	tsteq	r0, fp, lsl #8
    291c:	94120000 	ldrls	r0, [r2]
    2920:	01000002 	tsteq	r0, r2
    2924:	00000a71 	andeq	r0, r0, r1, ror sl
    2928:	b8018501 	stmltda	r1, {r0, r8, sl, pc}
    292c:	64a30014 	strvst	r0, [r3], #20
    2930:	3da30015 	stccc	0, cr0, [r3, #84]!
    2934:	1300000c 	movwne	r0, #12	; 0xc
    2938:	00000a2b 	andeq	r0, r0, fp, lsr #20
    293c:	01868d01 	orreq	r8, r6, r1, lsl #26
    2940:	54010000 	strpl	r0, [r1]
    2944:	000a4414 	andeq	r4, sl, r4, lsl r4
    2948:	4b900100 	blmi	fe402d50 <__bss_end__+0x5b3be59c>
    294c:	00000000 	andeq	r0, r0, r0
    2950:	0002b912 	andeq	fp, r2, r2, lsl r9
    2954:	0a340100 	beq	d02d5c <_start-0xa22fd2a4>
    2958:	69010000 	stmvsdb	r1, {}
    295c:	00156401 	andeqs	r6, r5, r1, lsl #8
    2960:	0015e8a3 	andeqs	lr, r5, r3, lsr #17
    2964:	000c5ca3 	andeq	r5, ip, r3, lsr #25
    2968:	0a441400 	beq	1107970 <_start-0xa1ef8690>
    296c:	70010000 	andvc	r0, r1, r0
    2970:	0000004b 	andeq	r0, r0, fp, asr #32
    2974:	02eb1200 	rsceq	r1, fp, #0	; 0x0
    2978:	63010000 	movwvs	r0, #4096	; 0x1000
    297c:	0100000a 	tsteq	r0, sl
    2980:	15e80140 	strneb	r0, [r8, #320]!
    2984:	16c0a300 	strneb	sl, [r0], r0, lsl #6
    2988:	0c7ba300 	ldceql	3, cr10, [fp]
    298c:	2b130000 	blcs	4c2994 <_start-0xa2b3d66c>
    2990:	0100000a 	tsteq	r0, sl
    2994:	00018647 	andeq	r8, r1, r7, asr #12
    2998:	14540100 	ldrneb	r0, [r4], #-256
    299c:	00000a44 	andeq	r0, r0, r4, asr #20
    29a0:	004b4d01 	subeq	r4, fp, r1, lsl #26
    29a4:	13000000 	movwne	r0, #0	; 0x0
    29a8:	00000add 	ldreqd	r0, [r0], -sp
    29ac:	01861901 	orreq	r1, r6, r1, lsl #18
    29b0:	03050000 	movweq	r0, #20480	; 0x5000
    29b4:	a3002e98 	movwge	r2, #3736	; 0xe98
    29b8:	00011e15 	andeq	r1, r1, r5, lsl lr
    29bc:	3d050400 	cfstrscc	mvf0, [r5]
    29c0:	01000000 	tsteq	r0, r0
    29c4:	00990001 	addeqs	r0, r9, r1
    29c8:	00020000 	andeq	r0, r2, r0
    29cc:	00001318 	andeq	r1, r0, r8, lsl r3
    29d0:	16b20104 	ldrnet	r0, [r2], r4, lsl #2
    29d4:	16c00000 	strneb	r0, [r0], r0
    29d8:	1738a300 	ldrne	sl, [r8, -r0, lsl #6]!
    29dc:	682fa300 	stmvsda	pc!, {r8, r9, sp, pc}
    29e0:	2f656d6f 	svccs	0x00656d6f
    29e4:	6162616a 	cmnvs	r2, sl, ror #2
    29e8:	6f442f74 	svcvs	0x00442f74
    29ec:	656d7563 	strvsb	r7, [sp, #-1379]!
    29f0:	2f73746e 	svccs	0x0073746e
    29f4:	65626d65 	strvsb	r6, [r2, #-3429]!
    29f8:	64656464 	strvsbt	r6, [r5], #-1124
    29fc:	62616c5f 	rsbvs	r6, r1, #24320	; 0x5f00
    2a00:	616c2f73 	smcvs	49907
    2a04:	6b2f3462 	blvs	bcfb94 <_start-0xa243046c>
    2a08:	656e7265 	strvsb	r7, [lr, #-613]!
    2a0c:	63732f6c 	cmnvs	r3, #432	; 0x1b0
    2a10:	2f646568 	svccs	0x00646568
    2a14:	5f787463 	svcpl	0x00787463
    2a18:	74697773 	strvcbt	r7, [r9], #-1907
    2a1c:	615f6863 	cmpvs	pc, r3, ror #16
    2a20:	532e6d73 	teqpl	lr, #7360	; 0x1cc0
    2a24:	6f682f00 	svcvs	0x00682f00
    2a28:	6a2f656d 	bvs	bdbfe4 <_start-0xa242401c>
    2a2c:	74616261 	strvcbt	r6, [r1], #-609
    2a30:	636f442f 	cmnvs	pc, #788529152	; 0x2f000000
    2a34:	6e656d75 	mcrvs	13, 3, r6, cr5, cr5, {3}
    2a38:	652f7374 	strvs	r7, [pc, #-884]!	; 26cc <_start-0xa2ffd934>
    2a3c:	6465626d 	strvsbt	r6, [r5], #-621
    2a40:	5f646564 	svcpl	0x00646564
    2a44:	7362616c 	cmnvc	r2, #27	; 0x1b
    2a48:	62616c2f 	rsbvs	r6, r1, #12032	; 0x2f00
    2a4c:	4e470034 	mcrmi	0, 2, r0, cr7, cr4, {1}
    2a50:	53412055 	movtpl	r2, #4181	; 0x1055
    2a54:	312e3220 	teqcc	lr, r0, lsr #4
    2a58:	30352e37 	eorccs	r2, r5, r7, lsr lr
    2a5c:	362e302e 	strcct	r3, [lr], -lr, lsr #32
    2a60:	2f800100 	svccs	0x00800100
    2a64:	02000003 	andeq	r0, r0, #3	; 0x3
    2a68:	00132c00 	andeqs	r2, r3, r0, lsl #24
    2a6c:	42010400 	andmi	r0, r1, #0	; 0x0
    2a70:	b4000017 	strlt	r0, [r0], #-23
    2a74:	38a30018 	stmccia	r3!, {r3, r4}
    2a78:	9ea30017 	mcrls	0, 5, r0, cr3, cr7, {0}
    2a7c:	01000000 	tsteq	r0, r0
    2a80:	00000b46 	andeq	r0, r0, r6, asr #22
    2a84:	00007d02 	andeq	r7, r0, r2, lsl #26
    2a88:	02070400 	andeq	r0, r7, #0	; 0x0
    2a8c:	000000af 	andeq	r0, r0, pc, lsr #1
    2a90:	40020504 	andmi	r0, r2, r4, lsl #10
    2a94:	01000000 	tsteq	r0, r0
    2a98:	00670208 	rsbeq	r0, r7, r8, lsl #4
    2a9c:	05020000 	streq	r0, [r2]
    2aa0:	746e6903 	strvcbt	r6, [lr], #-2307
    2aa4:	02050400 	andeq	r0, r5, #0	; 0x0
    2aa8:	000000aa 	andeq	r0, r0, sl, lsr #1
    2aac:	51040508 	tstpl	r4, r8, lsl #10
    2ab0:	02000004 	andeq	r0, r0, #4	; 0x4
    2ab4:	0000562a 	andeq	r5, r0, sl, lsr #12
    2ab8:	00370200 	eoreqs	r0, r7, r0, lsl #4
    2abc:	08010000 	stmeqda	r1, {}
    2ac0:	00004d02 	andeq	r4, r0, r2, lsl #26
    2ac4:	04070200 	streq	r0, [r7], #-512
    2ac8:	000000f1 	streqd	r0, [r0], -r1
    2acc:	006f2c02 	rsbeq	r2, pc, r2, lsl #24
    2ad0:	82020000 	andhi	r0, r2, #0	; 0x0
    2ad4:	04000000 	streq	r0, [r0]
    2ad8:	00780207 	rsbeqs	r0, r8, r7, lsl #4
    2adc:	07080000 	streq	r0, [r8, -r0]
    2ae0:	10060405 	andne	r0, r6, r5, lsl #8
    2ae4:	16000001 	strne	r0, [r0], -r1
    2ae8:	28000005 	stmcsda	r0, {r0, r2}
    2aec:	72072603 	andvc	r2, r7, #3145728	; 0x300000
    2af0:	27030034 	smladxcs	r3, r4, r0, r0
    2af4:	00000064 	andeq	r0, r0, r4, rrx
    2af8:	07002302 	streq	r2, [r0, -r2, lsl #6]
    2afc:	03003572 	movweq	r3, #1394	; 0x572
    2b00:	00006428 	andeq	r6, r0, r8, lsr #8
    2b04:	04230200 	streqt	r0, [r3], #-512
    2b08:	00367207 	eoreqs	r7, r6, r7, lsl #4
    2b0c:	00642903 	rsbeq	r2, r4, r3, lsl #18
    2b10:	23020000 	movwcs	r0, #8192	; 0x2000
    2b14:	37720708 	ldrccb	r0, [r2, -r8, lsl #14]!
    2b18:	642a0300 	strvst	r0, [sl], #-768
    2b1c:	02000000 	andeq	r0, r0, #0	; 0x0
    2b20:	72070c23 	andvc	r0, r7, #8960	; 0x2300
    2b24:	2b030038 	blcs	c2c0c <_start-0xa2f3d3f4>
    2b28:	00000064 	andeq	r0, r0, r4, rrx
    2b2c:	07102302 	ldreq	r2, [r0, -r2, lsl #6]
    2b30:	03003972 	movweq	r3, #2418	; 0x972
    2b34:	0000642c 	andeq	r6, r0, ip, lsr #8
    2b38:	14230200 	strnet	r0, [r3], #-512
    2b3c:	30317207 	eorccs	r7, r1, r7, lsl #4
    2b40:	642d0300 	strvst	r0, [sp], #-768
    2b44:	02000000 	andeq	r0, r0, #0	; 0x0
    2b48:	72071823 	andvc	r1, r7, #2293760	; 0x230000
    2b4c:	03003131 	movweq	r3, #305	; 0x131
    2b50:	0000642e 	andeq	r6, r0, lr, lsr #8
    2b54:	1c230200 	sfmne	f0, 4, [r3]
    2b58:	00707307 	rsbeqs	r7, r0, r7, lsl #6
    2b5c:	007d2f03 	rsbeqs	r2, sp, r3, lsl #30
    2b60:	23020000 	movwcs	r0, #8192	; 0x2000
    2b64:	726c0720 	rsbvc	r0, ip, #8388608	; 0x800000
    2b68:	7d300300 	ldcvc	3, cr0, [r0]
    2b6c:	02000000 	andeq	r0, r0, #0	; 0x0
    2b70:	08002423 	stmeqda	r0, {r0, r1, r5, sl, sp}
    2b74:	0000007f 	andeq	r0, r0, pc, ror r0
    2b78:	00018609 	andeq	r8, r1, r9, lsl #12
    2b7c:	62637400 	rsbvs	r7, r3, #0	; 0x0
    2b80:	03103800 	tsteq	r0, #0	; 0x0
    2b84:	04f50a36 	ldreqbt	r0, [r5], #2614
    2b88:	37030000 	strcc	r0, [r3, -r0]
    2b8c:	0000004b 	andeq	r0, r0, fp, asr #32
    2b90:	0a002302 	beq	b7a0 <_start-0xa2ff4860>
    2b94:	00000a4f 	andeq	r0, r0, pc, asr #20
    2b98:	004b3803 	subeq	r3, fp, r3, lsl #16
    2b9c:	23020000 	movwcs	r0, #8192	; 0x2000
    2ba0:	051c0a01 	ldreq	r0, [ip, #-2561]
    2ba4:	39030000 	stmccdb	r3, {}
    2ba8:	00000110 	andeq	r0, r0, r0, lsl r1
    2bac:	0a042302 	beq	10b7bc <_start-0xa2ef4844>
    2bb0:	00000524 	andeq	r0, r0, r4, lsr #10
    2bb4:	003d3a03 	eoreqs	r3, sp, r3, lsl #20
    2bb8:	23020000 	movwcs	r0, #8192	; 0x2000
    2bbc:	05010a2c 	streq	r0, [r1, #-2604]
    2bc0:	3b030000 	blcc	c2bc8 <_start-0xa2f3d438>
    2bc4:	00000186 	andeq	r0, r0, r6, lsl #3
    2bc8:	0a302302 	beq	c0b7d8 <_start-0xa23f4828>
    2bcc:	00000a5c 	andeq	r0, r0, ip, asr sl
    2bd0:	01913e03 	orreqs	r3, r1, r3, lsl #28
    2bd4:	23020000 	movwcs	r0, #8192	; 0x2000
    2bd8:	04c60a38 	streqb	r0, [r6], #2616
    2bdc:	3f030000 	svccc	0x00030000
    2be0:	000001a9 	andeq	r0, r0, r9, lsr #3
    2be4:	20b82303 	adccss	r2, r8, r3, lsl #6
    2be8:	8c040b00 	stchi	11, cr0, [r4], {0}
    2bec:	08000001 	stmeqda	r0, {r0}
    2bf0:	00000115 	andeq	r0, r0, r5, lsl r1
    2bf4:	0001a20c 	andeq	sl, r1, ip, lsl #4
    2bf8:	00006400 	andeq	r6, r0, r0, lsl #8
    2bfc:	01a20d00 	moveq	r0, r0, lsl #26
    2c00:	03ff0000 	mvneqs	r0, #0	; 0x0
    2c04:	00820200 	addeq	r0, r2, r0, lsl #4
    2c08:	07040000 	streq	r0, [r4, -r0]
    2c0c:	0001b80c 	andeq	fp, r1, ip, lsl #16
    2c10:	00006400 	andeq	r6, r0, r0, lsl #8
    2c14:	01a20e00 	moveq	r0, r0, lsl #28
    2c18:	0f000000 	svceq	0x00000000
    2c1c:	000001d9 	ldreqd	r0, [r0], -r9
    2c20:	000b1201 	andeq	r1, fp, r1, lsl #4
    2c24:	013c0100 	teqeq	ip, r0, lsl #2
    2c28:	a3001738 	movwge	r1, #1848	; 0x738
    2c2c:	a300176c 	movwge	r1, #1900	; 0x76c
    2c30:	69105d01 	ldmvsdb	r0, {r0, r8, sl, fp, ip, lr}
    2c34:	3d430100 	stfcce	f0, [r3]
    2c38:	00000000 	andeq	r0, r0, r0
    2c3c:	00021411 	andeq	r1, r2, r1, lsl r4
    2c40:	0ae50100 	beq	ff943048 <__bss_end__+0x5c8fe894>
    2c44:	88010000 	stmhida	r1, {}
    2c48:	00004b01 	andeq	r4, r0, r1, lsl #22
    2c4c:	00176c00 	andeqs	r6, r7, r0, lsl #24
    2c50:	0017aca3 	andeqs	sl, r7, r3, lsr #25
    2c54:	105d01a3 	subnes	r0, sp, r3, lsr #3
    2c58:	00746572 	rsbeqs	r6, r4, r2, ror r5
    2c5c:	004b8901 	subeq	r8, fp, r1, lsl #18
    2c60:	79120000 	ldmvcdb	r2, {}
    2c64:	4b8b0100 	blmi	fe2c306c <__bss_end__+0x5b27e8b8>
    2c68:	01000000 	tsteq	r0, r0
    2c6c:	00781052 	rsbeqs	r1, r8, r2, asr r0
    2c70:	004b8c01 	subeq	r8, fp, r1, lsl #24
    2c74:	13000000 	movwne	r0, #0	; 0x0
    2c78:	00000262 	andeq	r0, r0, r2, ror #4
    2c7c:	000b2901 	andeq	r2, fp, r1, lsl #18
    2c80:	016b0100 	cmneq	fp, r0, lsl #2
    2c84:	00000186 	andeq	r0, r0, r6, lsl #3
    2c88:	a30017ac 	movwge	r1, #1964	; 0x7ac
    2c8c:	a300183c 	movwge	r1, #2108	; 0x83c
    2c90:	00000c9a 	muleq	r0, sl, ip
    2c94:	0004fc14 	andeq	pc, r4, r4, lsl ip
    2c98:	4b6a0100 	blmi	1a830a0 <_start-0xa157cf60>
    2c9c:	b9000000 	stmltdb	r0, {}
    2ca0:	1500000c 	strne	r0, [r0, #-12]
    2ca4:	00000b88 	andeq	r0, r0, r8, lsl #23
    2ca8:	01866f01 	orreq	r6, r6, r1, lsl #30
    2cac:	0d030000 	stceq	0, cr0, [r3]
    2cb0:	79100000 	ldmvcdb	r0, {}
    2cb4:	4b780100 	blmi	1e030bc <_start-0xa11fcf44>
    2cb8:	10000000 	andne	r0, r0, r0
    2cbc:	79010078 	stmvcdb	r1, {r3, r4, r5, r6}
    2cc0:	0000004b 	andeq	r0, r0, fp, asr #32
    2cc4:	02ac1600 	adceq	r1, ip, #0	; 0x0
    2cc8:	39010000 	stmccdb	r1, {}
    2ccc:	0100000b 	tsteq	r0, fp
    2cd0:	183c0153 	ldmneda	ip!, {r0, r1, r4, r6, r8}
    2cd4:	18b4a300 	ldmneia	r4!, {r8, r9, sp, pc}
    2cd8:	0d21a300 	stceq	3, cr10, [r1]
    2cdc:	74170000 	ldrvc	r0, [r7]
    2ce0:	01006263 	tsteq	r0, r3, ror #4
    2ce4:	00018652 	andeq	r8, r1, r2, asr r6
    2ce8:	000d4000 	andeq	r4, sp, r0
    2cec:	04fc1400 	ldreqbt	r1, [ip], #1024
    2cf0:	52010000 	andpl	r0, r1, #0	; 0x0
    2cf4:	0000004b 	andeq	r0, r0, fp, asr #32
    2cf8:	00000d5e 	andeq	r0, r0, lr, asr sp
    2cfc:	01007910 	tsteq	r0, r0, lsl r9
    2d00:	00004b59 	andeq	r4, r0, r9, asr fp
    2d04:	00781000 	rsbeqs	r1, r8, r0
    2d08:	004b5a01 	subeq	r5, fp, r1, lsl #20
    2d0c:	0c000000 	stceq	0, cr0, [r0], {0}
    2d10:	000002bc 	streqh	r0, [r0], -ip
    2d14:	00000186 	andeq	r0, r0, r6, lsl #3
    2d18:	0001a218 	andeq	sl, r1, r8, lsl r2
    2d1c:	19003f00 	stmnedb	r0, {r8, r9, sl, fp, ip, sp}
    2d20:	00000b20 	andeq	r0, r0, r0, lsr #22
    2d24:	02ac1201 	adceq	r1, ip, #268435456	; 0x10000000
    2d28:	03050000 	movweq	r0, #20480	; 0x5000
    2d2c:	a3002e9c 	movwge	r2, #3740	; 0xe9c
    2d30:	0002dd0c 	andeq	sp, r2, ip, lsl #26
    2d34:	00004b00 	andeq	r4, r0, r0, lsl #22
    2d38:	01a21800 	moveq	r1, r0, lsl #16
    2d3c:	00070000 	andeq	r0, r7, r0
    2d40:	000b0919 	andeq	r0, fp, r9, lsl r9
    2d44:	cd170100 	ldfgts	f0, [r7]
    2d48:	05000002 	streq	r0, [r0, #-2]
    2d4c:	002f9c03 	eoreq	r9, pc, r3, lsl #24
    2d50:	0b0319a3 	bleq	c93e4 <_start-0xa2f36c1c>
    2d54:	1e010000 	cdpne	0, 0, cr0, cr1, cr0, {0}
    2d58:	0000004b 	andeq	r0, r0, fp, asr #32
    2d5c:	2fa40305 	svccs	0x00a40305
    2d60:	0f0ca300 	svceq	0x000ca300
    2d64:	4b000003 	blmi	2d78 <_start-0xa2ffd288>
    2d68:	18000000 	stmneda	r0, {}
    2d6c:	000001a2 	andeq	r0, r0, r2, lsr #3
    2d70:	f21900ff 	vqadd.s16	q0, <illegal reg q12.5>, <illegal reg q15.5>
    2d74:	0100000a 	tsteq	r0, sl
    2d78:	00032023 	andeq	r2, r3, r3, lsr #32
    2d7c:	ec030500 	cfstr32	mvfx0, [r3], {0}
    2d80:	1aa30027 	bne	fe8c2e24 <__bss_end__+0x5b87e670>
    2d84:	000002ff 	streqd	r0, [r0], -pc
    2d88:	00011e1b 	andeq	r1, r1, fp, lsl lr
    2d8c:	3d050400 	cfstrscc	mvf0, [r5]
    2d90:	01000000 	tsteq	r0, r0
    2d94:	05520001 	ldreqb	r0, [r2, #-1]
    2d98:	00020000 	andeq	r0, r2, r0
    2d9c:	000014a6 	andeq	r1, r0, r6, lsr #9
    2da0:	18510104 	ldmneda	r1, {r2, r8}^
    2da4:	1ec40000 	cdpne	0, 12, cr0, cr4, cr0, {0}
    2da8:	18b4a300 	ldmneia	r4!, {r8, r9, sp, pc}
    2dac:	009ea300 	addeqs	sl, lr, r0, lsl #6
    2db0:	e9010000 	stmdb	r1, {}
    2db4:	0200000b 	andeq	r0, r0, #11	; 0xb
    2db8:	0000003a 	andeq	r0, r0, sl, lsr r0
    2dbc:	00000be2 	andeq	r0, r0, r2, ror #23
    2dc0:	031b0304 	tsteq	fp, #268435456	; 0x10000000
    2dc4:	00000b90 	muleq	r0, r0, fp
    2dc8:	0c310300 	ldceq	3, cr0, [r1]
    2dcc:	00010000 	andeq	r0, r1, r0
    2dd0:	000be204 	andeq	lr, fp, r4, lsl #4
    2dd4:	211e0300 	tstcs	lr, r0, lsl #6
    2dd8:	05000000 	streq	r0, [r0]
    2ddc:	0000007d 	andeq	r0, r0, sp, ror r0
    2de0:	af050704 	svcge	0x00050704
    2de4:	04000000 	streq	r0, [r0]
    2de8:	00400505 	subeq	r0, r0, r5, lsl #10
    2dec:	08010000 	stmeqda	r1, {}
    2df0:	00006705 	andeq	r6, r0, r5, lsl #14
    2df4:	06050200 	streq	r0, [r5], -r0, lsl #4
    2df8:	00746e69 	rsbeqs	r6, r4, r9, ror #28
    2dfc:	aa050504 	bge	144214 <_start-0xa2ebbdec>
    2e00:	08000000 	stmeqda	r0, {}
    2e04:	04510405 	ldreqb	r0, [r1], #-1029
    2e08:	2a030000 	bcs	c2e10 <_start-0xa2f3d1f0>
    2e0c:	0000007a 	andeq	r0, r0, sl, ror r0
    2e10:	00003705 	andeq	r3, r0, r5, lsl #14
    2e14:	05080100 	streq	r0, [r8, #-256]
    2e18:	0000004d 	andeq	r0, r0, sp, asr #32
    2e1c:	f1040702 	undefined instruction 0xf1040702
    2e20:	03000000 	movweq	r0, #0	; 0x0
    2e24:	0000932c 	andeq	r9, r0, ip, lsr #6
    2e28:	00820500 	addeq	r0, r2, r0, lsl #10
    2e2c:	07040000 	streq	r0, [r4, -r0]
    2e30:	00007805 	andeq	r7, r0, r5, lsl #16
    2e34:	07070800 	streq	r0, [r7, -r0, lsl #16]
    2e38:	01340804 	teqeq	r4, r4, lsl #16
    2e3c:	05160000 	ldreq	r0, [r6]
    2e40:	04280000 	streqt	r0, [r8]
    2e44:	34720926 	ldrccbt	r0, [r2], #-2342
    2e48:	88270400 	stmhida	r7!, {sl}
    2e4c:	02000000 	andeq	r0, r0, #0	; 0x0
    2e50:	72090023 	andvc	r0, r9, #35	; 0x23
    2e54:	28040035 	stmcsda	r4, {r0, r2, r4, r5}
    2e58:	00000088 	andeq	r0, r0, r8, lsl #1
    2e5c:	09042302 	stmeqdb	r4, {r1, r8, r9, sp}
    2e60:	04003672 	streq	r3, [r0], #-1650
    2e64:	00008829 	andeq	r8, r0, r9, lsr #16
    2e68:	08230200 	stmeqda	r3!, {r9}
    2e6c:	00377209 	eoreqs	r7, r7, r9, lsl #4
    2e70:	00882a04 	addeq	r2, r8, r4, lsl #20
    2e74:	23020000 	movwcs	r0, #8192	; 0x2000
    2e78:	3872090c 	ldmccda	r2!, {r2, r3, r8, fp}^
    2e7c:	882b0400 	stmhida	fp!, {sl}
    2e80:	02000000 	andeq	r0, r0, #0	; 0x0
    2e84:	72091023 	andvc	r1, r9, #35	; 0x23
    2e88:	2c040039 	stccs	0, cr0, [r4], {57}
    2e8c:	00000088 	andeq	r0, r0, r8, lsl #1
    2e90:	09142302 	ldmeqdb	r4, {r1, r8, r9, sp}
    2e94:	00303172 	eoreqs	r3, r0, r2, ror r1
    2e98:	00882d04 	addeq	r2, r8, r4, lsl #26
    2e9c:	23020000 	movwcs	r0, #8192	; 0x2000
    2ea0:	31720918 	cmncc	r2, r8, lsl r9
    2ea4:	2e040031 	mcrcs	0, 0, r0, cr4, cr1, {1}
    2ea8:	00000088 	andeq	r0, r0, r8, lsl #1
    2eac:	091c2302 	ldmeqdb	ip, {r1, r8, r9, sp}
    2eb0:	04007073 	streq	r7, [r0], #-115
    2eb4:	0000a12f 	andeq	sl, r0, pc, lsr #2
    2eb8:	20230200 	eorcs	r0, r3, r0, lsl #4
    2ebc:	00726c09 	rsbeqs	r6, r2, r9, lsl #24
    2ec0:	00a13004 	adceq	r3, r1, r4
    2ec4:	23020000 	movwcs	r0, #8192	; 0x2000
    2ec8:	a30a0024 	movwge	r0, #40996	; 0xa024
    2ecc:	0b000000 	bleq	2ed4 <_start-0xa2ffd12c>
    2ed0:	000001aa 	andeq	r0, r0, sl, lsr #3
    2ed4:	00626374 	rsbeq	r6, r2, r4, ror r3
    2ed8:	36041038 	undefined
    2edc:	0004f50c 	andeq	pc, r4, ip, lsl #10
    2ee0:	6f370400 	svcvs	0x00370400
    2ee4:	02000000 	andeq	r0, r0, #0	; 0x0
    2ee8:	4f0c0023 	svcmi	0x000c0023
    2eec:	0400000a 	streq	r0, [r0], #-10
    2ef0:	00006f38 	andeq	r6, r0, r8, lsr pc
    2ef4:	01230200 	teqeq	r3, r0, lsl #4
    2ef8:	00051c0c 	andeq	r1, r5, ip, lsl #24
    2efc:	34390400 	ldrcct	r0, [r9], #-1024
    2f00:	02000001 	andeq	r0, r0, #1	; 0x1
    2f04:	240c0423 	strcs	r0, [ip], #-1059
    2f08:	04000005 	streq	r0, [r0], #-5
    2f0c:	0000613a 	andeq	r6, r0, sl, lsr r1
    2f10:	2c230200 	sfmcs	f0, 4, [r3]
    2f14:	0005010c 	andeq	r0, r5, ip, lsl #2
    2f18:	aa3b0400 	bge	ec3f20 <_start-0xa213c0e0>
    2f1c:	02000001 	andeq	r0, r0, #1	; 0x1
    2f20:	5c0c3023 	stcpl	0, cr3, [ip], {35}
    2f24:	0400000a 	streq	r0, [r0], #-10
    2f28:	0001b53e 	andeq	fp, r1, lr, lsr r5
    2f2c:	38230200 	stmccda	r3!, {r9}
    2f30:	0004c60c 	andeq	ip, r4, ip, lsl #12
    2f34:	cd3f0400 	cfldrsgt	mvf0, [pc]
    2f38:	03000001 	movweq	r0, #1	; 0x1
    2f3c:	0020b823 	eoreq	fp, r0, r3, lsr #16
    2f40:	01b0040d 	moveqs	r0, sp, lsl #8
    2f44:	390a0000 	stmccdb	sl, {}
    2f48:	0e000001 	cdpeq	0, 0, cr0, cr0, cr1, {0}
    2f4c:	000001c6 	andeq	r0, r0, r6, asr #3
    2f50:	00000088 	andeq	r0, r0, r8, lsl #1
    2f54:	0001c60f 	andeq	ip, r1, pc, lsl #12
    2f58:	0003ff00 	andeq	pc, r3, r0, lsl #30
    2f5c:	00008205 	andeq	r8, r0, r5, lsl #4
    2f60:	0e070400 	cfcpyseq	mvf0, mvf7
    2f64:	000001dc 	ldreqd	r0, [r0], -ip
    2f68:	00000088 	andeq	r0, r0, r8, lsl #1
    2f6c:	0001c610 	andeq	ip, r1, r0, lsl r6
    2f70:	21080000 	tstcs	r8, r0
    2f74:	dc000002 	stcle	0, cr0, [r0], {2}
    2f78:	1000000b 	andne	r0, r0, fp
    2f7c:	260c1506 	strcs	r1, [ip], -r6, lsl #10
    2f80:	0600000c 	streq	r0, [r0], -ip
    2f84:	00003a16 	andeq	r3, r0, r6, lsl sl
    2f88:	00230200 	eoreq	r0, r3, r0, lsl #4
    2f8c:	000c4b0c 	andeq	r4, ip, ip, lsl #22
    2f90:	aa170600 	bge	5c4798 <_start-0xa2a3b868>
    2f94:	02000001 	andeq	r0, r0, #1	; 0x1
    2f98:	a10c0423 	tstge	ip, r3, lsr #8
    2f9c:	0600000b 	streq	r0, [r0], -fp
    2fa0:	00003a18 	andeq	r3, r0, r8, lsl sl
    2fa4:	08230200 	stmeqda	r3!, {r9}
    2fa8:	000ba70c 	andeq	sl, fp, ip, lsl #14
    2fac:	aa190600 	bge	6447b4 <_start-0xa29bb84c>
    2fb0:	02000001 	andeq	r0, r0, #1	; 0x1
    2fb4:	04000c23 	streq	r0, [r0], #-3107
    2fb8:	00000bd4 	ldreqd	r0, [r0], -r4
    2fbc:	01dc1b06 	biceqs	r1, ip, r6, lsl #22
    2fc0:	46110000 	ldrmi	r0, [r1], -r0
    2fc4:	01000002 	tsteq	r0, r2
    2fc8:	0000001c 	andeq	r0, r0, ip, lsl r0
    2fcc:	03014102 	movweq	r4, #4354	; 0x1102
    2fd0:	00040e12 	andeq	r0, r4, r2, lsl lr
    2fd4:	88420200 	stmhida	r2, {r9}^
    2fd8:	00000000 	andeq	r0, r0, r0
    2fdc:	00026011 	andeq	r6, r2, r1, lsl r0
    2fe0:	04b40100 	ldreqt	r0, [r4], #256
    2fe4:	39020000 	stmccdb	r2, {}
    2fe8:	0e120301 	cdpeq	3, 1, cr0, cr2, cr1, {0}
    2fec:	02000004 	andeq	r0, r0, #4	; 0x4
    2ff0:	0000883a 	andeq	r8, r0, sl, lsr r8
    2ff4:	41130000 	tstmi	r3, r0
    2ff8:	01000003 	tsteq	r0, r3
    2ffc:	00000c3e 	andeq	r0, r0, lr, lsr ip
    3000:	6101bb01 	tstvs	r1, r1, lsl #22
    3004:	b4000000 	strlt	r0, [r0]
    3008:	f4a30018 	vld1.8	undefined instruction 0xf4a30018
    300c:	7ca3001a 	stcvc	0, cr0, [r3], #104
    3010:	1400000d 	strne	r0, [r0], #-13
    3014:	00000bdc 	ldreqd	r0, [r0], -ip
    3018:	0061ba01 	rsbeq	fp, r1, r1, lsl #20
    301c:	0d9b0000 	ldceq	0, cr0, [fp]
    3020:	b3150000 	tstlt	r5, #0	; 0x0
    3024:	2c000002 	stccs	0, cr0, [r0], {2}
    3028:	bc000002 	stclt	0, cr0, [r0], {2}
    302c:	c8a30018 	stmgtia	r3!, {r3, r4}
    3030:	01a30018 	moveq	r0, r8, lsl r0
    3034:	18bc16bd 	ldmneia	ip!, {r0, r2, r3, r4, r5, r7, r9, sl, ip}
    3038:	18c8a300 	stmneia	r8, {r8, r9, sp, pc}^
    303c:	3a17a300 	bcc	5ebc44 <_start-0xa2a143bc>
    3040:	c4000002 	strgt	r0, [r0], #-2
    3044:	0000000d 	andeq	r0, r0, sp
    3048:	02da1500 	sbceqs	r1, sl, #0	; 0x0
    304c:	02460000 	subeq	r0, r6, #0	; 0x0
    3050:	19440000 	stmnedb	r4, {}^
    3054:	1958a300 	ldmnedb	r8, {r8, r9, sp, pc}^
    3058:	c701a300 	strgt	sl, [r1, -r0, lsl #6]
    305c:	00194416 	andeqs	r4, r9, r6, lsl r4
    3060:	001958a3 	andeqs	r5, r9, r3, lsr #17
    3064:	025417a3 	subeqs	r1, r4, #42729472	; 0x28c0000
    3068:	0dd70000 	ldceql	0, cr0, [r7]
    306c:	00000000 	andeq	r0, r0, r0
    3070:	00030115 	andeq	r0, r3, r5, lsl r1
    3074:	00024600 	andeq	r4, r2, r0, lsl #12
    3078:	00198800 	andeqs	r8, r9, r0, lsl #16
    307c:	00199ca3 	andeqs	r9, r9, r3, lsr #25
    3080:	16cf01a3 	strneb	r0, [pc], r3, lsr #3
    3084:	a3001988 	movwge	r1, #2440	; 0x988
    3088:	a300199c 	movwge	r1, #2460	; 0x99c
    308c:	00025417 	andeq	r5, r2, r7, lsl r4
    3090:	000df500 	andeq	pc, sp, r0, lsl #10
    3094:	18000000 	stmneda	r0, {}
    3098:	0000031c 	andeq	r0, r0, ip, lsl r3
    309c:	a30019d4 	movwge	r1, #2516	; 0x9d4
    30a0:	a3001a60 	movwge	r1, #2656	; 0xa60
    30a4:	01007419 	tsteq	r0, r9, lsl r4
    30a8:	0001aaf0 	streqd	sl, [r1], -r0
    30ac:	000e1300 	andeq	r1, lr, r0, lsl #6
    30b0:	461a0000 	ldrmi	r0, [sl], -r0
    30b4:	a4000002 	strge	r0, [r0], #-2
    30b8:	b4a3001a 	strltt	r0, [r3], #26
    30bc:	01a3001a 	moveq	r0, sl, lsl r0
    30c0:	a4160109 	ldrge	r0, [r6], #-265
    30c4:	b4a3001a 	strltt	r0, [r3], #26
    30c8:	17a3001a 	undefined
    30cc:	00000254 	andeq	r0, r0, r4, asr r2
    30d0:	00000e26 	andeq	r0, r0, r6, lsr #28
    30d4:	1b000000 	blne	30dc <_start-0xa2ffcf24>
    30d8:	000003a5 	andeq	r0, r0, r5, lsr #7
    30dc:	000bb401 	andeq	fp, fp, r1, lsl #8
    30e0:	011f0100 	tsteq	pc, r0, lsl #2
    30e4:	a3001af4 	movwge	r1, #2804	; 0xaf4
    30e8:	a3001b68 	movwge	r1, #2920	; 0xb68
    30ec:	00000e44 	andeq	r0, r0, r4, asr #28
    30f0:	00038115 	andeq	r8, r3, r5, lsl r1
    30f4:	00022c00 	andeq	r2, r2, r0, lsl #24
    30f8:	001af800 	andeqs	pc, sl, r0, lsl #16
    30fc:	001b04a3 	andeqs	r0, fp, r3, lsr #9
    3100:	162101a3 	strnet	r0, [r1], -r3, lsr #3
    3104:	a3001af8 	movwge	r1, #2808	; 0xaf8
    3108:	a3001b04 	movwge	r1, #2820	; 0xb04
    310c:	00023a17 	andeq	r3, r2, r7, lsl sl
    3110:	000e6300 	andeq	r6, lr, r0, lsl #6
    3114:	1c000000 	stcne	0, cr0, [r0], {0}
    3118:	00000246 	andeq	r0, r0, r6, asr #4
    311c:	a3001b48 	movwge	r1, #2888	; 0xb48
    3120:	a3001b54 	movwge	r1, #2900	; 0xb54
    3124:	48162b01 	ldmmida	r6, {r0, r8, r9, fp, sp}
    3128:	54a3001b 	strplt	r0, [r3], #27
    312c:	17a3001b 	undefined
    3130:	00000254 	andeq	r0, r0, r4, asr r2
    3134:	00000e76 	andeq	r0, r0, r6, ror lr
    3138:	13000000 	movwne	r0, #0	; 0x0
    313c:	00000434 	andeq	r0, r0, r4, lsr r4
    3140:	000bc701 	andeq	ip, fp, r1, lsl #14
    3144:	01330100 	teqeq	r3, r0, lsl #2
    3148:	00000061 	andeq	r0, r0, r1, rrx
    314c:	a3001b68 	movwge	r1, #2920	; 0xb68
    3150:	a3001c6c 	movwge	r1, #3180	; 0xc6c
    3154:	00000e89 	andeq	r0, r0, r9, lsl #29
    3158:	0003e915 	andeq	lr, r3, r5, lsl r9
    315c:	00022c00 	andeq	r2, r2, r0, lsl #24
    3160:	001b6c00 	andeqs	r6, fp, r0, lsl #24
    3164:	001b78a3 	andeqs	r7, fp, r3, lsr #17
    3168:	163501a3 	ldrnet	r0, [r5], -r3, lsr #3
    316c:	a3001b6c 	movwge	r1, #2924	; 0xb6c
    3170:	a3001b78 	movwge	r1, #2936	; 0xb78
    3174:	00023a17 	andeq	r3, r2, r7, lsl sl
    3178:	000ea800 	andeq	sl, lr, r0, lsl #16
    317c:	15000000 	strne	r0, [r0]
    3180:	00000410 	andeq	r0, r0, r0, lsl r4
    3184:	00000246 	andeq	r0, r0, r6, asr #4
    3188:	a3001bb4 	movwge	r1, #2996	; 0xbb4
    318c:	a3001bc8 	movwge	r1, #3016	; 0xbc8
    3190:	b4163e01 	ldrlt	r3, [r6], #-3585
    3194:	c8a3001b 	stmgtia	r3!, {r0, r1, r3, r4}
    3198:	17a3001b 	undefined
    319c:	00000254 	andeq	r0, r0, r4, asr r2
    31a0:	00000ebb 	streqh	r0, [r0], -fp
    31a4:	461c0000 	ldrmi	r0, [ip], -r0
    31a8:	18000002 	stmneda	r0, {r1}
    31ac:	24a3001c 	strcst	r0, [r3], #28
    31b0:	01a3001c 	moveq	r0, ip, lsl r0
    31b4:	1c181650 	ldcne	6, cr1, [r8], {80}
    31b8:	1c24a300 	stcne	3, cr10, [r4]
    31bc:	5417a300 	ldrpl	sl, [r7], #-768
    31c0:	ce000002 	cdpgt	0, 0, cr0, cr0, cr2, {0}
    31c4:	0000000e 	andeq	r0, r0, lr
    31c8:	14130000 	ldrne	r0, [r3]
    31cc:	01000005 	tsteq	r0, r5
    31d0:	00000b96 	muleq	r0, r6, fp
    31d4:	61015c01 	tstvs	r1, r1, lsl #24
    31d8:	6c000000 	stcvs	0, cr0, [r0], {0}
    31dc:	c4a3001c 	strgtt	r0, [r3], #28
    31e0:	e1a3001e 	mov	r0, lr, lsl r0
    31e4:	1400000e 	strne	r0, [r0], #-14
    31e8:	00000bdc 	ldreqd	r0, [r0], -ip
    31ec:	00615b01 	rsbeq	r5, r1, r1, lsl #22
    31f0:	0f000000 	svceq	0x00000000
    31f4:	87150000 	ldrhi	r0, [r5, -r0]
    31f8:	2c000004 	stccs	0, cr0, [r0], {4}
    31fc:	74000002 	strvc	r0, [r0], #-2
    3200:	80a3001c 	adchi	r0, r3, ip, lsl r0
    3204:	01a3001c 	moveq	r0, ip, lsl r0
    3208:	1c74165e 	ldcnel	6, cr1, [r4], #-376
    320c:	1c80a300 	stcne	3, cr10, [r0], {0}
    3210:	3a17a300 	bcc	5ebe18 <_start-0xa2a141e8>
    3214:	34000002 	strcc	r0, [r0], #-2
    3218:	0000000f 	andeq	r0, r0, pc
    321c:	04ae1500 	streqt	r1, [lr], #1280
    3220:	02460000 	subeq	r0, r6, #0	; 0x0
    3224:	1cfc0000 	ldcnel	0, cr0, [ip]
    3228:	1d10a300 	ldcne	3, cr10, [r0]
    322c:	6801a300 	stmvsda	r1, {r8, r9, sp, pc}
    3230:	001cfc16 	andeqs	pc, ip, r6, lsl ip
    3234:	001d10a3 	andeqs	r1, sp, r3, lsr #1
    3238:	025417a3 	subeqs	r1, r4, #42729472	; 0x28c0000
    323c:	0f470000 	svceq	0x00470000
    3240:	00000000 	andeq	r0, r0, r0
    3244:	0004d515 	andeq	sp, r4, r5, lsl r5
    3248:	00024600 	andeq	r4, r2, r0, lsl #12
    324c:	001d6000 	andeqs	r6, sp, r0
    3250:	001d74a3 	andeqs	r7, sp, r3, lsr #9
    3254:	167c01a3 	ldrnebt	r0, [ip], -r3, lsr #3
    3258:	a3001d60 	movwge	r1, #3424	; 0xd60
    325c:	a3001d74 	movwge	r1, #3444	; 0xd74
    3260:	00025417 	andeq	r5, r2, r7, lsl r4
    3264:	000f5a00 	andeq	r5, pc, r0, lsl #20
    3268:	18000000 	stmneda	r0, {}
    326c:	000004f0 	streqd	r0, [r0], -r0
    3270:	a3001da0 	movwge	r1, #3488	; 0xda0
    3274:	a3001ddc 	movwge	r1, #3548	; 0xddc
    3278:	01007419 	tsteq	r0, r9, lsl r4
    327c:	0001aa8c 	andeq	sl, r1, ip, lsl #21
    3280:	000f6d00 	andeq	r6, pc, r0, lsl #26
    3284:	461c0000 	ldrmi	r0, [ip], -r0
    3288:	70000002 	andvc	r0, r0, r2
    328c:	c4a3001e 	strgtt	r0, [r3], #30
    3290:	01a3001e 	moveq	r0, lr, lsl r0
    3294:	1e7016ae 	cdpne	6, 7, cr1, cr0, cr14, {5}
    3298:	1ec4a300 	cdpne	3, 12, cr10, cr4, cr0, {0}
    329c:	5417a300 	ldrpl	sl, [r7], #-768
    32a0:	8b000002 	blhi	32b0 <_start-0xa2ffcd50>
    32a4:	0000000f 	andeq	r0, r0, pc
    32a8:	1e1d0000 	wxorne	wr0, wr13, wr0
    32ac:	05000001 	streq	r0, [r0, #-1]
    32b0:	00006105 	andeq	r6, r0, r5, lsl #2
    32b4:	0e010100 	adfeqs	f0, f1, f0
    32b8:	00000531 	andeq	r0, r0, r1, lsr r5
    32bc:	00000221 	andeq	r0, r0, r1, lsr #4
    32c0:	0001c61e 	andeq	ip, r1, lr, lsl r6
    32c4:	1f001f00 	svcne	0x00001f00
    32c8:	00000c36 	andeq	r0, r0, r6, lsr ip
    32cc:	05211b01 	streq	r1, [r1, #-2817]!
    32d0:	05010000 	streq	r0, [r1]
    32d4:	0445b003 	streqb	fp, [r5], #-3
    32d8:	0bbf1fa3 	bleq	fefcb16c <__bss_end__+0x5bf869b8>
    32dc:	1c010000 	stcne	0, cr0, [r1], {0}
    32e0:	00000061 	andeq	r0, r0, r1, rrx
    32e4:	b0030501 	andlt	r0, r3, r1, lsl #10
    32e8:	00a30447 	adceq	r0, r3, r7, asr #8
    32ec:	000000ba 	streqh	r0, [r0], -sl
    32f0:	16440002 	strneb	r0, [r4], -r2
    32f4:	01040000 	tsteq	r4, r0
    32f8:	00001a71 	andeq	r1, r0, r1, ror sl
    32fc:	a3001f74 	movwge	r1, #3956	; 0xf74
    3300:	a3001ec4 	movwge	r1, #3780	; 0xec4
    3304:	0000009e 	muleq	r0, lr, r0
    3308:	000c7601 	andeq	r7, ip, r1, lsl #12
    330c:	007d0200 	rsbeqs	r0, sp, r0, lsl #4
    3310:	07040000 	streq	r0, [r4, -r0]
    3314:	0000af02 	andeq	sl, r0, r2, lsl #30
    3318:	02050400 	andeq	r0, r5, #0	; 0x0
    331c:	00000040 	andeq	r0, r0, r0, asr #32
    3320:	67020801 	strvs	r0, [r2, -r1, lsl #16]
    3324:	02000000 	andeq	r0, r0, #0	; 0x0
    3328:	6e690305 	cdpvs	3, 6, cr0, cr9, cr5, {0}
    332c:	05040074 	streq	r0, [r4, #-116]
    3330:	0000aa02 	andeq	sl, r0, r2, lsl #20
    3334:	02050800 	andeq	r0, r5, #0	; 0x0
    3338:	00000037 	andeq	r0, r0, r7, lsr r0
    333c:	4d020801 	stcmi	8, cr0, [r2, #-4]
    3340:	02000000 	andeq	r0, r0, #0	; 0x0
    3344:	00820207 	addeq	r0, r2, r7, lsl #4
    3348:	07040000 	streq	r0, [r4, -r0]
    334c:	00007802 	andeq	r7, r0, r2, lsl #16
    3350:	04070800 	streq	r0, [r7], #-2048
    3354:	00000c70 	andeq	r0, r0, r0, ror ip
    3358:	c4012701 	strgt	r2, [r1], #-1793
    335c:	4ca3001e 	stcmi	0, cr0, [r3], #120
    3360:	01a3001f 	moveq	r0, pc, lsl r0
    3364:	009d055d 	addeqs	r0, sp, sp, asr r5
    3368:	64010000 	strvs	r0, [r1]
    336c:	0100000c 	tsteq	r0, ip
    3370:	1f4c012e 	svcne	0x004c012e
    3374:	1f74a300 	svcne	0x0074a300
    3378:	5d01a300 	stcpl	3, cr10, [r1]
    337c:	00706306 	rsbeqs	r6, r0, r6, lsl #6
    3380:	009d2f01 	addeqs	r2, sp, r1, lsl #30
    3384:	52010000 	andpl	r0, r1, #0	; 0x0
    3388:	21040700 	tstcs	r4, r0, lsl #14
    338c:	08000000 	stmeqda	r0, {}
    3390:	00000c58 	andeq	r0, r0, r8, asr ip
    3394:	00212b01 	eoreq	r2, r1, r1, lsl #22
    3398:	01010000 	tsteq	r1, r0
    339c:	00024208 	andeq	r4, r2, r8, lsl #4
    33a0:	212b0100 	teqcs	fp, r0, lsl #2
    33a4:	01000000 	tsteq	r0, r0
    33a8:	Address 0x000033a8 is out of bounds.

Disassembly of section .debug_abbrev:

00000000 <.debug_abbrev>:
       0:	10001101 	andne	r1, r0, r1, lsl #2
       4:	12011106 	andne	r1, r1, #-2147483647	; 0x80000001
       8:	1b080301 	blne	200c14 <_start-0xa2dff3ec>
       c:	13082508 	movwne	r2, #34056	; 0x8508
      10:	00000005 	andeq	r0, r0, r5
      14:	10011101 	andne	r1, r1, r1, lsl #2
      18:	11011206 	tstne	r1, r6, lsl #4
      1c:	130e2501 	movwne	r2, #58625	; 0xe501
      20:	000e030b 	andeq	r0, lr, fp, lsl #6
      24:	00240200 	eoreq	r0, r4, r0, lsl #4
      28:	0b0b0e03 	bleq	2c383c <_start-0xa2d3c7c4>
      2c:	00000b3e 	andeq	r0, r0, lr, lsr fp
      30:	03002403 	movweq	r2, #1027	; 0x403
      34:	3e0b0b08 	fmacdcc	d0, d11, d8
      38:	0400000b 	streq	r0, [r0], #-11
      3c:	0e030016 	mcreq	0, 0, r0, cr3, cr6, {0}
      40:	0b3b0b3a 	bleq	ec2d30 <_start-0xa213d2d0>
      44:	00001349 	andeq	r1, r0, r9, asr #6
      48:	0b000f05 	bleq	3c64 <_start-0xa2ffc39c>
      4c:	0600000b 	streq	r0, [r0], -fp
      50:	13010113 	movwne	r0, #4371	; 0x1113
      54:	0b0b0e03 	bleq	2c3868 <_start-0xa2d3c798>
      58:	0b3b0b3a 	bleq	ec2d48 <_start-0xa213d2b8>
      5c:	0d070000 	stceq	0, cr0, [r7]
      60:	3a0e0300 	bcc	380c68 <_start-0xa2c7f398>
      64:	490b3b0b 	stmmidb	fp, {r0, r1, r3, r8, r9, fp, ip, sp}
      68:	000a3813 	andeq	r3, sl, r3, lsl r8
      6c:	000d0800 	andeq	r0, sp, r0, lsl #16
      70:	0b3a0803 	bleq	e82084 <_start-0xa217df7c>
      74:	13490b3b 	movtne	r0, #39739	; 0x9b3b
      78:	00000a38 	andeq	r0, r0, r8, lsr sl
      7c:	01012e09 	tsteq	r1, r9, lsl #28
      80:	030c3f13 	movweq	r3, #53011	; 0xcf13
      84:	3b0b3a0e 	blcc	2ce8c4 <_start-0xa2d3173c>
      88:	110c270b 	tstne	ip, fp, lsl #14
      8c:	40011201 	andmi	r1, r1, r1, lsl #4
      90:	0a000006 	beq	b0 <_start-0xa2ffff50>
      94:	0e030005 	cdpeq	0, 0, cr0, cr3, cr5, {0}
      98:	0b3b0b3a 	bleq	ec2d88 <_start-0xa213d278>
      9c:	06021349 	streq	r1, [r2], -r9, asr #6
      a0:	0f0b0000 	svceq	0x000b0000
      a4:	490b0b00 	stmmidb	fp, {r8, r9, fp}
      a8:	0c000013 	stceq	0, cr0, [r0], {19}
      ac:	1301012e 	movwne	r0, #4398	; 0x112e
      b0:	0e030c3f 	mcreq	12, 0, r0, cr3, cr15, {1}
      b4:	0b3b0b3a 	bleq	ec2da4 <_start-0xa213d25c>
      b8:	0b200c27 	bleq	80315c <_start-0xa27fcea4>
      bc:	340d0000 	strcc	r0, [sp]
      c0:	3a0e0300 	bcc	380cc8 <_start-0xa2c7f338>
      c4:	490b3b0b 	stmmidb	fp, {r0, r1, r3, r8, r9, fp, ip, sp}
      c8:	0e000013 	mcreq	0, 0, r0, cr0, cr3, {0}
      cc:	08030005 	stmeqda	r3, {r0, r2}
      d0:	0b3b0b3a 	bleq	ec2dc0 <_start-0xa213d240>
      d4:	0a021349 	beq	84e00 <_start-0xa2f7b200>
      d8:	180f0000 	stmneda	pc, {}
      dc:	10000000 	andne	r0, r0, r0
      e0:	0e030034 	mcreq	0, 0, r0, cr3, cr4, {1}
      e4:	0b3b0b3a 	bleq	ec2dd4 <_start-0xa213d22c>
      e8:	0a021349 	beq	84e14 <_start-0xa2f7b1ec>
      ec:	1d110000 	ldcne	0, cr0, [r1]
      f0:	11133101 	tstne	r3, r1, lsl #2
      f4:	58011201 	stmplda	r1, {r0, r9, ip}
      f8:	000b590b 	andeq	r5, fp, fp, lsl #18
      fc:	010b1200 	tsteq	fp, r0, lsl #4
     100:	01120111 	tsteq	r2, r1, lsl r1
     104:	34130000 	ldrcc	r0, [r3]
     108:	02133100 	andeqs	r3, r3, #0	; 0x0
     10c:	14000006 	strne	r0, [r0], #-6
     110:	13490026 	movtne	r0, #36902	; 0x9026
     114:	01000000 	tsteq	r0, r0
     118:	06100111 	undefined
     11c:	01110112 	tsteq	r1, r2, lsl r1
     120:	0b130e25 	bleq	4c39bc <_start-0xa2b3c644>
     124:	00000e03 	andeq	r0, r0, r3, lsl #28
     128:	03002402 	movweq	r2, #1026	; 0x402
     12c:	3e0b0b0e 	fmacdcc	d0, d11, d14
     130:	0300000b 	movweq	r0, #11	; 0xb
     134:	08030024 	stmeqda	r3, {r2, r5}
     138:	0b3e0b0b 	bleq	f82d6c <_start-0xa207d294>
     13c:	16040000 	strne	r0, [r4], -r0
     140:	3a0e0300 	bcc	380d48 <_start-0xa2c7f2b8>
     144:	490b3b0b 	stmmidb	fp, {r0, r1, r3, r8, r9, fp, ip, sp}
     148:	05000013 	streq	r0, [r0, #-19]
     14c:	1301012e 	movwne	r0, #4398	; 0x112e
     150:	0e030c3f 	mcreq	12, 0, r0, cr3, cr15, {1}
     154:	0b3b0b3a 	bleq	ec2e44 <_start-0xa213d1bc>
     158:	13490c27 	movtne	r0, #39975	; 0x9c27
     15c:	01120111 	tsteq	r2, r1, lsl r1
     160:	00000640 	andeq	r0, r0, r0, asr #12
     164:	03000506 	movweq	r0, #1286	; 0x506
     168:	3b0b3a0e 	blcc	2ce9a8 <_start-0xa2d31658>
     16c:	0213490b 	andeqs	r4, r3, #180224	; 0x2c000
     170:	07000006 	streq	r0, [r0, -r6]
     174:	0e030034 	mcreq	0, 0, r0, cr3, cr4, {1}
     178:	0b3b0b3a 	bleq	ec2e68 <_start-0xa213d198>
     17c:	06021349 	streq	r1, [r2], -r9, asr #6
     180:	0f080000 	svceq	0x00080000
     184:	490b0b00 	stmmidb	fp, {r8, r9, fp}
     188:	09000013 	stmeqdb	r0, {r0, r1, r4}
     18c:	0e030034 	mcreq	0, 0, r0, cr3, cr4, {1}
     190:	0b3b0b3a 	bleq	ec2e80 <_start-0xa213d180>
     194:	0c3f1349 	ldceq	3, cr1, [pc], #-292
     198:	00000a02 	andeq	r0, r0, r2, lsl #20
     19c:	01110100 	tsteq	r1, r0, lsl #2
     1a0:	01120610 	tsteq	r2, r0, lsl r6
     1a4:	0e250111 	mcreq	1, 1, r0, cr5, cr1, {0}
     1a8:	0e030b13 	vmoveq.32	d3[0], r0
     1ac:	16020000 	strne	r0, [r2], -r0
     1b0:	3a0e0300 	bcc	380db8 <_start-0xa2c7f248>
     1b4:	490b3b0b 	stmmidb	fp, {r0, r1, r3, r8, r9, fp, ip, sp}
     1b8:	03000013 	movweq	r0, #19	; 0x13
     1bc:	0e030024 	cdpeq	0, 0, cr0, cr3, cr4, {1}
     1c0:	0b3e0b0b 	bleq	f82df4 <_start-0xa207d20c>
     1c4:	24040000 	strcs	r0, [r4]
     1c8:	0b080300 	bleq	200dd0 <_start-0xa2dff230>
     1cc:	000b3e0b 	andeq	r3, fp, fp, lsl #28
     1d0:	012e0500 	teqeq	lr, r0, lsl #10
     1d4:	0c3f1301 	ldceq	3, cr1, [pc], #-4
     1d8:	0b3a0e03 	bleq	e839ec <_start-0xa217c614>
     1dc:	0c270b3b 	stceq	11, cr0, [r7], #-236
     1e0:	01111349 	tsteq	r1, r9, asr #6
     1e4:	0a400112 	beq	1000634 <_start-0xa1fff9cc>
     1e8:	05060000 	streq	r0, [r6]
     1ec:	3a080300 	bcc	200df4 <_start-0xa2dff20c>
     1f0:	490b3b0b 	stmmidb	fp, {r0, r1, r3, r8, r9, fp, ip, sp}
     1f4:	00060213 	andeq	r0, r6, r3, lsl r2
     1f8:	00050700 	andeq	r0, r5, r0, lsl #14
     1fc:	0b3a0e03 	bleq	e83a10 <_start-0xa217c5f0>
     200:	13490b3b 	movtne	r0, #39739	; 0x9b3b
     204:	00000a02 	andeq	r0, r0, r2, lsl #20
     208:	03003408 	movweq	r3, #1032	; 0x408
     20c:	3b0b3a08 	blcc	2cea34 <_start-0xa2d315cc>
     210:	0213490b 	andeqs	r4, r3, #180224	; 0x2c000
     214:	0900000a 	stmeqdb	r0, {r1, r3}
     218:	0e030034 	mcreq	0, 0, r0, cr3, cr4, {1}
     21c:	0b3b0b3a 	bleq	ec2f0c <_start-0xa213d0f4>
     220:	0a021349 	beq	84f4c <_start-0xa2f7b0b4>
     224:	0f0a0000 	svceq	0x000a0000
     228:	490b0b00 	stmmidb	fp, {r8, r9, fp}
     22c:	0b000013 	bleq	280 <_start-0xa2fffd80>
     230:	0c3f012e 	ldfeqs	f0, [pc], #-184
     234:	0b3a0e03 	bleq	e83a48 <_start-0xa217c5b8>
     238:	0c270b3b 	stceq	11, cr0, [r7], #-236
     23c:	01111349 	tsteq	r1, r9, asr #6
     240:	0a400112 	beq	1000690 <_start-0xa1fff970>
     244:	01000000 	tsteq	r0, r0
     248:	06100111 	undefined
     24c:	01110112 	tsteq	r1, r2, lsl r1
     250:	0b130e25 	bleq	4c3aec <_start-0xa2b3c514>
     254:	00000e03 	andeq	r0, r0, r3, lsl #28
     258:	03001602 	movweq	r1, #1538	; 0x602
     25c:	3b0b3a0e 	blcc	2cea9c <_start-0xa2d31564>
     260:	0013490b 	andeqs	r4, r3, fp, lsl #18
     264:	00240300 	eoreq	r0, r4, r0, lsl #6
     268:	0b0b0e03 	bleq	2c3a7c <_start-0xa2d3c584>
     26c:	00000b3e 	andeq	r0, r0, lr, lsr fp
     270:	03002404 	movweq	r2, #1028	; 0x404
     274:	3e0b0b08 	fmacdcc	d0, d11, d8
     278:	0500000b 	streq	r0, [r0, #-11]
     27c:	1301012e 	movwne	r0, #4398	; 0x112e
     280:	0e030c3f 	mcreq	12, 0, r0, cr3, cr15, {1}
     284:	0b3b0b3a 	bleq	ec2f74 <_start-0xa213d08c>
     288:	13490c27 	movtne	r0, #39975	; 0x9c27
     28c:	01120111 	tsteq	r2, r1, lsl r1
     290:	00000a40 	andeq	r0, r0, r0, asr #20
     294:	03000506 	movweq	r0, #1286	; 0x506
     298:	3b0b3a0e 	blcc	2cead8 <_start-0xa2d31528>
     29c:	0213490b 	andeqs	r4, r3, #180224	; 0x2c000
     2a0:	07000006 	streq	r0, [r0, -r6]
     2a4:	0e030005 	cdpeq	0, 0, cr0, cr3, cr5, {0}
     2a8:	0b3b0b3a 	bleq	ec2f98 <_start-0xa213d068>
     2ac:	0a021349 	beq	84fd8 <_start-0xa2f7b028>
     2b0:	34080000 	strcc	r0, [r8]
     2b4:	3a0e0300 	bcc	380ebc <_start-0xa2c7f144>
     2b8:	490b3b0b 	stmmidb	fp, {r0, r1, r3, r8, r9, fp, ip, sp}
     2bc:	09000013 	stmeqdb	r0, {r0, r1, r4}
     2c0:	0e030034 	mcreq	0, 0, r0, cr3, cr4, {1}
     2c4:	0b3b0b3a 	bleq	ec2fb4 <_start-0xa213d04c>
     2c8:	0a021349 	beq	84ff4 <_start-0xa2f7b00c>
     2cc:	0f0a0000 	svceq	0x000a0000
     2d0:	490b0b00 	stmmidb	fp, {r8, r9, fp}
     2d4:	0b000013 	bleq	328 <_start-0xa2fffcd8>
     2d8:	00000026 	andeq	r0, r0, r6, lsr #32
     2dc:	01110100 	tsteq	r1, r0, lsl #2
     2e0:	01120610 	tsteq	r2, r0, lsl r6
     2e4:	0e250111 	mcreq	1, 1, r0, cr5, cr1, {0}
     2e8:	0e030b13 	vmoveq.32	d3[0], r0
     2ec:	24020000 	strcs	r0, [r2]
     2f0:	0b0e0300 	bleq	380ef8 <_start-0xa2c7f108>
     2f4:	000b3e0b 	andeq	r3, fp, fp, lsl #28
     2f8:	00240300 	eoreq	r0, r4, r0, lsl #6
     2fc:	0b0b0803 	bleq	2c2310 <_start-0xa2d3dcf0>
     300:	00000b3e 	andeq	r0, r0, lr, lsr fp
     304:	3f002e04 	svccc	0x00002e04
     308:	3a0e030c 	bcc	380f40 <_start-0xa2c7f0c0>
     30c:	270b3b0b 	strcs	r3, [fp, -fp, lsl #22]
     310:	1201110c 	andne	r1, r1, #3	; 0x3
     314:	00064001 	andeq	r4, r6, r1
     318:	11010000 	tstne	r1, r0
     31c:	12061001 	andne	r1, r6, #1	; 0x1
     320:	25011101 	strcs	r1, [r1, #-257]
     324:	030b130e 	movweq	r1, #45838	; 0xb30e
     328:	0200000e 	andeq	r0, r0, #14	; 0xe
     32c:	0e030016 	mcreq	0, 0, r0, cr3, cr6, {0}
     330:	0b3b0b3a 	bleq	ec3020 <_start-0xa213cfe0>
     334:	00001349 	andeq	r1, r0, r9, asr #6
     338:	03002403 	movweq	r2, #1027	; 0x403
     33c:	3e0b0b0e 	fmacdcc	d0, d11, d14
     340:	0400000b 	streq	r0, [r0], #-11
     344:	08030024 	stmeqda	r3, {r2, r5}
     348:	0b3e0b0b 	bleq	f82f7c <_start-0xa207d084>
     34c:	0f050000 	svceq	0x00050000
     350:	000b0b00 	andeq	r0, fp, r0, lsl #22
     354:	012e0600 	teqeq	lr, r0, lsl #12
     358:	0c3f1301 	ldceq	3, cr1, [pc], #-4
     35c:	0b3a0e03 	bleq	e83b70 <_start-0xa217c490>
     360:	0c270b3b 	stceq	11, cr0, [r7], #-236
     364:	0b201349 	bleq	805090 <_start-0xa27faf70>
     368:	05070000 	streq	r0, [r7]
     36c:	3a080300 	bcc	200f74 <_start-0xa2dff08c>
     370:	490b3b0b 	stmmidb	fp, {r0, r1, r3, r8, r9, fp, ip, sp}
     374:	08000013 	stmeqda	r0, {r0, r1, r4}
     378:	1301012e 	movwne	r0, #4398	; 0x112e
     37c:	0e030c3f 	mcreq	12, 0, r0, cr3, cr15, {1}
     380:	0b3b0b3a 	bleq	ec3070 <_start-0xa213cf90>
     384:	01110c27 	tsteq	r1, r7, lsr #24
     388:	06400112 	undefined
     38c:	05090000 	streq	r0, [r9]
     390:	3a080300 	bcc	200f98 <_start-0xa2dff068>
     394:	490b3b0b 	stmmidb	fp, {r0, r1, r3, r8, r9, fp, ip, sp}
     398:	00060213 	andeq	r0, r6, r3, lsl r2
     39c:	00340a00 	eoreqs	r0, r4, r0, lsl #20
     3a0:	0b3a0803 	bleq	e823b4 <_start-0xa217dc4c>
     3a4:	13490b3b 	movtne	r0, #39739	; 0x9b3b
     3a8:	00000a02 	andeq	r0, r0, r2, lsl #20
     3ac:	0300340b 	movweq	r3, #1035	; 0x40b
     3b0:	3b0b3a08 	blcc	2cebd8 <_start-0xa2d31428>
     3b4:	0213490b 	andeqs	r4, r3, #180224	; 0x2c000
     3b8:	0c000006 	stceq	0, cr0, [r0], {6}
     3bc:	08030034 	stmeqda	r3, {r2, r4, r5}
     3c0:	0b3b0b3a 	bleq	ec30b0 <_start-0xa213cf50>
     3c4:	00001349 	andeq	r1, r0, r9, asr #6
     3c8:	0b000f0d 	bleq	4004 <_start-0xa2ffbffc>
     3cc:	0013490b 	andeqs	r4, r3, fp, lsl #18
     3d0:	11010000 	tstne	r1, r0
     3d4:	12061001 	andne	r1, r6, #1	; 0x1
     3d8:	25011101 	strcs	r1, [r1, #-257]
     3dc:	030b130e 	movweq	r1, #45838	; 0xb30e
     3e0:	0200000e 	andeq	r0, r0, #14	; 0xe
     3e4:	0e030024 	cdpeq	0, 0, cr0, cr3, cr4, {1}
     3e8:	0b3e0b0b 	bleq	f8301c <_start-0xa207cfe4>
     3ec:	24030000 	strcs	r0, [r3]
     3f0:	0b080300 	bleq	200ff8 <_start-0xa2dff008>
     3f4:	000b3e0b 	andeq	r3, fp, fp, lsl #28
     3f8:	00160400 	andeqs	r0, r6, r0, lsl #8
     3fc:	0b3a0e03 	bleq	e83c10 <_start-0xa217c3f0>
     400:	13490b3b 	movtne	r0, #39739	; 0x9b3b
     404:	2e050000 	cdpcs	0, 0, cr0, cr5, cr0, {0}
     408:	3f130101 	svccc	0x00130101
     40c:	3a0e030c 	bcc	381044 <_start-0xa2c7efbc>
     410:	270b3b0b 	strcs	r3, [fp, -fp, lsl #22]
     414:	1113490c 	tstne	r3, ip, lsl #18
     418:	40011201 	andmi	r1, r1, r1, lsl #4
     41c:	06000006 	streq	r0, [r0], -r6
     420:	0e030005 	cdpeq	0, 0, cr0, cr3, cr5, {0}
     424:	0b3b0b3a 	bleq	ec3114 <_start-0xa213ceec>
     428:	06021349 	streq	r1, [r2], -r9, asr #6
     42c:	34070000 	strcc	r0, [r7]
     430:	3a0e0300 	bcc	381038 <_start-0xa2c7efc8>
     434:	490b3b0b 	stmmidb	fp, {r0, r1, r3, r8, r9, fp, ip, sp}
     438:	08000013 	stmeqda	r0, {r0, r1, r4}
     43c:	0e030034 	mcreq	0, 0, r0, cr3, cr4, {1}
     440:	0b3b0b3a 	bleq	ec3130 <_start-0xa213ced0>
     444:	0a021349 	beq	85170 <_start-0xa2f7ae90>
     448:	0f090000 	svceq	0x00090000
     44c:	490b0b00 	stmmidb	fp, {r8, r9, fp}
     450:	0a000013 	beq	4a4 <_start-0xa2fffb5c>
     454:	0c3f002e 	ldceq	0, cr0, [pc], #-184
     458:	0b3a0e03 	bleq	e83c6c <_start-0xa217c394>
     45c:	01110b3b 	tsteq	r1, fp, lsr fp
     460:	0a400112 	beq	10008b0 <_start-0xa1fff750>
     464:	2e0b0000 	cdpcs	0, 0, cr0, cr11, cr0, {0}
     468:	030c3f00 	movweq	r3, #52992	; 0xcf00
     46c:	3b0b3a0e 	blcc	2cecac <_start-0xa2d31354>
     470:	1201110b 	andne	r1, r1, #-1073741822	; 0xc0000002
     474:	00064001 	andeq	r4, r6, r1
     478:	012e0c00 	teqeq	lr, r0, lsl #24
     47c:	0c3f1301 	ldceq	3, cr1, [pc], #-4
     480:	0b3a0e03 	bleq	e83c94 <_start-0xa217c36c>
     484:	0c270b3b 	stceq	11, cr0, [r7], #-236
     488:	0b201349 	bleq	8051b4 <_start-0xa27fae4c>
     48c:	2e0d0000 	cdpcs	0, 0, cr0, cr13, cr0, {0}
     490:	3f130101 	svccc	0x00130101
     494:	3a0e030c 	bcc	3810cc <_start-0xa2c7ef34>
     498:	270b3b0b 	strcs	r3, [fp, -fp, lsl #22]
     49c:	000b200c 	andeq	r2, fp, ip
     4a0:	00050e00 	andeq	r0, r5, r0, lsl #28
     4a4:	0b3a0e03 	bleq	e83cb8 <_start-0xa217c348>
     4a8:	13490b3b 	movtne	r0, #39739	; 0x9b3b
     4ac:	2e0f0000 	cdpcs	0, 0, cr0, cr15, cr0, {0}
     4b0:	3f130101 	svccc	0x00130101
     4b4:	3a0e030c 	bcc	3810ec <_start-0xa2c7ef14>
     4b8:	110b3b0b 	tstne	fp, fp, lsl #22
     4bc:	40011201 	andmi	r1, r1, r1, lsl #4
     4c0:	1000000a 	andne	r0, r0, sl
     4c4:	1301011d 	movwne	r0, #4381	; 0x111d
     4c8:	01111331 	tsteq	r1, r1, lsr r3
     4cc:	0b580112 	bleq	160091c <_start-0xa19ff6e4>
     4d0:	00000b59 	andeq	r0, r0, r9, asr fp
     4d4:	11010b11 	tstne	r1, r1, lsl fp
     4d8:	00011201 	andeq	r1, r1, r1, lsl #4
     4dc:	00341200 	eoreqs	r1, r4, r0, lsl #4
     4e0:	00001331 	andeq	r1, r0, r1, lsr r3
     4e4:	31000513 	tstcc	r0, r3, lsl r5
     4e8:	14000013 	strne	r0, [r0], #-19
     4ec:	1331011d 	teqne	r1, #1073741831	; 0x40000007
     4f0:	01120111 	tsteq	r2, r1, lsl r1
     4f4:	0b590b58 	bleq	164325c <_start-0xa19bcda4>
     4f8:	01150000 	tsteq	r5, r0
     4fc:	49130101 	ldmmidb	r3, {r0, r8}
     500:	16000013 	undefined
     504:	13490021 	movtne	r0, #36897	; 0x9021
     508:	00000b2f 	andeq	r0, r0, pc, lsr #22
     50c:	03003417 	movweq	r3, #1047	; 0x417
     510:	3b0b3a0e 	blcc	2ced50 <_start-0xa2d312b0>
     514:	3f13490b 	svccc	0x0013490b
     518:	000c3c0c 	andeq	r3, ip, ip, lsl #24
     51c:	00341800 	eoreqs	r1, r4, r0, lsl #16
     520:	0b3a0e03 	bleq	e83d34 <_start-0xa217c2cc>
     524:	13490b3b 	movtne	r0, #39739	; 0x9b3b
     528:	0a020c3f 	beq	8362c <_start-0xa2f7c9d4>
     52c:	01000000 	tsteq	r0, r0
     530:	06100111 	undefined
     534:	01110112 	tsteq	r1, r2, lsl r1
     538:	0b130e25 	bleq	4c3dd4 <_start-0xa2b3c22c>
     53c:	00000e03 	andeq	r0, r0, r3, lsl #28
     540:	03002402 	movweq	r2, #1026	; 0x402
     544:	3e0b0b0e 	fmacdcc	d0, d11, d14
     548:	0300000b 	movweq	r0, #11	; 0xb
     54c:	08030024 	stmeqda	r3, {r2, r5}
     550:	0b3e0b0b 	bleq	f83184 <_start-0xa207ce7c>
     554:	16040000 	strne	r0, [r4], -r0
     558:	3a0e0300 	bcc	381160 <_start-0xa2c7eea0>
     55c:	490b3b0b 	stmmidb	fp, {r0, r1, r3, r8, r9, fp, ip, sp}
     560:	05000013 	streq	r0, [r0, #-19]
     564:	0b0b000f 	bleq	2c05a8 <_start-0xa2d3fa58>
     568:	13060000 	movwne	r0, #24576	; 0x6000
     56c:	03130101 	tsteq	r3, #1073741824	; 0x40000000
     570:	3a0b0b0e 	bcc	2c31b0 <_start-0xa2d3ce50>
     574:	000b3b0b 	andeq	r3, fp, fp, lsl #22
     578:	000d0700 	andeq	r0, sp, r0, lsl #14
     57c:	0b3a0803 	bleq	e82590 <_start-0xa217da70>
     580:	13490b3b 	movtne	r0, #39739	; 0x9b3b
     584:	00000a38 	andeq	r0, r0, r8, lsr sl
     588:	49003508 	stmmidb	r0, {r3, r8, sl, ip, sp}
     58c:	09000013 	stmeqdb	r0, {r0, r1, r4}
     590:	13010113 	movwne	r0, #4371	; 0x1113
     594:	050b0803 	streq	r0, [fp, #-2051]
     598:	0b3b0b3a 	bleq	ec3288 <_start-0xa213cd78>
     59c:	0d0a0000 	stceq	0, cr0, [sl]
     5a0:	3a0e0300 	bcc	3811a8 <_start-0xa2c7ee58>
     5a4:	490b3b0b 	stmmidb	fp, {r0, r1, r3, r8, r9, fp, ip, sp}
     5a8:	000a3813 	andeq	r3, sl, r3, lsl r8
     5ac:	000f0b00 	andeq	r0, pc, r0, lsl #22
     5b0:	13490b0b 	movtne	r0, #39691	; 0x9b0b
     5b4:	010c0000 	tsteq	ip, r0
     5b8:	49130101 	ldmmidb	r3, {r0, r8}
     5bc:	0d000013 	stceq	0, cr0, [r0, #-76]
     5c0:	13490021 	movtne	r0, #36897	; 0x9021
     5c4:	0000052f 	andeq	r0, r0, pc, lsr #10
     5c8:	4900210e 	stmmidb	r0, {r1, r2, r3, r8, sp}
     5cc:	0f000013 	svceq	0x00000013
     5d0:	13010113 	movwne	r0, #4371	; 0x1113
     5d4:	0b0b0803 	bleq	2c25e8 <_start-0xa2d3da18>
     5d8:	0b3b0b3a 	bleq	ec32c8 <_start-0xa213cd38>
     5dc:	2e100000 	wxorcs	wr0, wr0, wr0
     5e0:	3f130101 	svccc	0x00130101
     5e4:	3a0e030c 	bcc	38121c <_start-0xa2c7ede4>
     5e8:	270b3b0b 	strcs	r3, [fp, -fp, lsl #22]
     5ec:	000b200c 	andeq	r2, fp, ip
     5f0:	00341100 	eoreqs	r1, r4, r0, lsl #2
     5f4:	0b3a0e03 	bleq	e83e08 <_start-0xa217c1f8>
     5f8:	13490b3b 	movtne	r0, #39739	; 0x9b3b
     5fc:	2e120000 	wxorcs	wr0, wr2, wr0
     600:	3f130101 	svccc	0x00130101
     604:	3a0e030c 	bcc	38123c <_start-0xa2c7edc4>
     608:	270b3b0b 	strcs	r3, [fp, -fp, lsl #22]
     60c:	1201110c 	andne	r1, r1, #3	; 0x3
     610:	00064001 	andeq	r4, r6, r1
     614:	00051300 	andeq	r1, r5, r0, lsl #6
     618:	0b3a0e03 	bleq	e83e2c <_start-0xa217c1d4>
     61c:	13490b3b 	movtne	r0, #39739	; 0x9b3b
     620:	00000602 	andeq	r0, r0, r2, lsl #12
     624:	03003414 	movweq	r3, #1044	; 0x414
     628:	3b0b3a08 	blcc	2cee50 <_start-0xa2d311b0>
     62c:	0213490b 	andeqs	r4, r3, #180224	; 0x2c000
     630:	15000006 	strne	r0, [r0, #-6]
     634:	0e030034 	mcreq	0, 0, r0, cr3, cr4, {1}
     638:	0b3b0b3a 	bleq	ec3328 <_start-0xa213ccd8>
     63c:	06021349 	streq	r1, [r2], -r9, asr #6
     640:	1d160000 	ldcne	0, cr0, [r6]
     644:	31130101 	tstcc	r3, r1, lsl #2
     648:	12011113 	andne	r1, r1, #-1073741820	; 0xc0000004
     64c:	590b5801 	stmpldb	fp, {r0, fp, ip, lr}
     650:	1700000b 	strne	r0, [r0, -fp]
     654:	0111010b 	tsteq	r1, fp, lsl #2
     658:	00000112 	andeq	r0, r0, r2, lsl r1
     65c:	31003418 	tstcc	r0, r8, lsl r4
     660:	00060213 	andeq	r0, r6, r3, lsl r2
     664:	010b1900 	tsteq	fp, r0, lsl #18
     668:	01111301 	tsteq	r1, r1, lsl #6
     66c:	00000112 	andeq	r0, r0, r2, lsl r1
     670:	31011d1a 	tstcc	r1, sl, lsl sp
     674:	12011113 	andne	r1, r1, #-1073741820	; 0xc0000004
     678:	590b5801 	stmpldb	fp, {r0, fp, ip, lr}
     67c:	1b00000b 	blne	6b0 <_start-0xa2fff950>
     680:	1301012e 	movwne	r0, #4398	; 0x112e
     684:	0e030c3f 	mcreq	12, 0, r0, cr3, cr15, {1}
     688:	0b3b0b3a 	bleq	ec3378 <_start-0xa213cc88>
     68c:	01110c27 	tsteq	r1, r7, lsr #24
     690:	0a400112 	beq	1000ae0 <_start-0xa1fff520>
     694:	341c0000 	ldrcc	r0, [ip]
     698:	3a080300 	bcc	2012a0 <_start-0xa2dfed60>
     69c:	490b3b0b 	stmmidb	fp, {r0, r1, r3, r8, r9, fp, ip, sp}
     6a0:	1d000013 	stcne	0, cr0, [r0, #-76]
     6a4:	08030005 	stmeqda	r3, {r0, r2}
     6a8:	0b3b0b3a 	bleq	ec3398 <_start-0xa213cc68>
     6ac:	06021349 	streq	r1, [r2], -r9, asr #6
     6b0:	211e0000 	tstcs	lr, r0
     6b4:	2f134900 	svccs	0x00134900
     6b8:	1f00000b 	svcne	0x0000000b
     6bc:	0e030034 	mcreq	0, 0, r0, cr3, cr4, {1}
     6c0:	0b3b0b3a 	bleq	ec33b0 <_start-0xa213cc50>
     6c4:	0a021349 	beq	853f0 <_start-0xa2f7ac10>
     6c8:	34200000 	strcct	r0, [r0]
     6cc:	3a0e0300 	bcc	3812d4 <_start-0xa2c7ed2c>
     6d0:	490b3b0b 	stmmidb	fp, {r0, r1, r3, r8, r9, fp, ip, sp}
     6d4:	020c3f13 	andeq	r3, ip, #76	; 0x4c
     6d8:	2100000a 	tstcs	r0, sl
     6dc:	13490026 	movtne	r0, #36902	; 0x9026
     6e0:	34220000 	strcct	r0, [r2]
     6e4:	3a0e0300 	bcc	3812ec <_start-0xa2c7ed14>
     6e8:	490b3b0b 	stmmidb	fp, {r0, r1, r3, r8, r9, fp, ip, sp}
     6ec:	3c0c3f13 	stccc	15, cr3, [ip], {19}
     6f0:	0000000c 	andeq	r0, r0, ip
     6f4:	10011101 	andne	r1, r1, r1, lsl #2
     6f8:	11011206 	tstne	r1, r6, lsl #4
     6fc:	130e2501 	movwne	r2, #58625	; 0xe501
     700:	000e030b 	andeq	r0, lr, fp, lsl #6
     704:	012e0200 	teqeq	lr, r0, lsl #4
     708:	0c3f1301 	ldceq	3, cr1, [pc], #-4
     70c:	0b3a0e03 	bleq	e83f20 <_start-0xa217c0e0>
     710:	0c270b3b 	stceq	11, cr0, [r7], #-236
     714:	0b201349 	bleq	805440 <_start-0xa27fabc0>
     718:	05030000 	streq	r0, [r3]
     71c:	3a080300 	bcc	201324 <_start-0xa2dfecdc>
     720:	490b3b0b 	stmmidb	fp, {r0, r1, r3, r8, r9, fp, ip, sp}
     724:	04000013 	streq	r0, [r0], #-19
     728:	08030024 	stmeqda	r3, {r2, r5}
     72c:	0b3e0b0b 	bleq	f83360 <_start-0xa207cca0>
     730:	2e050000 	cdpcs	0, 0, cr0, cr5, cr0, {0}
     734:	3f130101 	svccc	0x00130101
     738:	3a0e030c 	bcc	381370 <_start-0xa2c7ec90>
     73c:	270b3b0b 	strcs	r3, [fp, -fp, lsl #22]
     740:	1113490c 	tstne	r3, ip, lsl #18
     744:	40011201 	andmi	r1, r1, r1, lsl #4
     748:	0600000a 	streq	r0, [r0], -sl
     74c:	08030005 	stmeqda	r3, {r0, r2}
     750:	0b3b0b3a 	bleq	ec3440 <_start-0xa213cbc0>
     754:	06021349 	streq	r1, [r2], -r9, asr #6
     758:	2e070000 	cdpcs	0, 0, cr0, cr7, cr0, {0}
     75c:	31130101 	tstcc	r3, r1, lsl #2
     760:	12011113 	andne	r1, r1, #-1073741820	; 0xc0000004
     764:	000a4001 	andeq	r4, sl, r1
     768:	00050800 	andeq	r0, r5, r0, lsl #16
     76c:	06021331 	undefined
     770:	2e090000 	cdpcs	0, 0, cr0, cr9, cr0, {0}
     774:	3f130101 	svccc	0x00130101
     778:	3a0e030c 	bcc	3813b0 <_start-0xa2c7ec50>
     77c:	270b3b0b 	strcs	r3, [fp, -fp, lsl #22]
     780:	1113490c 	tstne	r3, ip, lsl #18
     784:	40011201 	andmi	r1, r1, r1, lsl #4
     788:	0a000006 	beq	7a8 <_start-0xa2fff858>
     78c:	0c3f012e 	ldfeqs	f0, [pc], #-184
     790:	0b3a0e03 	bleq	e83fa4 <_start-0xa217c05c>
     794:	0c270b3b 	stceq	11, cr0, [r7], #-236
     798:	01111349 	tsteq	r1, r9, asr #6
     79c:	0a400112 	beq	1000bec <_start-0xa1fff414>
     7a0:	01000000 	tsteq	r0, r0
     7a4:	06100011 	undefined
     7a8:	01120111 	tsteq	r2, r1, lsl r1
     7ac:	081b0803 	ldmeqda	fp, {r0, r1, fp}
     7b0:	05130825 	ldreq	r0, [r3, #-2085]
     7b4:	01000000 	tsteq	r0, r0
     7b8:	06100011 	undefined
     7bc:	01120111 	tsteq	r2, r1, lsl r1
     7c0:	081b0803 	ldmeqda	fp, {r0, r1, fp}
     7c4:	05130825 	ldreq	r0, [r3, #-2085]
     7c8:	01000000 	tsteq	r0, r0
     7cc:	06100011 	undefined
     7d0:	01120111 	tsteq	r2, r1, lsl r1
     7d4:	081b0803 	ldmeqda	fp, {r0, r1, fp}
     7d8:	05130825 	ldreq	r0, [r3, #-2085]
     7dc:	01000000 	tsteq	r0, r0
     7e0:	06100011 	undefined
     7e4:	01120111 	tsteq	r2, r1, lsl r1
     7e8:	081b0803 	ldmeqda	fp, {r0, r1, fp}
     7ec:	05130825 	ldreq	r0, [r3, #-2085]
     7f0:	01000000 	tsteq	r0, r0
     7f4:	06100111 	undefined
     7f8:	01110112 	tsteq	r1, r2, lsl r1
     7fc:	0b130e25 	bleq	4c4098 <_start-0xa2b3bf68>
     800:	00000e03 	andeq	r0, r0, r3, lsl #28
     804:	03001602 	movweq	r1, #1538	; 0x602
     808:	3b0b3a0e 	blcc	2cf048 <_start-0xa2d30fb8>
     80c:	0013490b 	andeqs	r4, r3, fp, lsl #18
     810:	00240300 	eoreq	r0, r4, r0, lsl #6
     814:	0b0b0e03 	bleq	2c4028 <_start-0xa2d3bfd8>
     818:	00000b3e 	andeq	r0, r0, lr, lsr fp
     81c:	03002404 	movweq	r2, #1028	; 0x404
     820:	3e0b0b08 	fmacdcc	d0, d11, d8
     824:	0500000b 	streq	r0, [r0, #-11]
     828:	1301012e 	movwne	r0, #4398	; 0x112e
     82c:	0e030c3f 	mcreq	12, 0, r0, cr3, cr15, {1}
     830:	0b3b0b3a 	bleq	ec3520 <_start-0xa213cae0>
     834:	13490c27 	movtne	r0, #39975	; 0x9c27
     838:	01120111 	tsteq	r2, r1, lsl r1
     83c:	00000640 	andeq	r0, r0, r0, asr #12
     840:	03000506 	movweq	r0, #1286	; 0x506
     844:	3b0b3a0e 	blcc	2cf084 <_start-0xa2d30f7c>
     848:	0213490b 	andeqs	r4, r3, #180224	; 0x2c000
     84c:	07000006 	streq	r0, [r0, -r6]
     850:	0e030005 	cdpeq	0, 0, cr0, cr3, cr5, {0}
     854:	0b3b0b3a 	bleq	ec3544 <_start-0xa213cabc>
     858:	0a021349 	beq	85584 <_start-0xa2f7aa7c>
     85c:	34080000 	strcc	r0, [r8]
     860:	3a0e0300 	bcc	381468 <_start-0xa2c7eb98>
     864:	490b3b0b 	stmmidb	fp, {r0, r1, r3, r8, r9, fp, ip, sp}
     868:	09000013 	stmeqdb	r0, {r0, r1, r4}
     86c:	08030034 	stmeqda	r3, {r2, r4, r5}
     870:	0b3b0b3a 	bleq	ec3560 <_start-0xa213caa0>
     874:	00001349 	andeq	r1, r0, r9, asr #6
     878:	0b000f0a 	bleq	44a8 <_start-0xa2ffbb58>
     87c:	0013490b 	andeqs	r4, r3, fp, lsl #18
     880:	012e0b00 	teqeq	lr, r0, lsl #22
     884:	0c3f1301 	ldceq	3, cr1, [pc], #-4
     888:	0b3a0e03 	bleq	e8409c <_start-0xa217bf64>
     88c:	0c270b3b 	stceq	11, cr0, [r7], #-236
     890:	01120111 	tsteq	r2, r1, lsl r1
     894:	00000a40 	andeq	r0, r0, r0, asr #20
     898:	0300340c 	movweq	r3, #1036	; 0x40c
     89c:	3b0b3a0e 	blcc	2cf0dc <_start-0xa2d30f24>
     8a0:	0213490b 	andeqs	r4, r3, #180224	; 0x2c000
     8a4:	0d00000a 	stceq	0, cr0, [r0, #-40]
     8a8:	1301012e 	movwne	r0, #4398	; 0x112e
     8ac:	0e030c3f 	mcreq	12, 0, r0, cr3, cr15, {1}
     8b0:	0b3b0b3a 	bleq	ec35a0 <_start-0xa213ca60>
     8b4:	0b200c27 	bleq	803958 <_start-0xa27fc6a8>
     8b8:	050e0000 	streq	r0, [lr]
     8bc:	3a0e0300 	bcc	3814c4 <_start-0xa2c7eb3c>
     8c0:	490b3b0b 	stmmidb	fp, {r0, r1, r3, r8, r9, fp, ip, sp}
     8c4:	0f000013 	svceq	0x00000013
     8c8:	1301012e 	movwne	r0, #4398	; 0x112e
     8cc:	0e030c3f 	mcreq	12, 0, r0, cr3, cr15, {1}
     8d0:	0b3b0b3a 	bleq	ec35c0 <_start-0xa213ca40>
     8d4:	01120111 	tsteq	r2, r1, lsl r1
     8d8:	00000640 	andeq	r0, r0, r0, asr #12
     8dc:	01011d10 	tsteq	r1, r0, lsl sp
     8e0:	55133113 	ldrpl	r3, [r3, #-275]
     8e4:	590b5806 	stmpldb	fp, {r1, r2, fp, ip, lr}
     8e8:	1100000b 	tstne	r0, fp
     8ec:	13310005 	teqne	r1, #5	; 0x5
     8f0:	1d120000 	ldcne	0, cr0, [r2]
     8f4:	31130101 	tstcc	r3, r1, lsl #2
     8f8:	12011113 	andne	r1, r1, #-1073741820	; 0xc0000004
     8fc:	590b5801 	stmpldb	fp, {r0, fp, ip, lr}
     900:	1300000b 	movwne	r0, #11	; 0xb
     904:	1331011d 	teqne	r1, #1073741831	; 0x40000007
     908:	01120111 	tsteq	r2, r1, lsl r1
     90c:	0b590b58 	bleq	1643674 <_start-0xa19bc98c>
     910:	34140000 	ldrcc	r0, [r4]
     914:	3a0e0300 	bcc	38151c <_start-0xa2c7eae4>
     918:	490b3b0b 	stmmidb	fp, {r0, r1, r3, r8, r9, fp, ip, sp}
     91c:	020c3f13 	andeq	r3, ip, #76	; 0x4c
     920:	1500000a 	strne	r0, [r0, #-10]
     924:	13490035 	movtne	r0, #36917	; 0x9035
     928:	34160000 	ldrcc	r0, [r6]
     92c:	3a0e0300 	bcc	381534 <_start-0xa2c7eacc>
     930:	490b3b0b 	stmmidb	fp, {r0, r1, r3, r8, r9, fp, ip, sp}
     934:	3c0c3f13 	stccc	15, cr3, [ip], {19}
     938:	0000000c 	andeq	r0, r0, ip
     93c:	10011101 	andne	r1, r1, r1, lsl #2
     940:	11011206 	tstne	r1, r6, lsl #4
     944:	130e2501 	movwne	r2, #58625	; 0xe501
     948:	000e030b 	andeq	r0, lr, fp, lsl #6
     94c:	00160200 	andeqs	r0, r6, r0, lsl #4
     950:	0b3a0e03 	bleq	e84164 <_start-0xa217be9c>
     954:	13490b3b 	movtne	r0, #39739	; 0x9b3b
     958:	24030000 	strcs	r0, [r3]
     95c:	0b0e0300 	bleq	381564 <_start-0xa2c7ea9c>
     960:	000b3e0b 	andeq	r3, fp, fp, lsl #28
     964:	00240400 	eoreq	r0, r4, r0, lsl #8
     968:	0b0b0803 	bleq	2c297c <_start-0xa2d3d684>
     96c:	00000b3e 	andeq	r0, r0, lr, lsr fp
     970:	01012e05 	tsteq	r1, r5, lsl #28
     974:	030c3f13 	movweq	r3, #53011	; 0xcf13
     978:	3b0b3a0e 	blcc	2cf1b8 <_start-0xa2d30e48>
     97c:	490c270b 	stmmidb	ip, {r0, r1, r3, r8, r9, sl, sp}
     980:	000b2013 	andeq	r2, fp, r3, lsl r0
     984:	00050600 	andeq	r0, r5, r0, lsl #12
     988:	0b3a0e03 	bleq	e8419c <_start-0xa217be64>
     98c:	13490b3b 	movtne	r0, #39739	; 0x9b3b
     990:	2e070000 	cdpcs	0, 0, cr0, cr7, cr0, {0}
     994:	3f130101 	svccc	0x00130101
     998:	3a0e030c 	bcc	3815d0 <_start-0xa2c7ea30>
     99c:	270b3b0b 	strcs	r3, [fp, -fp, lsl #22]
     9a0:	000b200c 	andeq	r2, fp, ip
     9a4:	012e0800 	teqeq	lr, r0, lsl #16
     9a8:	0c3f1301 	ldceq	3, cr1, [pc], #-4
     9ac:	0b3a0e03 	bleq	e841c0 <_start-0xa217be40>
     9b0:	01110b3b 	tsteq	r1, fp, lsr fp
     9b4:	0a400112 	beq	1000e04 <_start-0xa1fff1fc>
     9b8:	34090000 	strcc	r0, [r9]
     9bc:	3a0e0300 	bcc	3815c4 <_start-0xa2c7ea3c>
     9c0:	490b3b0b 	stmmidb	fp, {r0, r1, r3, r8, r9, fp, ip, sp}
     9c4:	00060213 	andeq	r0, r6, r3, lsl r2
     9c8:	011d0a00 	tsteq	sp, r0, lsl #20
     9cc:	13311301 	teqne	r1, #67108864	; 0x4000000
     9d0:	0b580655 	bleq	160232c <_start-0xa19fdcd4>
     9d4:	00000b59 	andeq	r0, r0, r9, asr fp
     9d8:	3100050b 	tstcc	r0, fp, lsl #10
     9dc:	0c000013 	stceq	0, cr0, [r0], {19}
     9e0:	1301011d 	movwne	r0, #4381	; 0x111d
     9e4:	01111331 	tsteq	r1, r1, lsr r3
     9e8:	0b580112 	bleq	1600e38 <_start-0xa19ff1c8>
     9ec:	00000b59 	andeq	r0, r0, r9, asr fp
     9f0:	31011d0d 	tstcc	r1, sp, lsl #26
     9f4:	12011113 	andne	r1, r1, #-1073741820	; 0xc0000004
     9f8:	590b5801 	stmpldb	fp, {r0, fp, ip, lr}
     9fc:	0e00000b 	cdpeq	0, 0, cr0, cr0, cr11, {0}
     a00:	0e030034 	mcreq	0, 0, r0, cr3, cr4, {1}
     a04:	0b3b0b3a 	bleq	ec36f4 <_start-0xa213c90c>
     a08:	0c3f1349 	ldceq	3, cr1, [pc], #-292
     a0c:	00000c3c 	andeq	r0, r0, ip, lsr ip
     a10:	4900350f 	stmmidb	r0, {r0, r1, r2, r3, r8, sl, ip, sp}
     a14:	10000013 	andne	r0, r0, r3, lsl r0
     a18:	0e030034 	mcreq	0, 0, r0, cr3, cr4, {1}
     a1c:	0b3b0b3a 	bleq	ec370c <_start-0xa213c8f4>
     a20:	0c3f1349 	ldceq	3, cr1, [pc], #-292
     a24:	00000a02 	andeq	r0, r0, r2, lsl #20
     a28:	00110100 	andeqs	r0, r1, r0, lsl #2
     a2c:	01110610 	tsteq	r1, r0, lsl r6
     a30:	08030112 	stmeqda	r3, {r1, r4, r8}
     a34:	0825081b 	stmeqda	r5!, {r0, r1, r3, r4, fp}
     a38:	00000513 	andeq	r0, r0, r3, lsl r5
     a3c:	01110100 	tsteq	r1, r0, lsl #2
     a40:	01120610 	tsteq	r2, r0, lsl r6
     a44:	0e250111 	mcreq	1, 1, r0, cr5, cr1, {0}
     a48:	0e030b13 	vmoveq.32	d3[0], r0
     a4c:	24020000 	strcs	r0, [r2]
     a50:	0b0e0300 	bleq	381658 <_start-0xa2c7e9a8>
     a54:	000b3e0b 	andeq	r3, fp, fp, lsl #28
     a58:	00240300 	eoreq	r0, r4, r0, lsl #6
     a5c:	0b0b0803 	bleq	2c2a70 <_start-0xa2d3d590>
     a60:	00000b3e 	andeq	r0, r0, lr, lsr fp
     a64:	03001604 	movweq	r1, #1540	; 0x604
     a68:	3b0b3a0e 	blcc	2cf2a8 <_start-0xa2d30d58>
     a6c:	0013490b 	andeqs	r4, r3, fp, lsl #18
     a70:	000f0500 	andeq	r0, pc, r0, lsl #10
     a74:	00000b0b 	andeq	r0, r0, fp, lsl #22
     a78:	01011306 	tsteq	r1, r6, lsl #6
     a7c:	0b0e0313 	bleq	3816d0 <_start-0xa2c7e930>
     a80:	3b0b3a0b 	blcc	2cf2b4 <_start-0xa2d30d4c>
     a84:	0700000b 	streq	r0, [r0, -fp]
     a88:	0803000d 	stmeqda	r3, {r0, r2, r3}
     a8c:	0b3b0b3a 	bleq	ec377c <_start-0xa213c884>
     a90:	0a381349 	beq	e057bc <_start-0xa21fa844>
     a94:	35080000 	strcc	r0, [r8]
     a98:	00134900 	andeqs	r4, r3, r0, lsl #18
     a9c:	012e0900 	teqeq	lr, r0, lsl #18
     aa0:	0c3f1301 	ldceq	3, cr1, [pc], #-4
     aa4:	0b3a0e03 	bleq	e842b8 <_start-0xa217bd48>
     aa8:	0c270b3b 	stceq	11, cr0, [r7], #-236
     aac:	01120111 	tsteq	r2, r1, lsl r1
     ab0:	00000a40 	andeq	r0, r0, r0, asr #20
     ab4:	0300050a 	movweq	r0, #1290	; 0x50a
     ab8:	3b0b3a0e 	blcc	2cf2f8 <_start-0xa2d30d08>
     abc:	0213490b 	andeqs	r4, r3, #180224	; 0x2c000
     ac0:	0b000006 	bleq	ae0 <_start-0xa2fff520>
     ac4:	1301012e 	movwne	r0, #4398	; 0x112e
     ac8:	0e030c3f 	mcreq	12, 0, r0, cr3, cr15, {1}
     acc:	0b3b0b3a 	bleq	ec37bc <_start-0xa213c844>
     ad0:	0b200c27 	bleq	803b74 <_start-0xa27fc48c>
     ad4:	340c0000 	strcc	r0, [ip]
     ad8:	3a0e0300 	bcc	3816e0 <_start-0xa2c7e920>
     adc:	490b3b0b 	stmmidb	fp, {r0, r1, r3, r8, r9, fp, ip, sp}
     ae0:	0d000013 	stceq	0, cr0, [r0, #-76]
     ae4:	1301012e 	movwne	r0, #4398	; 0x112e
     ae8:	0e030c3f 	mcreq	12, 0, r0, cr3, cr15, {1}
     aec:	0b3b0b3a 	bleq	ec37dc <_start-0xa213c824>
     af0:	13490c27 	movtne	r0, #39975	; 0x9c27
     af4:	01120111 	tsteq	r2, r1, lsl r1
     af8:	00000640 	andeq	r0, r0, r0, asr #12
     afc:	0300340e 	movweq	r3, #1038	; 0x40e
     b00:	3b0b3a08 	blcc	2cf328 <_start-0xa2d30cd8>
     b04:	0213490b 	andeqs	r4, r3, #180224	; 0x2c000
     b08:	0f00000a 	svceq	0x0000000a
     b0c:	08030034 	stmeqda	r3, {r2, r4, r5}
     b10:	0b3b0b3a 	bleq	ec3800 <_start-0xa213c800>
     b14:	06021349 	streq	r1, [r2], -r9, asr #6
     b18:	1d100000 	ldcne	0, cr0, [r0]
     b1c:	31130101 	tstcc	r3, r1, lsl #2
     b20:	12011113 	andne	r1, r1, #-1073741820	; 0xc0000004
     b24:	590b5801 	stmpldb	fp, {r0, fp, ip, lr}
     b28:	1100000b 	tstne	r0, fp
     b2c:	0111010b 	tsteq	r1, fp, lsl #2
     b30:	00000112 	andeq	r0, r0, r2, lsl r1
     b34:	31003412 	tstcc	r0, r2, lsl r4
     b38:	00060213 	andeq	r0, r6, r3, lsl r2
     b3c:	011d1300 	tsteq	sp, r0, lsl #6
     b40:	01111331 	tsteq	r1, r1, lsr r3
     b44:	0b580112 	bleq	1600f94 <_start-0xa19ff06c>
     b48:	00000b59 	andeq	r0, r0, r9, asr fp
     b4c:	0b000f14 	bleq	47a4 <_start-0xa2ffb85c>
     b50:	0013490b 	andeqs	r4, r3, fp, lsl #18
     b54:	00341500 	eoreqs	r1, r4, r0, lsl #10
     b58:	0b3a0e03 	bleq	e8436c <_start-0xa217bc94>
     b5c:	13490b3b 	movtne	r0, #39739	; 0x9b3b
     b60:	0c3c0c3f 	ldceq	12, cr0, [ip], #-252
     b64:	01000000 	tsteq	r0, r0
     b68:	06100111 	undefined
     b6c:	01110112 	tsteq	r1, r2, lsl r1
     b70:	0b130e25 	bleq	4c440c <_start-0xa2b3bbf4>
     b74:	00000e03 	andeq	r0, r0, r3, lsl #28
     b78:	03001602 	movweq	r1, #1538	; 0x602
     b7c:	3b0b3a0e 	blcc	2cf3bc <_start-0xa2d30c44>
     b80:	0013490b 	andeqs	r4, r3, fp, lsl #18
     b84:	00240300 	eoreq	r0, r4, r0, lsl #6
     b88:	0b0b0e03 	bleq	2c439c <_start-0xa2d3bc64>
     b8c:	00000b3e 	andeq	r0, r0, lr, lsr fp
     b90:	03002404 	movweq	r2, #1028	; 0x404
     b94:	3e0b0b08 	fmacdcc	d0, d11, d8
     b98:	0500000b 	streq	r0, [r0, #-11]
     b9c:	1301012e 	movwne	r0, #4398	; 0x112e
     ba0:	0e030c3f 	mcreq	12, 0, r0, cr3, cr15, {1}
     ba4:	0b3b0b3a 	bleq	ec3894 <_start-0xa213c76c>
     ba8:	13490c27 	movtne	r0, #39975	; 0x9c27
     bac:	01120111 	tsteq	r2, r1, lsl r1
     bb0:	00000a40 	andeq	r0, r0, r0, asr #20
     bb4:	03000506 	movweq	r0, #1286	; 0x506
     bb8:	3b0b3a0e 	blcc	2cf3f8 <_start-0xa2d30c08>
     bbc:	0213490b 	andeqs	r4, r3, #180224	; 0x2c000
     bc0:	07000006 	streq	r0, [r0, -r6]
     bc4:	1301012e 	movwne	r0, #4398	; 0x112e
     bc8:	0e030c3f 	mcreq	12, 0, r0, cr3, cr15, {1}
     bcc:	0b3b0b3a 	bleq	ec38bc <_start-0xa213c744>
     bd0:	01110c27 	tsteq	r1, r7, lsr #24
     bd4:	0a400112 	beq	1001024 <_start-0xa1ffefdc>
     bd8:	05080000 	streq	r0, [r8]
     bdc:	3a0e0300 	bcc	3817e4 <_start-0xa2c7e81c>
     be0:	490b3b0b 	stmmidb	fp, {r0, r1, r3, r8, r9, fp, ip, sp}
     be4:	000a0213 	andeq	r0, sl, r3, lsl r2
     be8:	00340900 	eoreqs	r0, r4, r0, lsl #18
     bec:	0b3a0803 	bleq	e82c00 <_start-0xa217d400>
     bf0:	13490b3b 	movtne	r0, #39739	; 0x9b3b
     bf4:	00000a02 	andeq	r0, r0, r2, lsl #20
     bf8:	0b000f0a 	bleq	4828 <_start-0xa2ffb7d8>
     bfc:	0013490b 	andeqs	r4, r3, fp, lsl #18
     c00:	00350b00 	eoreqs	r0, r5, r0, lsl #22
     c04:	00001349 	andeq	r1, r0, r9, asr #6
     c08:	3f012e0c 	svccc	0x00012e0c
     c0c:	3a0e030c 	bcc	381844 <_start-0xa2c7e7bc>
     c10:	270b3b0b 	strcs	r3, [fp, -fp, lsl #22]
     c14:	1201110c 	andne	r1, r1, #3	; 0x3
     c18:	000a4001 	andeq	r4, sl, r1
     c1c:	11010000 	tstne	r1, r0
     c20:	12061001 	andne	r1, r6, #1	; 0x1
     c24:	25011101 	strcs	r1, [r1, #-257]
     c28:	030b130e 	movweq	r1, #45838	; 0xb30e
     c2c:	0200000e 	andeq	r0, r0, #14	; 0xe
     c30:	0e030024 	cdpeq	0, 0, cr0, cr3, cr4, {1}
     c34:	0b3e0b0b 	bleq	f83868 <_start-0xa207c798>
     c38:	24030000 	strcs	r0, [r3]
     c3c:	0b080300 	bleq	201844 <_start-0xa2dfe7bc>
     c40:	000b3e0b 	andeq	r3, fp, fp, lsl #28
     c44:	00160400 	andeqs	r0, r6, r0, lsl #8
     c48:	0b3a0e03 	bleq	e8445c <_start-0xa217bba4>
     c4c:	13490b3b 	movtne	r0, #39739	; 0x9b3b
     c50:	2e050000 	cdpcs	0, 0, cr0, cr5, cr0, {0}
     c54:	3f130101 	svccc	0x00130101
     c58:	3a0e030c 	bcc	381890 <_start-0xa2c7e770>
     c5c:	270b3b0b 	strcs	r3, [fp, -fp, lsl #22]
     c60:	1113490c 	tstne	r3, ip, lsl #18
     c64:	40011201 	andmi	r1, r1, r1, lsl #4
     c68:	0600000a 	streq	r0, [r0], -sl
     c6c:	0e030034 	mcreq	0, 0, r0, cr3, cr4, {1}
     c70:	0b3b0b3a 	bleq	ec3960 <_start-0xa213c6a0>
     c74:	06021349 	streq	r1, [r2], -r9, asr #6
     c78:	2e070000 	cdpcs	0, 0, cr0, cr7, cr0, {0}
     c7c:	030c3f01 	movweq	r3, #52993	; 0xcf01
     c80:	3b0b3a0e 	blcc	2cf4c0 <_start-0xa2d30b40>
     c84:	110c270b 	tstne	ip, fp, lsl #14
     c88:	40011201 	andmi	r1, r1, r1, lsl #4
     c8c:	0800000a 	stmeqda	r0, {r1, r3}
     c90:	0e030005 	cdpeq	0, 0, cr0, cr3, cr5, {0}
     c94:	0b3b0b3a 	bleq	ec3984 <_start-0xa213c67c>
     c98:	0a021349 	beq	859c4 <_start-0xa2f7a63c>
     c9c:	01000000 	tsteq	r0, r0
     ca0:	06100011 	undefined
     ca4:	01120111 	tsteq	r2, r1, lsl r1
     ca8:	081b0803 	ldmeqda	fp, {r0, r1, fp}
     cac:	05130825 	ldreq	r0, [r3, #-2085]
     cb0:	01000000 	tsteq	r0, r0
     cb4:	06100111 	undefined
     cb8:	01110112 	tsteq	r1, r2, lsl r1
     cbc:	0b130e25 	bleq	4c4558 <_start-0xa2b3baa8>
     cc0:	00000e03 	andeq	r0, r0, r3, lsl #28
     cc4:	03001602 	movweq	r1, #1538	; 0x602
     cc8:	3b0b3a0e 	blcc	2cf508 <_start-0xa2d30af8>
     ccc:	0013490b 	andeqs	r4, r3, fp, lsl #18
     cd0:	00240300 	eoreq	r0, r4, r0, lsl #6
     cd4:	0b0b0e03 	bleq	2c44e8 <_start-0xa2d3bb18>
     cd8:	00000b3e 	andeq	r0, r0, lr, lsr fp
     cdc:	03002404 	movweq	r2, #1028	; 0x404
     ce0:	3e0b0b08 	fmacdcc	d0, d11, d8
     ce4:	0500000b 	streq	r0, [r0, #-11]
     ce8:	0b0b000f 	bleq	2c0d2c <_start-0xa2d3f2d4>
     cec:	2e060000 	cdpcs	0, 0, cr0, cr6, cr0, {0}
     cf0:	3f130101 	svccc	0x00130101
     cf4:	3a0e030c 	bcc	38192c <_start-0xa2c7e6d4>
     cf8:	270b3b0b 	strcs	r3, [fp, -fp, lsl #22]
     cfc:	1113490c 	tstne	r3, ip, lsl #18
     d00:	40011201 	andmi	r1, r1, r1, lsl #4
     d04:	07000006 	streq	r0, [r0, -r6]
     d08:	08030005 	stmeqda	r3, {r0, r2}
     d0c:	0b3b0b3a 	bleq	ec39fc <_start-0xa213c604>
     d10:	06021349 	streq	r1, [r2], -r9, asr #6
     d14:	05080000 	streq	r0, [r8]
     d18:	3a0e0300 	bcc	381920 <_start-0xa2c7e6e0>
     d1c:	490b3b0b 	stmmidb	fp, {r0, r1, r3, r8, r9, fp, ip, sp}
     d20:	00060213 	andeq	r0, r6, r3, lsl r2
     d24:	00340900 	eoreqs	r0, r4, r0, lsl #18
     d28:	0b3a0e03 	bleq	e8453c <_start-0xa217bac4>
     d2c:	13490b3b 	movtne	r0, #39739	; 0x9b3b
     d30:	00000602 	andeq	r0, r0, r2, lsl #12
     d34:	0300340a 	movweq	r3, #1034	; 0x40a
     d38:	3b0b3a0e 	blcc	2cf578 <_start-0xa2d30a88>
     d3c:	0213490b 	andeqs	r4, r3, #180224	; 0x2c000
     d40:	0b00000a 	bleq	d70 <_start-0xa2fff290>
     d44:	0b0b000f 	bleq	2c0d88 <_start-0xa2d3f278>
     d48:	00001349 	andeq	r1, r0, r9, asr #6
     d4c:	0000260c 	andeq	r2, r0, ip, lsl #12
     d50:	00340d00 	eoreqs	r0, r4, r0, lsl #26
     d54:	0b3a0803 	bleq	e82d68 <_start-0xa217d298>
     d58:	13490b3b 	movtne	r0, #39739	; 0x9b3b
     d5c:	00000602 	andeq	r0, r0, r2, lsl #12
     d60:	0300340e 	movweq	r3, #1038	; 0x40e
     d64:	3b0b3a0e 	blcc	2cf5a4 <_start-0xa2d30a5c>
     d68:	3f13490b 	svccc	0x0013490b
     d6c:	000c3c0c 	andeq	r3, ip, ip, lsl #24
     d70:	11010000 	tstne	r1, r0
     d74:	12061001 	andne	r1, r6, #1	; 0x1
     d78:	25011101 	strcs	r1, [r1, #-257]
     d7c:	030b130e 	movweq	r1, #45838	; 0xb30e
     d80:	0200000e 	andeq	r0, r0, #14	; 0xe
     d84:	0e030016 	mcreq	0, 0, r0, cr3, cr6, {0}
     d88:	0b3b0b3a 	bleq	ec3a78 <_start-0xa213c588>
     d8c:	00001349 	andeq	r1, r0, r9, asr #6
     d90:	03002403 	movweq	r2, #1027	; 0x403
     d94:	3e0b0b0e 	fmacdcc	d0, d11, d14
     d98:	0400000b 	streq	r0, [r0], #-11
     d9c:	08030024 	stmeqda	r3, {r2, r5}
     da0:	0b3e0b0b 	bleq	f839d4 <_start-0xa207c62c>
     da4:	15050000 	strne	r0, [r5]
     da8:	27130101 	ldrcs	r0, [r3, -r1, lsl #2]
     dac:	0600000c 	streq	r0, [r0], -ip
     db0:	13490005 	movtne	r0, #36869	; 0x9005
     db4:	0f070000 	svceq	0x00070000
     db8:	000b0b00 	andeq	r0, fp, r0, lsl #22
     dbc:	000f0800 	andeq	r0, pc, r0, lsl #16
     dc0:	13490b0b 	movtne	r0, #39691	; 0x9b0b
     dc4:	13090000 	movwne	r0, #36864	; 0x9000
     dc8:	03130101 	tsteq	r3, #1073741824	; 0x40000000
     dcc:	3a0b0b0e 	bcc	2c3a0c <_start-0xa2d3c5f4>
     dd0:	000b3b0b 	andeq	r3, fp, fp, lsl #22
     dd4:	000d0a00 	andeq	r0, sp, r0, lsl #20
     dd8:	0b3a0e03 	bleq	e845ec <_start-0xa217ba14>
     ddc:	13490b3b 	movtne	r0, #39739	; 0x9b3b
     de0:	00000a38 	andeq	r0, r0, r8, lsr sl
     de4:	03000d0b 	movweq	r0, #3339	; 0xd0b
     de8:	3b0b3a08 	blcc	2cf610 <_start-0xa2d309f0>
     dec:	3813490b 	ldmccda	r3, {r0, r1, r3, r8, fp, lr}
     df0:	0c00000a 	stceq	0, cr0, [r0], {10}
     df4:	1301012e 	movwne	r0, #4398	; 0x112e
     df8:	0e030c3f 	mcreq	12, 0, r0, cr3, cr15, {1}
     dfc:	0b3b0b3a 	bleq	ec3aec <_start-0xa213c514>
     e00:	0b200c27 	bleq	803ea4 <_start-0xa27fc15c>
     e04:	340d0000 	strcc	r0, [sp]
     e08:	3a0e0300 	bcc	381a10 <_start-0xa2c7e5f0>
     e0c:	490b3b0b 	stmmidb	fp, {r0, r1, r3, r8, r9, fp, ip, sp}
     e10:	0e000013 	mcreq	0, 0, r0, cr0, cr3, {0}
     e14:	1301012e 	movwne	r0, #4398	; 0x112e
     e18:	0e030c3f 	mcreq	12, 0, r0, cr3, cr15, {1}
     e1c:	0b3b0b3a 	bleq	ec3b0c <_start-0xa213c4f4>
     e20:	01110c27 	tsteq	r1, r7, lsr #24
     e24:	0a400112 	beq	1001274 <_start-0xa1ffed8c>
     e28:	050f0000 	streq	r0, [pc, #0]	; e30 <_start-0xa2fff1d0>
     e2c:	3a0e0300 	bcc	381a34 <_start-0xa2c7e5cc>
     e30:	490b3b0b 	stmmidb	fp, {r0, r1, r3, r8, r9, fp, ip, sp}
     e34:	00060213 	andeq	r0, r6, r3, lsl r2
     e38:	011d1000 	tsteq	sp, r0
     e3c:	01111331 	tsteq	r1, r1, lsr r3
     e40:	0b580112 	bleq	1601290 <_start-0xa19fed70>
     e44:	00000b59 	andeq	r0, r0, r9, asr fp
     e48:	11010b11 	tstne	r1, r1, lsl fp
     e4c:	00011201 	andeq	r1, r1, r1, lsl #4
     e50:	00341200 	eoreqs	r1, r4, r0, lsl #4
     e54:	06021331 	undefined
     e58:	2e130000 	wxorcs	wr0, wr3, wr0
     e5c:	3f130101 	svccc	0x00130101
     e60:	3a0e030c 	bcc	381a98 <_start-0xa2c7e568>
     e64:	270b3b0b 	strcs	r3, [fp, -fp, lsl #22]
     e68:	1113490c 	tstne	r3, ip, lsl #18
     e6c:	40011201 	andmi	r1, r1, r1, lsl #4
     e70:	14000006 	strne	r0, [r0], #-6
     e74:	1301011d 	movwne	r0, #4381	; 0x111d
     e78:	01111331 	tsteq	r1, r1, lsr r3
     e7c:	0b580112 	bleq	16012cc <_start-0xa19fed34>
     e80:	00000b59 	andeq	r0, r0, r9, asr fp
     e84:	03000515 	movweq	r0, #1301	; 0x515
     e88:	3b0b3a08 	blcc	2cf6b0 <_start-0xa2d30950>
     e8c:	0213490b 	andeqs	r4, r3, #180224	; 0x2c000
     e90:	16000006 	strne	r0, [r0], -r6
     e94:	0e030034 	mcreq	0, 0, r0, cr3, cr4, {1}
     e98:	0b3b0b3a 	bleq	ec3b88 <_start-0xa213c478>
     e9c:	0c3f1349 	ldceq	3, cr1, [pc], #-292
     ea0:	00000c3c 	andeq	r0, r0, ip, lsr ip
     ea4:	01110100 	tsteq	r1, r0, lsl #2
     ea8:	01120610 	tsteq	r2, r0, lsl r6
     eac:	0e250111 	mcreq	1, 1, r0, cr5, cr1, {0}
     eb0:	0e030b13 	vmoveq.32	d3[0], r0
     eb4:	24020000 	strcs	r0, [r2]
     eb8:	0b0e0300 	bleq	381ac0 <_start-0xa2c7e540>
     ebc:	000b3e0b 	andeq	r3, fp, fp, lsl #28
     ec0:	00240300 	eoreq	r0, r4, r0, lsl #6
     ec4:	0b0b0803 	bleq	2c2ed8 <_start-0xa2d3d128>
     ec8:	00000b3e 	andeq	r0, r0, lr, lsr fp
     ecc:	03001604 	movweq	r1, #1540	; 0x604
     ed0:	3b0b3a0e 	blcc	2cf710 <_start-0xa2d308f0>
     ed4:	0013490b 	andeqs	r4, r3, fp, lsl #18
     ed8:	012e0500 	teqeq	lr, r0, lsl #10
     edc:	0c3f1301 	ldceq	3, cr1, [pc], #-4
     ee0:	0b3a0e03 	bleq	e846f4 <_start-0xa217b90c>
     ee4:	0c270b3b 	stceq	11, cr0, [r7], #-236
     ee8:	00000b20 	andeq	r0, r0, r0, lsr #22
     eec:	03003406 	movweq	r3, #1030	; 0x406
     ef0:	3b0b3a0e 	blcc	2cf730 <_start-0xa2d308d0>
     ef4:	0013490b 	andeqs	r4, r3, fp, lsl #18
     ef8:	012e0700 	teqeq	lr, r0, lsl #14
     efc:	0c3f1301 	ldceq	3, cr1, [pc], #-4
     f00:	0b3a0e03 	bleq	e84714 <_start-0xa217b8ec>
     f04:	0c270b3b 	stceq	11, cr0, [r7], #-236
     f08:	01111349 	tsteq	r1, r9, asr #6
     f0c:	0a400112 	beq	100135c <_start-0xa1ffeca4>
     f10:	34080000 	strcc	r0, [r8]
     f14:	3a0e0300 	bcc	381b1c <_start-0xa2c7e4e4>
     f18:	490b3b0b 	stmmidb	fp, {r0, r1, r3, r8, r9, fp, ip, sp}
     f1c:	00060213 	andeq	r0, r6, r3, lsl r2
     f20:	011d0900 	tsteq	sp, r0, lsl #18
     f24:	13311301 	teqne	r1, #67108864	; 0x4000000
     f28:	01120111 	tsteq	r2, r1, lsl r1
     f2c:	0b590b58 	bleq	1643c94 <_start-0xa19bc36c>
     f30:	0b0a0000 	bleq	280f38 <_start-0xa2d7f0c8>
     f34:	12011101 	andne	r1, r1, #1073741824	; 0x40000000
     f38:	0b000001 	bleq	f44 <_start-0xa2fff0bc>
     f3c:	13310034 	teqne	r1, #52	; 0x34
     f40:	00000602 	andeq	r0, r0, r2, lsl #12
     f44:	31011d0c 	tstcc	r1, ip, lsl #26
     f48:	12011113 	andne	r1, r1, #-1073741820	; 0xc0000004
     f4c:	590b5801 	stmpldb	fp, {r0, fp, ip, lr}
     f50:	0d00000b 	stceq	0, cr0, [r0, #-44]
     f54:	1301012e 	movwne	r0, #4398	; 0x112e
     f58:	0e030c3f 	mcreq	12, 0, r0, cr3, cr15, {1}
     f5c:	0b3b0b3a 	bleq	ec3c4c <_start-0xa213c3b4>
     f60:	01110c27 	tsteq	r1, r7, lsr #24
     f64:	0a400112 	beq	10013b4 <_start-0xa1ffec4c>
     f68:	050e0000 	streq	r0, [lr]
     f6c:	3a0e0300 	bcc	381b74 <_start-0xa2c7e48c>
     f70:	490b3b0b 	stmmidb	fp, {r0, r1, r3, r8, r9, fp, ip, sp}
     f74:	000a0213 	andeq	r0, sl, r3, lsl r2
     f78:	00340f00 	eoreqs	r0, r4, r0, lsl #30
     f7c:	0b3a0e03 	bleq	e84790 <_start-0xa217b870>
     f80:	13490b3b 	movtne	r0, #39739	; 0x9b3b
     f84:	00000a02 	andeq	r0, r0, r2, lsl #20
     f88:	03003410 	movweq	r3, #1040	; 0x410
     f8c:	3b0b3a0e 	blcc	2cf7cc <_start-0xa2d30834>
     f90:	3f13490b 	svccc	0x0013490b
     f94:	000c3c0c 	andeq	r3, ip, ip, lsl #24
     f98:	00351100 	eoreqs	r1, r5, r0, lsl #2
     f9c:	00001349 	andeq	r1, r0, r9, asr #6
     fa0:	01110100 	tsteq	r1, r0, lsl #2
     fa4:	01120610 	tsteq	r2, r0, lsl r6
     fa8:	0e250111 	mcreq	1, 1, r0, cr5, cr1, {0}
     fac:	0e030b13 	vmoveq.32	d3[0], r0
     fb0:	16020000 	strne	r0, [r2], -r0
     fb4:	3a0e0300 	bcc	381bbc <_start-0xa2c7e444>
     fb8:	490b3b0b 	stmmidb	fp, {r0, r1, r3, r8, r9, fp, ip, sp}
     fbc:	03000013 	movweq	r0, #19	; 0x13
     fc0:	0e030024 	cdpeq	0, 0, cr0, cr3, cr4, {1}
     fc4:	0b3e0b0b 	bleq	f83bf8 <_start-0xa207c408>
     fc8:	24040000 	strcs	r0, [r4]
     fcc:	0b080300 	bleq	201bd4 <_start-0xa2dfe42c>
     fd0:	000b3e0b 	andeq	r3, fp, fp, lsl #28
     fd4:	01150500 	tsteq	r5, r0, lsl #10
     fd8:	0c271301 	stceq	3, cr1, [r7], #-4
     fdc:	05060000 	streq	r0, [r6]
     fe0:	00134900 	andeqs	r4, r3, r0, lsl #18
     fe4:	000f0700 	andeq	r0, pc, r0, lsl #14
     fe8:	00000b0b 	andeq	r0, r0, fp, lsl #22
     fec:	0b000f08 	bleq	4c14 <_start-0xa2ffb3ec>
     ff0:	0013490b 	andeqs	r4, r3, fp, lsl #18
     ff4:	01130900 	tsteq	r3, r0, lsl #18
     ff8:	0e031301 	cdpeq	3, 0, cr1, cr3, cr1, {0}
     ffc:	0b3a0b0b 	bleq	e83c30 <_start-0xa217c3d0>
    1000:	00000b3b 	andeq	r0, r0, fp, lsr fp
    1004:	03000d0a 	movweq	r0, #3338	; 0xd0a
    1008:	3b0b3a0e 	blcc	2cf848 <_start-0xa2d307b8>
    100c:	3813490b 	ldmccda	r3, {r0, r1, r3, r8, fp, lr}
    1010:	0b00000a 	bleq	1040 <_start-0xa2ffefc0>
    1014:	0803000d 	stmeqda	r3, {r0, r2, r3}
    1018:	0b3b0b3a 	bleq	ec3d08 <_start-0xa213c2f8>
    101c:	0a381349 	beq	e05d48 <_start-0xa21fa2b8>
    1020:	350c0000 	strcc	r0, [ip]
    1024:	00134900 	andeqs	r4, r3, r0, lsl #18
    1028:	01130d00 	tsteq	r3, r0, lsl #26
    102c:	08031301 	stmeqda	r3, {r0, r8, r9, ip}
    1030:	0b3a050b 	bleq	e82464 <_start-0xa217db9c>
    1034:	00000b3b 	andeq	r0, r0, fp, lsr fp
    1038:	0101010e 	tsteq	r1, lr, lsl #2
    103c:	00134913 	andeqs	r4, r3, r3, lsl r9
    1040:	00210f00 	eoreq	r0, r1, r0, lsl #30
    1044:	052f1349 	streq	r1, [pc, #-841]!	; d03 <_start-0xa2fff2fd>
    1048:	21100000 	tstcs	r0, r0
    104c:	00134900 	andeqs	r4, r3, r0, lsl #18
    1050:	012e1100 	teqeq	lr, r0, lsl #2
    1054:	0c3f1301 	ldceq	3, cr1, [pc], #-4
    1058:	0b3a0e03 	bleq	e8486c <_start-0xa217b794>
    105c:	0c270b3b 	stceq	11, cr0, [r7], #-236
    1060:	01120111 	tsteq	r2, r1, lsl r1
    1064:	00000a40 	andeq	r0, r0, r0, asr #20
    1068:	03000512 	movweq	r0, #1298	; 0x512
    106c:	3b0b3a0e 	blcc	2cf8ac <_start-0xa2d30754>
    1070:	0213490b 	andeqs	r4, r3, #180224	; 0x2c000
    1074:	1300000a 	movwne	r0, #10	; 0xa
    1078:	1301012e 	movwne	r0, #4398	; 0x112e
    107c:	0e030c3f 	mcreq	12, 0, r0, cr3, cr15, {1}
    1080:	0b3b0b3a 	bleq	ec3d70 <_start-0xa213c290>
    1084:	0b200c27 	bleq	804128 <_start-0xa27fbed8>
    1088:	34140000 	ldrcc	r0, [r4]
    108c:	3a0e0300 	bcc	381c94 <_start-0xa2c7e36c>
    1090:	490b3b0b 	stmmidb	fp, {r0, r1, r3, r8, r9, fp, ip, sp}
    1094:	15000013 	strne	r0, [r0, #-19]
    1098:	1301012e 	movwne	r0, #4398	; 0x112e
    109c:	0b3a0e03 	bleq	e848b0 <_start-0xa217b750>
    10a0:	0c270b3b 	stceq	11, cr0, [r7], #-236
    10a4:	01120111 	tsteq	r2, r1, lsl r1
    10a8:	00000a40 	andeq	r0, r0, r0, asr #20
    10ac:	31011d16 	tstcc	r1, r6, lsl sp
    10b0:	12011113 	andne	r1, r1, #-1073741820	; 0xc0000004
    10b4:	590b5801 	stmpldb	fp, {r0, fp, ip, lr}
    10b8:	1700000b 	strne	r0, [r0, -fp]
    10bc:	0111010b 	tsteq	r1, fp, lsl #2
    10c0:	00000112 	andeq	r0, r0, r2, lsl r1
    10c4:	31003418 	tstcc	r0, r8, lsl r4
    10c8:	00060213 	andeq	r0, r6, r3, lsl r2
    10cc:	012e1900 	teqeq	lr, r0, lsl #18
    10d0:	0c3f1301 	ldceq	3, cr1, [pc], #-4
    10d4:	0b3a0e03 	bleq	e848e8 <_start-0xa217b718>
    10d8:	0c270b3b 	stceq	11, cr0, [r7], #-236
    10dc:	01120111 	tsteq	r2, r1, lsl r1
    10e0:	00000640 	andeq	r0, r0, r0, asr #12
    10e4:	0300051a 	movweq	r0, #1306	; 0x51a
    10e8:	3b0b3a0e 	blcc	2cf928 <_start-0xa2d306d8>
    10ec:	0213490b 	andeqs	r4, r3, #180224	; 0x2c000
    10f0:	1b000006 	blne	1110 <_start-0xa2ffeef0>
    10f4:	08030034 	stmeqda	r3, {r2, r4, r5}
    10f8:	0b3b0b3a 	bleq	ec3de8 <_start-0xa213c218>
    10fc:	0a021349 	beq	85e28 <_start-0xa2f7a1d8>
    1100:	341c0000 	ldrcc	r0, [ip]
    1104:	3a0e0300 	bcc	381d0c <_start-0xa2c7e2f4>
    1108:	490b3b0b 	stmmidb	fp, {r0, r1, r3, r8, r9, fp, ip, sp}
    110c:	00060213 	andeq	r0, r6, r3, lsl r2
    1110:	00341d00 	eoreqs	r1, r4, r0, lsl #26
    1114:	0b3a0e03 	bleq	e84928 <_start-0xa217b6d8>
    1118:	13490b3b 	movtne	r0, #39739	; 0x9b3b
    111c:	0c3c0c3f 	ldceq	12, cr0, [ip], #-252
    1120:	211e0000 	tstcs	lr, r0
    1124:	2f134900 	svccs	0x00134900
    1128:	1f00000b 	svcne	0x0000000b
    112c:	0e030034 	mcreq	0, 0, r0, cr3, cr4, {1}
    1130:	0b3b0b3a 	bleq	ec3e20 <_start-0xa213c1e0>
    1134:	0c3f1349 	ldceq	3, cr1, [pc], #-292
    1138:	00000a02 	andeq	r0, r0, r2, lsl #20
    113c:	01110100 	tsteq	r1, r0, lsl #2
    1140:	01120610 	tsteq	r2, r0, lsl r6
    1144:	0e250111 	mcreq	1, 1, r0, cr5, cr1, {0}
    1148:	0e030b13 	vmoveq.32	d3[0], r0
    114c:	16020000 	strne	r0, [r2], -r0
    1150:	3a0e0300 	bcc	381d58 <_start-0xa2c7e2a8>
    1154:	490b3b0b 	stmmidb	fp, {r0, r1, r3, r8, r9, fp, ip, sp}
    1158:	03000013 	movweq	r0, #19	; 0x13
    115c:	0e030024 	cdpeq	0, 0, cr0, cr3, cr4, {1}
    1160:	0b3e0b0b 	bleq	f83d94 <_start-0xa207c26c>
    1164:	24040000 	strcs	r0, [r4]
    1168:	0b080300 	bleq	201d70 <_start-0xa2dfe290>
    116c:	000b3e0b 	andeq	r3, fp, fp, lsl #28
    1170:	000f0500 	andeq	r0, pc, r0, lsl #10
    1174:	13490b0b 	movtne	r0, #39691	; 0x9b0b
    1178:	15060000 	strne	r0, [r6]
    117c:	27130101 	ldrcs	r0, [r3, -r1, lsl #2]
    1180:	0700000c 	streq	r0, [r0, -ip]
    1184:	13490005 	movtne	r0, #36869	; 0x9005
    1188:	0f080000 	svceq	0x00080000
    118c:	000b0b00 	andeq	r0, fp, r0, lsl #22
    1190:	01130900 	tsteq	r3, r0, lsl #18
    1194:	0e031301 	cdpeq	3, 0, cr1, cr3, cr1, {0}
    1198:	0b3a0b0b 	bleq	e83dcc <_start-0xa217c234>
    119c:	00000b3b 	andeq	r0, r0, fp, lsr fp
    11a0:	03000d0a 	movweq	r0, #3338	; 0xd0a
    11a4:	3b0b3a0e 	blcc	2cf9e4 <_start-0xa2d3061c>
    11a8:	3813490b 	ldmccda	r3, {r0, r1, r3, r8, fp, lr}
    11ac:	0b00000a 	bleq	11dc <_start-0xa2ffee24>
    11b0:	0803000d 	stmeqda	r3, {r0, r2, r3}
    11b4:	0b3b0b3a 	bleq	ec3ea4 <_start-0xa213c15c>
    11b8:	0a381349 	beq	e05ee4 <_start-0xa21fa11c>
    11bc:	2e0c0000 	cdpcs	0, 0, cr0, cr12, cr0, {0}
    11c0:	3f130101 	svccc	0x00130101
    11c4:	3a0e030c 	bcc	381dfc <_start-0xa2c7e204>
    11c8:	270b3b0b 	strcs	r3, [fp, -fp, lsl #22]
    11cc:	1113490c 	tstne	r3, ip, lsl #18
    11d0:	40011201 	andmi	r1, r1, r1, lsl #4
    11d4:	0d00000a 	stceq	0, cr0, [r0, #-40]
    11d8:	0e030005 	cdpeq	0, 0, cr0, cr3, cr5, {0}
    11dc:	0b3b0b3a 	bleq	ec3ecc <_start-0xa213c134>
    11e0:	06021349 	streq	r1, [r2], -r9, asr #6
    11e4:	050e0000 	streq	r0, [lr]
    11e8:	3a0e0300 	bcc	381df0 <_start-0xa2c7e210>
    11ec:	490b3b0b 	stmmidb	fp, {r0, r1, r3, r8, r9, fp, ip, sp}
    11f0:	000a0213 	andeq	r0, sl, r3, lsl r2
    11f4:	11010000 	tstne	r1, r0
    11f8:	12061001 	andne	r1, r6, #1	; 0x1
    11fc:	25011101 	strcs	r1, [r1, #-257]
    1200:	030b130e 	movweq	r1, #45838	; 0xb30e
    1204:	0200000e 	andeq	r0, r0, #14	; 0xe
    1208:	0e030024 	cdpeq	0, 0, cr0, cr3, cr4, {1}
    120c:	0b3e0b0b 	bleq	f83e40 <_start-0xa207c1c0>
    1210:	24030000 	strcs	r0, [r3]
    1214:	0b080300 	bleq	201e1c <_start-0xa2dfe1e4>
    1218:	000b3e0b 	andeq	r3, fp, fp, lsl #28
    121c:	00160400 	andeqs	r0, r6, r0, lsl #8
    1220:	0b3a0e03 	bleq	e84a34 <_start-0xa217b5cc>
    1224:	13490b3b 	movtne	r0, #39739	; 0x9b3b
    1228:	0f050000 	svceq	0x00050000
    122c:	000b0b00 	andeq	r0, fp, r0, lsl #22
    1230:	01130600 	tsteq	r3, r0, lsl #12
    1234:	0e031301 	cdpeq	3, 0, cr1, cr3, cr1, {0}
    1238:	0b3a0b0b 	bleq	e83e6c <_start-0xa217c194>
    123c:	00000b3b 	andeq	r0, r0, fp, lsr fp
    1240:	03000d07 	movweq	r0, #3335	; 0xd07
    1244:	3b0b3a08 	blcc	2cfa6c <_start-0xa2d30594>
    1248:	3813490b 	ldmccda	r3, {r0, r1, r3, r8, fp, lr}
    124c:	0800000a 	stmeqda	r0, {r1, r3}
    1250:	13490035 	movtne	r0, #36917	; 0x9035
    1254:	13090000 	movwne	r0, #36864	; 0x9000
    1258:	03130101 	tsteq	r3, #1073741824	; 0x40000000
    125c:	3a050b08 	bcc	143e84 <_start-0xa2ebc17c>
    1260:	000b3b0b 	andeq	r3, fp, fp, lsl #22
    1264:	000d0a00 	andeq	r0, sp, r0, lsl #20
    1268:	0b3a0e03 	bleq	e84a7c <_start-0xa217b584>
    126c:	13490b3b 	movtne	r0, #39739	; 0x9b3b
    1270:	00000a38 	andeq	r0, r0, r8, lsr sl
    1274:	0b000f0b 	bleq	4ea8 <_start-0xa2ffb158>
    1278:	0013490b 	andeqs	r4, r3, fp, lsl #18
    127c:	01010c00 	tsteq	r1, r0, lsl #24
    1280:	13491301 	movtne	r1, #37633	; 0x9301
    1284:	210d0000 	tstcs	sp, r0
    1288:	2f134900 	svccs	0x00134900
    128c:	0e000005 	cdpeq	0, 0, cr0, cr0, cr5, {0}
    1290:	13490021 	movtne	r0, #36897	; 0x9021
    1294:	2e0f0000 	cdpcs	0, 0, cr0, cr15, cr0, {0}
    1298:	030c3f00 	movweq	r3, #52992	; 0xcf00
    129c:	3b0b3a0e 	blcc	2cfadc <_start-0xa2d30524>
    12a0:	490c270b 	stmmidb	ip, {r0, r1, r3, r8, r9, sl, sp}
    12a4:	12011113 	andne	r1, r1, #-1073741820	; 0xc0000004
    12a8:	000a4001 	andeq	r4, sl, r1
    12ac:	012e1000 	teqeq	lr, r0
    12b0:	0c3f1301 	ldceq	3, cr1, [pc], #-4
    12b4:	0b3a0e03 	bleq	e84ac8 <_start-0xa217b538>
    12b8:	0c270b3b 	stceq	11, cr0, [r7], #-236
    12bc:	01120111 	tsteq	r2, r1, lsl r1
    12c0:	00000a40 	andeq	r0, r0, r0, asr #20
    12c4:	03000511 	movweq	r0, #1297	; 0x511
    12c8:	3b0b3a0e 	blcc	2cfb08 <_start-0xa2d304f8>
    12cc:	0213490b 	andeqs	r4, r3, #180224	; 0x2c000
    12d0:	12000006 	andne	r0, r0, #6	; 0x6
    12d4:	1301012e 	movwne	r0, #4398	; 0x112e
    12d8:	0e030c3f 	mcreq	12, 0, r0, cr3, cr15, {1}
    12dc:	0b3b0b3a 	bleq	ec3fcc <_start-0xa213c034>
    12e0:	01110c27 	tsteq	r1, r7, lsr #24
    12e4:	06400112 	undefined
    12e8:	34130000 	ldrcc	r0, [r3]
    12ec:	3a0e0300 	bcc	381ef4 <_start-0xa2c7e10c>
    12f0:	490b3b0b 	stmmidb	fp, {r0, r1, r3, r8, r9, fp, ip, sp}
    12f4:	000a0213 	andeq	r0, sl, r3, lsl r2
    12f8:	00341400 	eoreqs	r1, r4, r0, lsl #8
    12fc:	0b3a0e03 	bleq	e84b10 <_start-0xa217b4f0>
    1300:	13490b3b 	movtne	r0, #39739	; 0x9b3b
    1304:	34150000 	ldrcc	r0, [r5]
    1308:	3a0e0300 	bcc	381f10 <_start-0xa2c7e0f0>
    130c:	490b3b0b 	stmmidb	fp, {r0, r1, r3, r8, r9, fp, ip, sp}
    1310:	3c0c3f13 	stccc	15, cr3, [ip], {19}
    1314:	0000000c 	andeq	r0, r0, ip
    1318:	10001101 	andne	r1, r0, r1, lsl #2
    131c:	12011106 	andne	r1, r1, #-2147483647	; 0x80000001
    1320:	1b080301 	blne	201f2c <_start-0xa2dfe0d4>
    1324:	13082508 	movwne	r2, #34056	; 0x8508
    1328:	00000005 	andeq	r0, r0, r5
    132c:	10011101 	andne	r1, r1, r1, lsl #2
    1330:	11011206 	tstne	r1, r6, lsl #4
    1334:	130e2501 	movwne	r2, #58625	; 0xe501
    1338:	000e030b 	andeq	r0, lr, fp, lsl #6
    133c:	00240200 	eoreq	r0, r4, r0, lsl #4
    1340:	0b0b0e03 	bleq	2c4b54 <_start-0xa2d3b4ac>
    1344:	00000b3e 	andeq	r0, r0, lr, lsr fp
    1348:	03002403 	movweq	r2, #1027	; 0x403
    134c:	3e0b0b08 	fmacdcc	d0, d11, d8
    1350:	0400000b 	streq	r0, [r0], #-11
    1354:	0e030016 	mcreq	0, 0, r0, cr3, cr6, {0}
    1358:	0b3b0b3a 	bleq	ec4048 <_start-0xa213bfb8>
    135c:	00001349 	andeq	r1, r0, r9, asr #6
    1360:	0b000f05 	bleq	4f7c <_start-0xa2ffb084>
    1364:	0600000b 	streq	r0, [r0], -fp
    1368:	13010113 	movwne	r0, #4371	; 0x1113
    136c:	0b0b0e03 	bleq	2c4b80 <_start-0xa2d3b480>
    1370:	0b3b0b3a 	bleq	ec4060 <_start-0xa213bfa0>
    1374:	0d070000 	stceq	0, cr0, [r7]
    1378:	3a080300 	bcc	201f80 <_start-0xa2dfe080>
    137c:	490b3b0b 	stmmidb	fp, {r0, r1, r3, r8, r9, fp, ip, sp}
    1380:	000a3813 	andeq	r3, sl, r3, lsl r8
    1384:	00350800 	eoreqs	r0, r5, r0, lsl #16
    1388:	00001349 	andeq	r1, r0, r9, asr #6
    138c:	01011309 	tsteq	r1, r9, lsl #6
    1390:	0b080313 	bleq	201fe4 <_start-0xa2dfe01c>
    1394:	3b0b3a05 	blcc	2cfbb0 <_start-0xa2d30450>
    1398:	0a00000b 	beq	13cc <_start-0xa2ffec34>
    139c:	0e03000d 	cdpeq	0, 0, cr0, cr3, cr13, {0}
    13a0:	0b3b0b3a 	bleq	ec4090 <_start-0xa213bf70>
    13a4:	0a381349 	beq	e060d0 <_start-0xa21f9f30>
    13a8:	0f0b0000 	svceq	0x000b0000
    13ac:	490b0b00 	stmmidb	fp, {r8, r9, fp}
    13b0:	0c000013 	stceq	0, cr0, [r0], {19}
    13b4:	13010101 	movwne	r0, #4353	; 0x1101
    13b8:	00001349 	andeq	r1, r0, r9, asr #6
    13bc:	4900210d 	stmmidb	r0, {r0, r2, r3, r8, sp}
    13c0:	00052f13 	andeq	r2, r5, r3, lsl pc
    13c4:	00210e00 	eoreq	r0, r1, r0, lsl #28
    13c8:	00001349 	andeq	r1, r0, r9, asr #6
    13cc:	01012e0f 	tsteq	r1, pc, lsl #28
    13d0:	030c3f13 	movweq	r3, #53011	; 0xcf13
    13d4:	3b0b3a0e 	blcc	2cfc14 <_start-0xa2d303ec>
    13d8:	110c270b 	tstne	ip, fp, lsl #14
    13dc:	40011201 	andmi	r1, r1, r1, lsl #4
    13e0:	1000000a 	andne	r0, r0, sl
    13e4:	08030034 	stmeqda	r3, {r2, r4, r5}
    13e8:	0b3b0b3a 	bleq	ec40d8 <_start-0xa213bf28>
    13ec:	00001349 	andeq	r1, r0, r9, asr #6
    13f0:	01012e11 	tsteq	r1, r1, lsl lr
    13f4:	030c3f13 	movweq	r3, #53011	; 0xcf13
    13f8:	3b0b3a0e 	blcc	2cfc38 <_start-0xa2d303c8>
    13fc:	490c270b 	stmmidb	ip, {r0, r1, r3, r8, r9, sl, sp}
    1400:	12011113 	andne	r1, r1, #-1073741820	; 0xc0000004
    1404:	000a4001 	andeq	r4, sl, r1
    1408:	00341200 	eoreqs	r1, r4, r0, lsl #4
    140c:	0b3a0803 	bleq	e83420 <_start-0xa217cbe0>
    1410:	13490b3b 	movtne	r0, #39739	; 0x9b3b
    1414:	00000a02 	andeq	r0, r0, r2, lsl #20
    1418:	01012e13 	tsteq	r1, r3, lsl lr
    141c:	030c3f13 	movweq	r3, #53011	; 0xcf13
    1420:	3b0b3a0e 	blcc	2cfc60 <_start-0xa2d303a0>
    1424:	490c270b 	stmmidb	ip, {r0, r1, r3, r8, r9, sl, sp}
    1428:	12011113 	andne	r1, r1, #-1073741820	; 0xc0000004
    142c:	00064001 	andeq	r4, r6, r1
    1430:	00051400 	andeq	r1, r5, r0, lsl #8
    1434:	0b3a0e03 	bleq	e84c48 <_start-0xa217b3b8>
    1438:	13490b3b 	movtne	r0, #39739	; 0x9b3b
    143c:	00000602 	andeq	r0, r0, r2, lsl #12
    1440:	03003415 	movweq	r3, #1045	; 0x415
    1444:	3b0b3a0e 	blcc	2cfc84 <_start-0xa2d3037c>
    1448:	0213490b 	andeqs	r4, r3, #180224	; 0x2c000
    144c:	16000006 	strne	r0, [r0], -r6
    1450:	1301012e 	movwne	r0, #4398	; 0x112e
    1454:	0e030c3f 	mcreq	12, 0, r0, cr3, cr15, {1}
    1458:	0b3b0b3a 	bleq	ec4148 <_start-0xa213beb8>
    145c:	01110c27 	tsteq	r1, r7, lsr #24
    1460:	06400112 	undefined
    1464:	05170000 	ldreq	r0, [r7]
    1468:	3a080300 	bcc	202070 <_start-0xa2dfdf90>
    146c:	490b3b0b 	stmmidb	fp, {r0, r1, r3, r8, r9, fp, ip, sp}
    1470:	00060213 	andeq	r0, r6, r3, lsl r2
    1474:	00211800 	eoreq	r1, r1, r0, lsl #16
    1478:	0b2f1349 	bleq	bc61a4 <_start-0xa2439e5c>
    147c:	34190000 	ldrcc	r0, [r9]
    1480:	3a0e0300 	bcc	382088 <_start-0xa2c7df78>
    1484:	490b3b0b 	stmmidb	fp, {r0, r1, r3, r8, r9, fp, ip, sp}
    1488:	000a0213 	andeq	r0, sl, r3, lsl r2
    148c:	00261a00 	eoreq	r1, r6, r0, lsl #20
    1490:	00001349 	andeq	r1, r0, r9, asr #6
    1494:	0300341b 	movweq	r3, #1051	; 0x41b
    1498:	3b0b3a0e 	blcc	2cfcd8 <_start-0xa2d30328>
    149c:	3f13490b 	svccc	0x0013490b
    14a0:	000c3c0c 	andeq	r3, ip, ip, lsl #24
    14a4:	11010000 	tstne	r1, r0
    14a8:	12061001 	andne	r1, r6, #1	; 0x1
    14ac:	25011101 	strcs	r1, [r1, #-257]
    14b0:	030b130e 	movweq	r1, #45838	; 0xb30e
    14b4:	0200000e 	andeq	r0, r0, #14	; 0xe
    14b8:	13010104 	movwne	r0, #4356	; 0x1104
    14bc:	0b0b0e03 	bleq	2c4cd0 <_start-0xa2d3b330>
    14c0:	0b3b0b3a 	bleq	ec41b0 <_start-0xa213be50>
    14c4:	28030000 	stmcsda	r3, {}
    14c8:	1c0e0300 	stcne	3, cr0, [lr], {0}
    14cc:	0400000d 	streq	r0, [r0], #-13
    14d0:	0e030016 	mcreq	0, 0, r0, cr3, cr6, {0}
    14d4:	0b3b0b3a 	bleq	ec41c4 <_start-0xa213be3c>
    14d8:	00001349 	andeq	r1, r0, r9, asr #6
    14dc:	03002405 	movweq	r2, #1029	; 0x405
    14e0:	3e0b0b0e 	fmacdcc	d0, d11, d14
    14e4:	0600000b 	streq	r0, [r0], -fp
    14e8:	08030024 	stmeqda	r3, {r2, r5}
    14ec:	0b3e0b0b 	bleq	f84120 <_start-0xa207bee0>
    14f0:	0f070000 	svceq	0x00070000
    14f4:	000b0b00 	andeq	r0, fp, r0, lsl #22
    14f8:	01130800 	tsteq	r3, r0, lsl #16
    14fc:	0e031301 	cdpeq	3, 0, cr1, cr3, cr1, {0}
    1500:	0b3a0b0b 	bleq	e84134 <_start-0xa217becc>
    1504:	00000b3b 	andeq	r0, r0, fp, lsr fp
    1508:	03000d09 	movweq	r0, #3337	; 0xd09
    150c:	3b0b3a08 	blcc	2cfd34 <_start-0xa2d302cc>
    1510:	3813490b 	ldmccda	r3, {r0, r1, r3, r8, fp, lr}
    1514:	0a00000a 	beq	1544 <_start-0xa2ffeabc>
    1518:	13490035 	movtne	r0, #36917	; 0x9035
    151c:	130b0000 	movwne	r0, #45056	; 0xb000
    1520:	03130101 	tsteq	r3, #1073741824	; 0x40000000
    1524:	3a050b08 	bcc	14414c <_start-0xa2ebbeb4>
    1528:	000b3b0b 	andeq	r3, fp, fp, lsl #22
    152c:	000d0c00 	andeq	r0, sp, r0, lsl #24
    1530:	0b3a0e03 	bleq	e84d44 <_start-0xa217b2bc>
    1534:	13490b3b 	movtne	r0, #39739	; 0x9b3b
    1538:	00000a38 	andeq	r0, r0, r8, lsr sl
    153c:	0b000f0d 	bleq	5178 <_start-0xa2ffae88>
    1540:	0013490b 	andeqs	r4, r3, fp, lsl #18
    1544:	01010e00 	tsteq	r1, r0, lsl #28
    1548:	13491301 	movtne	r1, #37633	; 0x9301
    154c:	210f0000 	mrscs	r0, CPSR
    1550:	2f134900 	svccs	0x00134900
    1554:	10000005 	andne	r0, r0, r5
    1558:	13490021 	movtne	r0, #36897	; 0x9021
    155c:	2e110000 	wxorcs	wr0, wr1, wr0
    1560:	3f130101 	svccc	0x00130101
    1564:	3a0e030c 	bcc	38219c <_start-0xa2c7de64>
    1568:	270b3b0b 	strcs	r3, [fp, -fp, lsl #22]
    156c:	000b200c 	andeq	r2, fp, ip
    1570:	00341200 	eoreqs	r1, r4, r0, lsl #4
    1574:	0b3a0e03 	bleq	e84d88 <_start-0xa217b278>
    1578:	13490b3b 	movtne	r0, #39739	; 0x9b3b
    157c:	2e130000 	wxorcs	wr0, wr3, wr0
    1580:	3f130101 	svccc	0x00130101
    1584:	3a0e030c 	bcc	3821bc <_start-0xa2c7de44>
    1588:	270b3b0b 	strcs	r3, [fp, -fp, lsl #22]
    158c:	1113490c 	tstne	r3, ip, lsl #18
    1590:	40011201 	andmi	r1, r1, r1, lsl #4
    1594:	14000006 	strne	r0, [r0], #-6
    1598:	0e030005 	cdpeq	0, 0, cr0, cr3, cr5, {0}
    159c:	0b3b0b3a 	bleq	ec428c <_start-0xa213bd74>
    15a0:	06021349 	streq	r1, [r2], -r9, asr #6
    15a4:	1d150000 	ldcne	0, cr0, [r5]
    15a8:	31130101 	tstcc	r3, r1, lsl #2
    15ac:	12011113 	andne	r1, r1, #-1073741820	; 0xc0000004
    15b0:	590b5801 	stmpldb	fp, {r0, fp, ip, lr}
    15b4:	1600000b 	strne	r0, [r0], -fp
    15b8:	0111010b 	tsteq	r1, fp, lsl #2
    15bc:	00000112 	andeq	r0, r0, r2, lsl r1
    15c0:	31003417 	tstcc	r0, r7, lsl r4
    15c4:	00060213 	andeq	r0, r6, r3, lsl r2
    15c8:	010b1800 	tsteq	fp, r0, lsl #16
    15cc:	01111301 	tsteq	r1, r1, lsl #6
    15d0:	00000112 	andeq	r0, r0, r2, lsl r1
    15d4:	03003419 	movweq	r3, #1049	; 0x419
    15d8:	3b0b3a08 	blcc	2cfe00 <_start-0xa2d30200>
    15dc:	0213490b 	andeqs	r4, r3, #180224	; 0x2c000
    15e0:	1a000006 	bne	1600 <_start-0xa2ffea00>
    15e4:	1331011d 	teqne	r1, #1073741831	; 0x40000007
    15e8:	01120111 	tsteq	r2, r1, lsl r1
    15ec:	05590b58 	ldreqb	r0, [r9, #-2904]
    15f0:	2e1b0000 	wxorcs	wr0, wr11, wr0
    15f4:	3f130101 	svccc	0x00130101
    15f8:	3a0e030c 	bcc	382230 <_start-0xa2c7ddd0>
    15fc:	270b3b0b 	strcs	r3, [fp, -fp, lsl #22]
    1600:	1201110c 	andne	r1, r1, #3	; 0x3
    1604:	00064001 	andeq	r4, r6, r1
    1608:	011d1c00 	tsteq	sp, r0, lsl #24
    160c:	01111331 	tsteq	r1, r1, lsr r3
    1610:	0b580112 	bleq	1601a60 <_start-0xa19fe5a0>
    1614:	00000b59 	andeq	r0, r0, r9, asr fp
    1618:	0300341d 	movweq	r3, #1053	; 0x41d
    161c:	3b0b3a0e 	blcc	2cfe5c <_start-0xa2d301a4>
    1620:	3f13490b 	svccc	0x0013490b
    1624:	000c3c0c 	andeq	r3, ip, ip, lsl #24
    1628:	00211e00 	eoreq	r1, r1, r0, lsl #28
    162c:	0b2f1349 	bleq	bc6358 <_start-0xa2439ca8>
    1630:	341f0000 	ldrcc	r0, [pc], #0	; 1638 <_start-0xa2ffe9c8>
    1634:	3a0e0300 	bcc	38223c <_start-0xa2c7ddc4>
    1638:	490b3b0b 	stmmidb	fp, {r0, r1, r3, r8, r9, fp, ip, sp}
    163c:	020c3f13 	andeq	r3, ip, #76	; 0x4c
    1640:	0000000a 	andeq	r0, r0, sl
    1644:	10011101 	andne	r1, r1, r1, lsl #2
    1648:	11011206 	tstne	r1, r6, lsl #4
    164c:	130e2501 	movwne	r2, #58625	; 0xe501
    1650:	000e030b 	andeq	r0, lr, fp, lsl #6
    1654:	00240200 	eoreq	r0, r4, r0, lsl #4
    1658:	0b0b0e03 	bleq	2c4e6c <_start-0xa2d3b194>
    165c:	00000b3e 	andeq	r0, r0, lr, lsr fp
    1660:	03002403 	movweq	r2, #1027	; 0x403
    1664:	3e0b0b08 	fmacdcc	d0, d11, d8
    1668:	0400000b 	streq	r0, [r0], #-11
    166c:	0e03002e 	cdpeq	0, 0, cr0, cr3, cr14, {1}
    1670:	0b3b0b3a 	bleq	ec4360 <_start-0xa213bca0>
    1674:	01110c27 	tsteq	r1, r7, lsr #24
    1678:	0a400112 	beq	1001ac8 <_start-0xa1ffe538>
    167c:	2e050000 	cdpcs	0, 0, cr0, cr5, cr0, {0}
    1680:	3f130101 	svccc	0x00130101
    1684:	3a0e030c 	bcc	3822bc <_start-0xa2c7dd44>
    1688:	270b3b0b 	strcs	r3, [fp, -fp, lsl #22]
    168c:	1201110c 	andne	r1, r1, #3	; 0x3
    1690:	000a4001 	andeq	r4, sl, r1
    1694:	00340600 	eoreqs	r0, r4, r0, lsl #12
    1698:	0b3a0803 	bleq	e836ac <_start-0xa217c954>
    169c:	13490b3b 	movtne	r0, #39739	; 0x9b3b
    16a0:	00000a02 	andeq	r0, r0, r2, lsl #20
    16a4:	0b000f07 	bleq	52c8 <_start-0xa2ffad38>
    16a8:	0013490b 	andeqs	r4, r3, fp, lsl #18
    16ac:	00340800 	eoreqs	r0, r4, r0, lsl #16
    16b0:	0b3a0e03 	bleq	e84ec4 <_start-0xa217b13c>
    16b4:	13490b3b 	movtne	r0, #39739	; 0x9b3b
    16b8:	0c3c0c3f 	ldceq	12, cr0, [ip], #-252
    16bc:	Address 0x000016bc is out of bounds.

Disassembly of section .debug_line:

00000000 <.debug_line>:
       0:	00000034 	andeq	r0, r0, r4, lsr r0
       4:	001e0002 	andeqs	r0, lr, r2
       8:	01020000 	tsteq	r2, r0
       c:	000d0efb 	streqd	r0, [sp], -fp
      10:	01010101 	tsteq	r1, r1, lsl #2
      14:	01000000 	tsteq	r0, r0
      18:	00010000 	andeq	r0, r1, r0
      1c:	72617473 	rsbvc	r7, r1, #1929379840	; 0x73000000
      20:	00532e74 	subeqs	r2, r3, r4, ror lr
      24:	00000000 	andeq	r0, r0, r0
      28:	00020500 	andeq	r0, r2, r0, lsl #10
      2c:	03a30000 	moveq	r0, #0	; 0x0
      30:	022f0118 	eoreq	r0, pc, #6	; 0x6
      34:	01010002 	tsteq	r1, r2
      38:	00000121 	andeq	r0, r0, r1, lsr #2
      3c:	00f50002 	rsceqs	r0, r5, r2
      40:	01020000 	tsteq	r2, r0
      44:	000d0efb 	streqd	r0, [sp], -fp
      48:	01010101 	tsteq	r1, r1, lsl #2
      4c:	01000000 	tsteq	r0, r0
      50:	2f010000 	svccs	0x00010000
      54:	656d6f68 	strvsb	r6, [sp, #-3944]!
      58:	62616a2f 	rsbvs	r6, r1, #192512	; 0x2f000
      5c:	442f7461 	strmit	r7, [pc], #1121	; 64 <_start-0xa2ffff9c>
      60:	6d75636f 	ldcvsl	3, cr6, [r5, #-444]!
      64:	73746e65 	cmnvc	r4, #1616	; 0x650
      68:	626d652f 	rsbvs	r6, sp, #197132288	; 0xbc00000
      6c:	65646465 	strvsb	r6, [r4, #-1125]!
      70:	616c5f64 	cmnvs	ip, r4, ror #30
      74:	6c2f7362 	stcvs	3, cr7, [pc], #-392
      78:	2f346261 	svccs	0x00346261
      7c:	6e72656b 	cdpvs	5, 7, cr6, cr2, cr11, {3}
      80:	2f006c65 	svccs	0x00006c65
      84:	656d6f68 	strvsb	r6, [sp, #-3944]!
      88:	62616a2f 	rsbvs	r6, r1, #192512	; 0x2f000
      8c:	442f7461 	strmit	r7, [pc], #1121	; 94 <_start-0xa2ffff6c>
      90:	6d75636f 	ldcvsl	3, cr6, [r5, #-444]!
      94:	73746e65 	cmnvc	r4, #1616	; 0x650
      98:	626d652f 	rsbvs	r6, sp, #197132288	; 0xbc00000
      9c:	65646465 	strvsb	r6, [r4, #-1125]!
      a0:	616c5f64 	cmnvs	ip, r4, ror #30
      a4:	6c2f7362 	stcvs	3, cr7, [pc], #-392
      a8:	2f346261 	svccs	0x00346261
      ac:	6e72656b 	cdpvs	5, 7, cr6, cr2, cr11, {3}
      b0:	692f6c65 	stmvsdb	pc!, {r0, r2, r5, r6, sl, fp, sp, lr}
      b4:	756c636e 	strvcb	r6, [ip, #-878]!
      b8:	612f6564 	teqvs	pc, r4, ror #10
      bc:	2f006d72 	svccs	0x00006d72
      c0:	656d6f68 	strvsb	r6, [sp, #-3944]!
      c4:	62616a2f 	rsbvs	r6, r1, #192512	; 0x2f000
      c8:	442f7461 	strmit	r7, [pc], #1121	; d0 <_start-0xa2ffff30>
      cc:	6d75636f 	ldcvsl	3, cr6, [r5, #-444]!
      d0:	73746e65 	cmnvc	r4, #1616	; 0x650
      d4:	626d652f 	rsbvs	r6, sp, #197132288	; 0xbc00000
      d8:	65646465 	strvsb	r6, [r4, #-1125]!
      dc:	616c5f64 	cmnvs	ip, r4, ror #30
      e0:	6c2f7362 	stcvs	3, cr7, [pc], #-392
      e4:	2f346261 	svccs	0x00346261
      e8:	6e72656b 	cdpvs	5, 7, cr6, cr2, cr11, {3}
      ec:	692f6c65 	stmvsdb	pc!, {r0, r2, r5, r6, sl, fp, sp, lr}
      f0:	756c636e 	strvcb	r6, [ip, #-878]!
      f4:	00006564 	andeq	r6, r0, r4, ror #10
      f8:	65737361 	ldrvsb	r7, [r3, #-865]!
      fc:	632e7472 	teqvs	lr, #1912602624	; 0x72000000
     100:	00000100 	andeq	r0, r0, r0, lsl #2
     104:	65637865 	strvsb	r7, [r3, #-2149]!
     108:	6f697470 	svcvs	0x00697470
     10c:	00682e6e 	rsbeq	r2, r8, lr, ror #28
     110:	61000002 	tstvs	r0, r2
     114:	72657373 	rsbvc	r7, r5, #-872415231	; 0xcc000001
     118:	00682e74 	rsbeq	r2, r8, r4, ror lr
     11c:	74000003 	strvc	r0, [r0], #-3
     120:	73657079 	cmnvc	r5, #121	; 0x79
     124:	0300682e 	movweq	r6, #2094	; 0x82e
     128:	74730000 	ldrvcbt	r0, [r3]
     12c:	67726164 	ldrvsb	r6, [r2, -r4, ror #2]!
     130:	0300682e 	movweq	r6, #2094	; 0x82e
     134:	00000000 	andeq	r0, r0, r0
     138:	00080205 	andeq	r0, r8, r5, lsl #4
     13c:	2003a300 	andcs	sl, r3, r0, lsl #6
     140:	4b2d2f01 	blmi	b4bd4c <_start-0xa24b42b4>
     144:	837a0868 	cmnhi	sl, #6815744	; 0x680000
     148:	5a03dca4 	bpl	f73e0 <_start-0xa2f08c20>
     14c:	314d3c08 	cmpcc	sp, r8, lsl #24
     150:	0204312b 	andeq	r3, r4, #-1073741814	; 0xc000000a
     154:	302e2c03 	eorcc	r2, lr, r3, lsl #24
     158:	01000802 	tsteq	r0, r2, lsl #16
     15c:	0000d201 	andeq	sp, r0, r1, lsl #4
     160:	90000200 	andls	r0, r0, r0, lsl #4
     164:	02000000 	andeq	r0, r0, #0	; 0x0
     168:	0d0efb01 	vstreq	d15, [lr, #-4]
     16c:	01010100 	tsteq	r1, r0, lsl #2
     170:	00000001 	andeq	r0, r0, r1
     174:	01000001 	tsteq	r0, r1
     178:	6d6f682f 	stcvsl	8, cr6, [pc, #-188]!
     17c:	616a2f65 	cmnvs	sl, r5, ror #30
     180:	2f746162 	svccs	0x00746162
     184:	75636f44 	strvcb	r6, [r3, #-3908]!
     188:	746e656d 	strvcbt	r6, [lr], #-1389
     18c:	6d652f73 	stcvsl	15, cr2, [r5, #-460]!
     190:	64646562 	strvsbt	r6, [r4], #-1378
     194:	6c5f6465 	cfldrdvs	mvd6, [pc], {101}
     198:	2f736261 	svccs	0x00736261
     19c:	3462616c 	strccbt	r6, [r2], #-364
     1a0:	72656b2f 	rsbvc	r6, r5, #48128	; 0xbc00
     1a4:	006c656e 	rsbeq	r6, ip, lr, ror #10
     1a8:	6d6f682f 	stcvsl	8, cr6, [pc, #-188]!
     1ac:	616a2f65 	cmnvs	sl, r5, ror #30
     1b0:	2f746162 	svccs	0x00746162
     1b4:	75636f44 	strvcb	r6, [r3, #-3908]!
     1b8:	746e656d 	strvcbt	r6, [lr], #-1389
     1bc:	6d652f73 	stcvsl	15, cr2, [r5, #-460]!
     1c0:	64646562 	strvsbt	r6, [r4], #-1378
     1c4:	6c5f6465 	cfldrdvs	mvd6, [pc], {101}
     1c8:	2f736261 	svccs	0x00736261
     1cc:	3462616c 	strccbt	r6, [r2], #-364
     1d0:	72656b2f 	rsbvc	r6, r5, #48128	; 0xbc00
     1d4:	2f6c656e 	svccs	0x006c656e
     1d8:	6c636e69 	stcvsl	14, cr6, [r3], #-420
     1dc:	00656475 	rsbeq	r6, r5, r5, ror r4
     1e0:	69616d00 	stmvsdb	r1!, {r8, sl, fp, sp, lr}^
     1e4:	00632e6e 	rsbeq	r2, r3, lr, ror #28
     1e8:	74000001 	strvc	r0, [r0], #-1
     1ec:	73657079 	cmnvc	r5, #121	; 0x79
     1f0:	0200682e 	andeq	r6, r0, #3014656	; 0x2e0000
     1f4:	00000000 	andeq	r0, r0, r0
     1f8:	00e80205 	rsceq	r0, r8, r5, lsl #4
     1fc:	2603a300 	strcs	sl, [r3], -r0, lsl #6
     200:	4b2d2f01 	blmi	b4be0c <_start-0xa24b41f4>
     204:	4c4b2f2d 	mcrrmi	15, 2, r2, fp, cr13
     208:	2f4d4732 	svccs	0x004d4732
     20c:	4c67884d 	stcmil	8, cr8, [r7], #-308
     210:	4c67312f 	stfmie	f3, [r7], #-188
     214:	4d67a483 	cfstrdmi	mvd10, [r7, #-524]!
     218:	4c676d83 	stcmil	13, cr6, [r7], #-524
     21c:	a24d672f 	subge	r6, sp, #12320768	; 0xbc0000
     220:	684b6731 	stmvsda	fp, {r0, r4, r5, r8, r9, sl, sp, lr}^
     224:	4b4b302c 	blmi	12cc2dc <_start-0xa1d33d24>
     228:	304b6730 	subcc	r6, fp, r0, lsr r7
     22c:	22025067 	andcs	r5, r2, #103	; 0x67
     230:	b0010100 	andlt	r0, r1, r0, lsl #2
     234:	02000000 	andeq	r0, r0, #0	; 0x0
     238:	00009000 	andeq	r9, r0, r0
     23c:	fb010200 	blx	40a46 <_start-0xa2fbf5ba>
     240:	01000d0e 	tsteq	r0, lr, lsl #26
     244:	00010101 	andeq	r0, r1, r1, lsl #2
     248:	00010000 	andeq	r0, r1, r0
     24c:	682f0100 	stmvsda	pc!, {r8}
     250:	2f656d6f 	svccs	0x00656d6f
     254:	6162616a 	cmnvs	r2, sl, ror #2
     258:	6f442f74 	svcvs	0x00442f74
     25c:	656d7563 	strvsb	r7, [sp, #-1379]!
     260:	2f73746e 	svccs	0x0073746e
     264:	65626d65 	strvsb	r6, [r2, #-3429]!
     268:	64656464 	strvsbt	r6, [r5], #-1124
     26c:	62616c5f 	rsbvs	r6, r1, #24320	; 0x5f00
     270:	616c2f73 	smcvs	49907
     274:	6b2f3462 	blvs	bcd404 <_start-0xa2432bfc>
     278:	656e7265 	strvsb	r7, [lr, #-613]!
     27c:	682f006c 	stmvsda	pc!, {r2, r3, r5, r6}
     280:	2f656d6f 	svccs	0x00656d6f
     284:	6162616a 	cmnvs	r2, sl, ror #2
     288:	6f442f74 	svcvs	0x00442f74
     28c:	656d7563 	strvsb	r7, [sp, #-1379]!
     290:	2f73746e 	svccs	0x0073746e
     294:	65626d65 	strvsb	r6, [r2, #-3429]!
     298:	64656464 	strvsbt	r6, [r5], #-1124
     29c:	62616c5f 	rsbvs	r6, r1, #24320	; 0x5f00
     2a0:	616c2f73 	smcvs	49907
     2a4:	6b2f3462 	blvs	bcd434 <_start-0xa2432bcc>
     2a8:	656e7265 	strvsb	r7, [lr, #-613]!
     2ac:	6e692f6c 	cdpvs	15, 6, cr2, cr9, cr12, {3}
     2b0:	64756c63 	ldrvsbt	r6, [r5], #-3171
     2b4:	6d000065 	stcvs	0, cr0, [r0, #-404]
     2b8:	2e687461 	cdpcs	4, 6, cr7, cr8, cr1, {3}
     2bc:	00010063 	andeq	r0, r1, r3, rrx
     2c0:	70797400 	rsbvcs	r7, r9, r0, lsl #8
     2c4:	682e7365 	stmvsda	lr!, {r0, r2, r5, r6, r8, r9, ip, sp, lr}
     2c8:	00000200 	andeq	r0, r0, r0, lsl #4
     2cc:	02050000 	andeq	r0, r5, #0	; 0x0
     2d0:	a30002b4 	movwge	r0, #692	; 0x2b4
     2d4:	6c011903 	stcvs	9, cr1, [r1], {3}
     2d8:	4e2d2f2d 	cdpmi	15, 2, cr2, cr13, cr13, {1}
     2dc:	4e4a1203 	cdpmi	2, 4, cr1, cr10, cr3, {0}
     2e0:	04024e2d 	streq	r4, [r2], #-3629
     2e4:	ad010100 	stfges	f0, [r1]
     2e8:	02000000 	andeq	r0, r0, #0	; 0x0
     2ec:	00009400 	andeq	r9, r0, r0, lsl #8
     2f0:	fb010200 	blx	40afa <_start-0xa2fbf506>
     2f4:	01000d0e 	tsteq	r0, lr, lsl #26
     2f8:	00010101 	andeq	r0, r1, r1, lsl #2
     2fc:	00010000 	andeq	r0, r1, r0
     300:	682f0100 	stmvsda	pc!, {r8}
     304:	2f656d6f 	svccs	0x00656d6f
     308:	6162616a 	cmnvs	r2, sl, ror #2
     30c:	6f442f74 	svcvs	0x00442f74
     310:	656d7563 	strvsb	r7, [sp, #-1379]!
     314:	2f73746e 	svccs	0x0073746e
     318:	65626d65 	strvsb	r6, [r2, #-3429]!
     31c:	64656464 	strvsbt	r6, [r5], #-1124
     320:	62616c5f 	rsbvs	r6, r1, #24320	; 0x5f00
     324:	616c2f73 	smcvs	49907
     328:	6b2f3462 	blvs	bcd4b8 <_start-0xa2432b48>
     32c:	656e7265 	strvsb	r7, [lr, #-613]!
     330:	682f006c 	stmvsda	pc!, {r2, r3, r5, r6}
     334:	2f656d6f 	svccs	0x00656d6f
     338:	6162616a 	cmnvs	r2, sl, ror #2
     33c:	6f442f74 	svcvs	0x00442f74
     340:	656d7563 	strvsb	r7, [sp, #-1379]!
     344:	2f73746e 	svccs	0x0073746e
     348:	65626d65 	strvsb	r6, [r2, #-3429]!
     34c:	64656464 	strvsbt	r6, [r5], #-1124
     350:	62616c5f 	rsbvs	r6, r1, #24320	; 0x5f00
     354:	616c2f73 	smcvs	49907
     358:	6b2f3462 	blvs	bcd4e8 <_start-0xa2432b18>
     35c:	656e7265 	strvsb	r7, [lr, #-613]!
     360:	6e692f6c 	cdpvs	15, 6, cr2, cr9, cr12, {3}
     364:	64756c63 	ldrvsbt	r6, [r5], #-3171
     368:	6d000065 	stcvs	0, cr0, [r0, #-404]
     36c:	68636d65 	stmvsda	r3!, {r0, r2, r5, r6, r8, sl, fp, sp, lr}^
     370:	2e6b6365 	cdpcs	3, 6, cr6, cr11, cr5, {3}
     374:	00010063 	andeq	r0, r1, r3, rrx
     378:	70797400 	rsbvcs	r7, r9, r0, lsl #8
     37c:	682e7365 	stmvsda	lr!, {r0, r2, r5, r6, r8, r9, ip, sp, lr}
     380:	00000200 	andeq	r0, r0, r0, lsl #4
     384:	02050000 	andeq	r0, r5, #0	; 0x0
     388:	a30002f8 	movwge	r0, #760	; 0x2f8
     38c:	32011803 	andcc	r1, r1, #196608	; 0x30000
     390:	02be4dba 	adceqs	r4, lr, #11904	; 0x2e80
     394:	01010004 	tsteq	r1, r4
     398:	00000064 	andeq	r0, r0, r4, rrx
     39c:	004e0002 	subeq	r0, lr, r2
     3a0:	01020000 	tsteq	r2, r0
     3a4:	000d0efb 	streqd	r0, [sp], -fp
     3a8:	01010101 	tsteq	r1, r1, lsl #2
     3ac:	01000000 	tsteq	r0, r0
     3b0:	2f010000 	svccs	0x00010000
     3b4:	656d6f68 	strvsb	r6, [sp, #-3944]!
     3b8:	62616a2f 	rsbvs	r6, r1, #192512	; 0x2f000
     3bc:	442f7461 	strmit	r7, [pc], #1121	; 3c4 <_start-0xa2fffc3c>
     3c0:	6d75636f 	ldcvsl	3, cr6, [r5, #-444]!
     3c4:	73746e65 	cmnvc	r4, #1616	; 0x650
     3c8:	626d652f 	rsbvs	r6, sp, #197132288	; 0xbc00000
     3cc:	65646465 	strvsb	r6, [r4, #-1125]!
     3d0:	616c5f64 	cmnvs	ip, r4, ror #30
     3d4:	6c2f7362 	stcvs	3, cr7, [pc], #-392
     3d8:	2f346261 	svccs	0x00346261
     3dc:	6e72656b 	cdpvs	5, 7, cr6, cr2, cr11, {3}
     3e0:	00006c65 	andeq	r6, r0, r5, ror #24
     3e4:	73696172 	cmnvc	r9, #-2147483620	; 0x8000001c
     3e8:	00632e65 	rsbeq	r2, r3, r5, ror #28
     3ec:	00000001 	andeq	r0, r0, r1
     3f0:	3c020500 	cfstr32cc	mvfx0, [r2], {0}
     3f4:	03a30003 	moveq	r0, #3	; 0x3
     3f8:	022f010b 	eoreq	r0, pc, #-1073741822	; 0xc0000002
     3fc:	01010008 	tsteq	r1, r8
     400:	000000d6 	ldreqd	r0, [r0], -r6
     404:	009e0002 	addeqs	r0, lr, r2
     408:	01020000 	tsteq	r2, r0
     40c:	000d0efb 	streqd	r0, [sp], -fp
     410:	01010101 	tsteq	r1, r1, lsl #2
     414:	01000000 	tsteq	r0, r0
     418:	2f010000 	svccs	0x00010000
     41c:	656d6f68 	strvsb	r6, [sp, #-3944]!
     420:	62616a2f 	rsbvs	r6, r1, #192512	; 0x2f000
     424:	442f7461 	strmit	r7, [pc], #1121	; 42c <_start-0xa2fffbd4>
     428:	6d75636f 	ldcvsl	3, cr6, [r5, #-444]!
     42c:	73746e65 	cmnvc	r4, #1616	; 0x650
     430:	626d652f 	rsbvs	r6, sp, #197132288	; 0xbc00000
     434:	65646465 	strvsb	r6, [r4, #-1125]!
     438:	616c5f64 	cmnvs	ip, r4, ror #30
     43c:	6c2f7362 	stcvs	3, cr7, [pc], #-392
     440:	2f346261 	svccs	0x00346261
     444:	6e72656b 	cdpvs	5, 7, cr6, cr2, cr11, {3}
     448:	2f006c65 	svccs	0x00006c65
     44c:	656d6f68 	strvsb	r6, [sp, #-3944]!
     450:	62616a2f 	rsbvs	r6, r1, #192512	; 0x2f000
     454:	442f7461 	strmit	r7, [pc], #1121	; 45c <_start-0xa2fffba4>
     458:	6d75636f 	ldcvsl	3, cr6, [r5, #-444]!
     45c:	73746e65 	cmnvc	r4, #1616	; 0x650
     460:	626d652f 	rsbvs	r6, sp, #197132288	; 0xbc00000
     464:	65646465 	strvsb	r6, [r4, #-1125]!
     468:	616c5f64 	cmnvs	ip, r4, ror #30
     46c:	6c2f7362 	stcvs	3, cr7, [pc], #-392
     470:	2f346261 	svccs	0x00346261
     474:	6e72656b 	cdpvs	5, 7, cr6, cr2, cr11, {3}
     478:	692f6c65 	stmvsdb	pc!, {r0, r2, r5, r6, sl, fp, sp, lr}
     47c:	756c636e 	strvcb	r6, [ip, #-878]!
     480:	00006564 	andeq	r6, r0, r4, ror #10
     484:	64786568 	ldrvsbt	r6, [r8], #-1384
     488:	2e706d75 	mrccs	13, 3, r6, cr0, cr5, {3}
     48c:	00010063 	andeq	r0, r1, r3, rrx
     490:	79746300 	ldmvcdb	r4!, {r8, r9, sp, lr}^
     494:	682e6570 	stmvsda	lr!, {r4, r5, r6, r8, sl, sp, lr}
     498:	00000200 	andeq	r0, r0, r0, lsl #4
     49c:	65707974 	ldrvsb	r7, [r0, #-2420]!
     4a0:	00682e73 	rsbeq	r2, r8, r3, ror lr
     4a4:	00000002 	andeq	r0, r0, r2
     4a8:	50020500 	andpl	r0, r2, r0, lsl #10
     4ac:	03a30003 	moveq	r0, #3	; 0x3
     4b0:	322e012c 	eorcc	r0, lr, #11	; 0xb
     4b4:	a068322a 	rsbge	r3, r8, sl, lsr #4
     4b8:	2d2f2f4b 	stccs	15, cr2, [pc, #-300]!
     4bc:	7a034c2f 	bvc	d3580 <_start-0xa2f2ca80>
     4c0:	032c6866 	teqeq	ip, #6684672	; 0x660000
     4c4:	4b842e09 	blmi	fe10bcf0 <__bss_end__+0x5b0c753c>
     4c8:	2c68d24c 	sfmcs	f5, 3, [r8], #-304
     4cc:	666f0333 	undefined
     4d0:	2f4a1303 	svccs	0x004a1303
     4d4:	0014022d 	andeqs	r0, r4, sp, lsr #4
     4d8:	01960101 	orreqs	r0, r6, r1, lsl #2
     4dc:	00020000 	andeq	r0, r2, r0
     4e0:	000000e5 	andeq	r0, r0, r5, ror #1
     4e4:	0efb0102 	cdpeq	1, 15, cr0, cr11, cr2, {0}
     4e8:	0101000d 	tsteq	r1, sp
     4ec:	00000101 	andeq	r0, r0, r1, lsl #2
     4f0:	00000100 	andeq	r0, r0, r0, lsl #2
     4f4:	6f682f01 	svcvs	0x00682f01
     4f8:	6a2f656d 	bvs	bd9ab4 <_start-0xa242654c>
     4fc:	74616261 	strvcbt	r6, [r1], #-609
     500:	636f442f 	cmnvs	pc, #788529152	; 0x2f000000
     504:	6e656d75 	mcrvs	13, 3, r6, cr5, cr5, {3}
     508:	652f7374 	strvs	r7, [pc, #-884]!	; 19c <_start-0xa2fffe64>
     50c:	6465626d 	strvsbt	r6, [r5], #-621
     510:	5f646564 	svcpl	0x00646564
     514:	7362616c 	cmnvc	r2, #27	; 0x1b
     518:	62616c2f 	rsbvs	r6, r1, #12032	; 0x2f00
     51c:	656b2f34 	strvsb	r2, [fp, #-3892]!
     520:	6c656e72 	stcvsl	14, cr6, [r5], #-456
     524:	6f682f00 	svcvs	0x00682f00
     528:	6a2f656d 	bvs	bd9ae4 <_start-0xa242651c>
     52c:	74616261 	strvcbt	r6, [r1], #-609
     530:	636f442f 	cmnvs	pc, #788529152	; 0x2f000000
     534:	6e656d75 	mcrvs	13, 3, r6, cr5, cr5, {3}
     538:	652f7374 	strvs	r7, [pc, #-884]!	; 1cc <_start-0xa2fffe34>
     53c:	6465626d 	strvsbt	r6, [r5], #-621
     540:	5f646564 	svcpl	0x00646564
     544:	7362616c 	cmnvc	r2, #27	; 0x1b
     548:	62616c2f 	rsbvs	r6, r1, #12032	; 0x2f00
     54c:	656b2f34 	strvsb	r2, [fp, #-3892]!
     550:	6c656e72 	stcvsl	14, cr6, [r5], #-456
     554:	636e692f 	cmnvs	lr, #770048	; 0xbc000
     558:	6564756c 	strvsb	r7, [r4, #-1388]!
     55c:	6d72612f 	ldfvse	f6, [r2, #-188]!
     560:	6f682f00 	svcvs	0x00682f00
     564:	6a2f656d 	bvs	bd9b20 <_start-0xa24264e0>
     568:	74616261 	strvcbt	r6, [r1], #-609
     56c:	636f442f 	cmnvs	pc, #788529152	; 0x2f000000
     570:	6e656d75 	mcrvs	13, 3, r6, cr5, cr5, {3}
     574:	652f7374 	strvs	r7, [pc, #-884]!	; 208 <_start-0xa2fffdf8>
     578:	6465626d 	strvsbt	r6, [r5], #-621
     57c:	5f646564 	svcpl	0x00646564
     580:	7362616c 	cmnvc	r2, #27	; 0x1b
     584:	62616c2f 	rsbvs	r6, r1, #12032	; 0x2f00
     588:	656b2f34 	strvsb	r2, [fp, #-3892]!
     58c:	6c656e72 	stcvsl	14, cr6, [r5], #-456
     590:	636e692f 	cmnvs	lr, #770048	; 0xbc000
     594:	6564756c 	strvsb	r7, [r4, #-1388]!
     598:	78650000 	stmvcda	r5!, {}^
     59c:	74706563 	ldrvcbt	r6, [r0], #-1379
     5a0:	2e6e6f69 	cdpcs	15, 6, cr6, cr14, cr9, {3}
     5a4:	00010063 	andeq	r0, r1, r3, rrx
     5a8:	72737000 	rsbvcs	r7, r3, #0	; 0x0
     5ac:	0200682e 	andeq	r6, r0, #3014656	; 0x2e0000
     5b0:	79740000 	ldmvcdb	r4!, {}^
     5b4:	2e736570 	mrccs	5, 3, r6, cr3, cr0, {3}
     5b8:	00030068 	andeq	r0, r3, r8, rrx
     5bc:	62656400 	rsbvs	r6, r5, #0	; 0x0
     5c0:	682e6775 	stmvsda	lr!, {r0, r2, r4, r5, r6, r8, r9, sl, sp, lr}
     5c4:	00000300 	andeq	r0, r0, r0, lsl #6
     5c8:	02050000 	andeq	r0, r5, #0	; 0x0
     5cc:	a3000454 	movwge	r0, #1108	; 0x454
     5d0:	30013203 	andcc	r3, r1, r3, lsl #4
     5d4:	2e4a7903 	cdpcs	9, 4, cr7, cr10, cr3, {0}
     5d8:	2e180335 	mrccs	3, 0, r0, cr8, cr5, {1}
     5dc:	032e6803 	teqeq	lr, #196608	; 0x30000
     5e0:	68032e18 	stmvsda	r3, {r3, r4, r9, sl, fp, sp}
     5e4:	2e18032e 	cdpcs	3, 1, cr0, cr8, cr14, {1}
     5e8:	032e6803 	teqeq	lr, #196608	; 0x30000
     5ec:	33314a1c 	teqcc	r1, #114688	; 0x1c000
     5f0:	322e7403 	eorcc	r7, lr, #50331648	; 0x3000000
     5f4:	302d2f30 	eorcc	r2, sp, r0, lsr pc
     5f8:	322c312d 	eorcc	r3, ip, #1073741835	; 0x4000000b
     5fc:	33314f2c 	teqcc	r1, #176	; 0xb0
     600:	302e7803 	eorcc	r7, lr, r3, lsl #16
     604:	2d302d2f 	ldccs	13, cr2, [r0, #-188]!
     608:	2c322c31 	ldccs	12, cr2, [r2], #-196
     60c:	2b314e30 	blcs	c53ed4 <_start-0xa23ac12c>
     610:	03342f4c 	teqeq	r4, #304	; 0x130
     614:	2d302e79 	ldccs	14, cr2, [r0, #-484]!
     618:	2b332c31 	blcs	ccb6e4 <_start-0xa233491c>
     61c:	c7033531 	smladxgt	r3, r1, r5, r3
     620:	03900800 	orreqs	r0, r0, #0	; 0x0
     624:	2f2e7fbc 	svccs	0x002e7fbc
     628:	a04b8384 	subge	r8, fp, r4, lsl #7
     62c:	84302f2d 	ldrhit	r2, [r0], #-3885
     630:	2da04b83 	stccs	11, cr4, [r0, #524]!
     634:	8384302f 	orrhi	r3, r4, #47	; 0x2f
     638:	2f2da04b 	svccs	0x002da04b
     63c:	93030204 	movwls	r0, #12804	; 0x3204
     640:	3474087f 	ldrccbt	r0, [r4], #-2175
     644:	f6030104 	undefined instruction 0xf6030104
     648:	02044a00 	andeq	r4, r4, #0	; 0x0
     64c:	4a7f8a03 	bmi	1fe2e60 <_start-0xa101d1a0>
     650:	ff030104 	undefined instruction 0xff030104
     654:	02042e00 	andeq	r2, r4, #0	; 0x0
     658:	4a7efb03 	bmi	1fbf26c <_start-0xa1040d94>
     65c:	03010434 	movweq	r0, #5172	; 0x1434
     660:	044a019e 	streqb	r0, [sl], #-414
     664:	7ee20302 	cdpvc	3, 14, cr0, cr2, cr2, {0}
     668:	0301044a 	movweq	r0, #5194	; 0x144a
     66c:	022e01a6 	eoreq	r0, lr, #-2147483607	; 0x80000029
     670:	01010004 	tsteq	r1, r4
     674:	00000172 	andeq	r0, r0, r2, ror r1
     678:	00f20002 	rsceqs	r0, r2, r2
     67c:	01020000 	tsteq	r2, r0
     680:	000d0efb 	streqd	r0, [sp], -fp
     684:	01010101 	tsteq	r1, r1, lsl #2
     688:	01000000 	tsteq	r0, r0
     68c:	2f010000 	svccs	0x00010000
     690:	656d6f68 	strvsb	r6, [sp, #-3944]!
     694:	62616a2f 	rsbvs	r6, r1, #192512	; 0x2f000
     698:	442f7461 	strmit	r7, [pc], #1121	; 6a0 <_start-0xa2fff960>
     69c:	6d75636f 	ldcvsl	3, cr6, [r5, #-444]!
     6a0:	73746e65 	cmnvc	r4, #1616	; 0x650
     6a4:	626d652f 	rsbvs	r6, sp, #197132288	; 0xbc00000
     6a8:	65646465 	strvsb	r6, [r4, #-1125]!
     6ac:	616c5f64 	cmnvs	ip, r4, ror #30
     6b0:	6c2f7362 	stcvs	3, cr7, [pc], #-392
     6b4:	2f346261 	svccs	0x00346261
     6b8:	6e72656b 	cdpvs	5, 7, cr6, cr2, cr11, {3}
     6bc:	2f006c65 	svccs	0x00006c65
     6c0:	656d6f68 	strvsb	r6, [sp, #-3944]!
     6c4:	62616a2f 	rsbvs	r6, r1, #192512	; 0x2f000
     6c8:	442f7461 	strmit	r7, [pc], #1121	; 6d0 <_start-0xa2fff930>
     6cc:	6d75636f 	ldcvsl	3, cr6, [r5, #-444]!
     6d0:	73746e65 	cmnvc	r4, #1616	; 0x650
     6d4:	626d652f 	rsbvs	r6, sp, #197132288	; 0xbc00000
     6d8:	65646465 	strvsb	r6, [r4, #-1125]!
     6dc:	616c5f64 	cmnvs	ip, r4, ror #30
     6e0:	6c2f7362 	stcvs	3, cr7, [pc], #-392
     6e4:	2f346261 	svccs	0x00346261
     6e8:	6e72656b 	cdpvs	5, 7, cr6, cr2, cr11, {3}
     6ec:	692f6c65 	stmvsdb	pc!, {r0, r2, r5, r6, sl, fp, sp, lr}
     6f0:	756c636e 	strvcb	r6, [ip, #-878]!
     6f4:	612f6564 	teqvs	pc, r4, ror #10
     6f8:	2f006d72 	svccs	0x00006d72
     6fc:	656d6f68 	strvsb	r6, [sp, #-3944]!
     700:	62616a2f 	rsbvs	r6, r1, #192512	; 0x2f000
     704:	442f7461 	strmit	r7, [pc], #1121	; 70c <_start-0xa2fff8f4>
     708:	6d75636f 	ldcvsl	3, cr6, [r5, #-444]!
     70c:	73746e65 	cmnvc	r4, #1616	; 0x650
     710:	626d652f 	rsbvs	r6, sp, #197132288	; 0xbc00000
     714:	65646465 	strvsb	r6, [r4, #-1125]!
     718:	616c5f64 	cmnvs	ip, r4, ror #30
     71c:	6c2f7362 	stcvs	3, cr7, [pc], #-392
     720:	2f346261 	svccs	0x00346261
     724:	6e72656b 	cdpvs	5, 7, cr6, cr2, cr11, {3}
     728:	692f6c65 	stmvsdb	pc!, {r0, r2, r5, r6, sl, fp, sp, lr}
     72c:	756c636e 	strvcb	r6, [ip, #-878]!
     730:	00006564 	andeq	r6, r0, r4, ror #10
     734:	69766564 	ldmvsdb	r6!, {r2, r5, r6, r8, sl, sp, lr}^
     738:	632e6563 	teqvs	lr, #415236096	; 0x18c00000
     73c:	00000100 	andeq	r0, r0, r0, lsl #2
     740:	65637865 	strvsb	r7, [r3, #-2149]!
     744:	6f697470 	svcvs	0x00697470
     748:	00682e6e 	rsbeq	r2, r8, lr, ror #28
     74c:	74000002 	strvc	r0, [r0], #-2
     750:	73657079 	cmnvc	r5, #121	; 0x79
     754:	0300682e 	movweq	r6, #2094	; 0x82e
     758:	61740000 	cmnvs	r4, r0
     75c:	682e6b73 	stmvsda	lr!, {r0, r1, r4, r5, r6, r8, r9, fp, sp, lr}
     760:	00000300 	andeq	r0, r0, r0, lsl #6
     764:	75626564 	strvcb	r6, [r2, #-1380]!
     768:	00682e67 	rsbeq	r2, r8, r7, ror #28
     76c:	00000003 	andeq	r0, r0, r3
     770:	bc020500 	cfstr32lt	mvfx0, [r2], {0}
     774:	03a30006 	moveq	r0, #6	; 0x6
     778:	2e0100da 	mcrcs	0, 0, r0, cr1, cr10, {6}
     77c:	68030204 	stmvsda	r3, {r2, r9}
     780:	042f2f2e 	streqt	r2, [pc], #3886	; 788 <_start-0xa2fff878>
     784:	9e1f0301 	cdpls	3, 1, cr0, cr15, cr1, {0}
     788:	4c4fdb68 	mcrrmi	11, 6, sp, pc, cr8
     78c:	2ff42b31 	svccs	0x00f42b31
     790:	03667803 	cmneq	r6, #196608	; 0x30000
     794:	64034a11 	strvs	r4, [r3], #-2577
     798:	9e200382 	cdpls	3, 2, cr0, cr0, cr2, {4}
     79c:	b9030204 	stmltdb	r3, {r2, r9}
     7a0:	2f2f667f 	svccs	0x002f667f
     7a4:	c8030104 	stmgtda	r3, {r2, r8}
     7a8:	02042e00 	andeq	r2, r4, #0	; 0x0
     7ac:	ba7fbe03 	blt	1feffc0 <_start-0xa1010040>
     7b0:	03010430 	movweq	r0, #5168	; 0x1430
     7b4:	2d4b4a71 	fstscs	s9, [fp, #-452]
     7b8:	2d2f2d2f 	stccs	13, cr2, [pc, #-188]!
     7bc:	30330204 	eorccs	r0, r3, r4, lsl #4
     7c0:	03480104 	movteq	r0, #33028	; 0x8104
     7c4:	042e4a0a 	streqt	r4, [lr], #-2570
     7c8:	2f2f2c02 	svccs	0x002f2c02
     7cc:	bc310104 	ldflts	f0, [r1], #-16
     7d0:	2f2b302f 	svccs	0x002b302f
     7d4:	2d304830 	ldccs	8, cr4, [r0, #-192]!
     7d8:	0302042f 	movweq	r0, #9263	; 0x242f
     7dc:	2f2f826e 	svccs	0x002f826e
     7e0:	13030104 	movwne	r0, #12548	; 0x3104
     7e4:	000a022e 	andeq	r0, sl, lr, lsr #4
     7e8:	009d0101 	addeqs	r0, sp, r1, lsl #2
     7ec:	00020000 	andeq	r0, r2, r0
     7f0:	00000056 	andeq	r0, r0, r6, asr r0
     7f4:	0efb0102 	cdpeq	1, 15, cr0, cr11, cr2, {0}
     7f8:	0101000d 	tsteq	r1, sp
     7fc:	00000101 	andeq	r0, r0, r1, lsl #2
     800:	00000100 	andeq	r0, r0, r0, lsl #2
     804:	6f682f01 	svcvs	0x00682f01
     808:	6a2f656d 	bvs	bd9dc4 <_start-0xa242623c>
     80c:	74616261 	strvcbt	r6, [r1], #-609
     810:	636f442f 	cmnvs	pc, #788529152	; 0x2f000000
     814:	6e656d75 	mcrvs	13, 3, r6, cr5, cr5, {3}
     818:	652f7374 	strvs	r7, [pc, #-884]!	; 4ac <_start-0xa2fffb54>
     81c:	6465626d 	strvsbt	r6, [r5], #-621
     820:	5f646564 	svcpl	0x00646564
     824:	7362616c 	cmnvc	r2, #27	; 0x1b
     828:	62616c2f 	rsbvs	r6, r1, #12032	; 0x2f00
     82c:	656b2f34 	strvsb	r2, [fp, #-3892]!
     830:	6c656e72 	stcvsl	14, cr6, [r5], #-456
     834:	636e692f 	cmnvs	lr, #770048	; 0xbc000
     838:	6564756c 	strvsb	r7, [r4, #-1388]!
     83c:	74630000 	strvcbt	r0, [r3]
     840:	2e657079 	mcrcs	0, 3, r7, cr5, cr9, {3}
     844:	00010068 	andeq	r0, r1, r8, rrx
     848:	05000000 	streq	r0, [r0]
     84c:	00087002 	andeq	r7, r8, r2
     850:	011003a3 	tsteq	r0, r3, lsr #7
     854:	66303166 	ldrvst	r3, [r0], -r6, ror #2
     858:	31663031 	cmncc	r6, r1, lsr r0
     85c:	30316630 	eorccs	r6, r1, r0, lsr r6
     860:	66303166 	ldrvst	r3, [r0], -r6, ror #2
     864:	3e084a32 	mcrcc	10, 0, r4, cr8, cr2, {1}
     868:	03663031 	cmneq	r6, #49	; 0x31
     86c:	bb4a2e0b 	bllt	128c0a0 <_start-0xa1d73f60>
     870:	f32f2e4d 	vcgt.f32	q1, <illegal reg q7.5>, <illegal reg q6.5>
     874:	672e0e03 	strvs	r0, [lr, -r3, lsl #28]!
     878:	4a2e6403 	bmi	b9988c <_start-0xa2466774>
     87c:	0e033f08 	cdpeq	15, 0, cr3, cr3, cr8, {0}
     880:	9f2f492e 	svcls	0x002f492e
     884:	0202674e 	andeq	r6, r2, #20447232	; 0x1380000
     888:	46010100 	strmi	r0, [r1], -r0, lsl #2
     88c:	02000000 	andeq	r0, r0, #0	; 0x0
     890:	00001e00 	andeq	r1, r0, r0, lsl #28
     894:	fb010200 	blx	4109e <_start-0xa2fbef62>
     898:	01000d0e 	tsteq	r0, lr, lsl #26
     89c:	00010101 	andeq	r0, r1, r1, lsl #2
     8a0:	00010000 	andeq	r0, r1, r0
     8a4:	61000100 	tstvs	r0, r0, lsl #2
     8a8:	74726f62 	ldrvcbt	r6, [r2], #-3938
     8ac:	0000532e 	andeq	r5, r0, lr, lsr #6
     8b0:	00000000 	andeq	r0, r0, r0
     8b4:	09fc0205 	ldmeqib	ip!, {r0, r2, r9}^
     8b8:	0e03a300 	cdpeq	3, 0, cr10, cr3, cr0, {0}
     8bc:	302f3001 	eorcc	r3, pc, r1
     8c0:	302f2f30 	eorcc	r2, pc, r0, lsr pc
     8c4:	2f2f2f2f 	svccs	0x002f2f2f
     8c8:	30302f2f 	eorccs	r2, r0, pc, lsr #30
     8cc:	2f2f3330 	svccs	0x002f3330
     8d0:	01000402 	tsteq	r0, r2, lsl #8
     8d4:	00004901 	andeq	r4, r0, r1, lsl #18
     8d8:	24000200 	strcs	r0, [r0], #-512
     8dc:	02000000 	andeq	r0, r0, #0	; 0x0
     8e0:	0d0efb01 	vstreq	d15, [lr, #-4]
     8e4:	01010100 	tsteq	r1, r0, lsl #2
     8e8:	00000001 	andeq	r0, r0, r1
     8ec:	01000001 	tsteq	r0, r1
     8f0:	69777300 	ldmvsdb	r7!, {r8, r9, ip, sp, lr}^
     8f4:	6e61685f 	mcrvs	8, 3, r6, cr1, cr15, {2}
     8f8:	72656c64 	rsbvc	r6, r5, #25600	; 0x6400
     8fc:	0000532e 	andeq	r5, r0, lr, lsr #6
     900:	00000000 	andeq	r0, r0, r0
     904:	0a500205 	beq	1401120 <_start-0xa1bfeee0>
     908:	1403a300 	strne	sl, [r3], #-768
     90c:	2f303001 	svccs	0x00303001
     910:	2f31312f 	svccs	0x0031312f
     914:	302f2f31 	eorcc	r2, pc, r1, lsr pc
     918:	2f2f3131 	svccs	0x002f3131
     91c:	00040230 	andeq	r0, r4, r0, lsr r2
     920:	00340101 	eoreqs	r0, r4, r1, lsl #2
     924:	00020000 	andeq	r0, r2, r0
     928:	0000001d 	andeq	r0, r0, sp, lsl r0
     92c:	0efb0102 	cdpeq	1, 15, cr0, cr11, cr2, {0}
     930:	0101000d 	tsteq	r1, sp
     934:	00000101 	andeq	r0, r0, r1, lsl #2
     938:	00000100 	andeq	r0, r0, r0, lsl #2
     93c:	78650001 	stmvcda	r5!, {r0}^
     940:	532e7469 	teqpl	lr, #1761607680	; 0x69000000
     944:	00000000 	andeq	r0, r0, r0
     948:	02050000 	andeq	r0, r5, #0	; 0x0
     94c:	a3000a98 	movwge	r0, #2712	; 0xa98
     950:	2f011003 	svccs	0x00011003
     954:	0002022f 	andeq	r0, r2, pc, lsr #4
     958:	00860101 	addeq	r0, r6, r1, lsl #2
     95c:	00020000 	andeq	r0, r2, r0
     960:	00000054 	andeq	r0, r0, r4, asr r0
     964:	0efb0102 	cdpeq	1, 15, cr0, cr11, cr2, {0}
     968:	0101000d 	tsteq	r1, sp
     96c:	00000101 	andeq	r0, r0, r1, lsl #2
     970:	00000100 	andeq	r0, r0, r0, lsl #2
     974:	6f682f01 	svcvs	0x00682f01
     978:	6a2f656d 	bvs	bd9f34 <_start-0xa24260cc>
     97c:	74616261 	strvcbt	r6, [r1], #-609
     980:	636f442f 	cmnvs	pc, #788529152	; 0x2f000000
     984:	6e656d75 	mcrvs	13, 3, r6, cr5, cr5, {3}
     988:	652f7374 	strvs	r7, [pc, #-884]!	; 61c <_start-0xa2fff9e4>
     98c:	6465626d 	strvsbt	r6, [r5], #-621
     990:	5f646564 	svcpl	0x00646564
     994:	7362616c 	cmnvc	r2, #27	; 0x1b
     998:	62616c2f 	rsbvs	r6, r1, #12032	; 0x2f00
     99c:	656b2f34 	strvsb	r2, [fp, #-3892]!
     9a0:	6c656e72 	stcvsl	14, cr6, [r5], #-456
     9a4:	656b0000 	strvsb	r0, [fp]!
     9a8:	6c656e72 	stcvsl	14, cr6, [r5], #-456
     9ac:	6974755f 	ldmvsdb	r4!, {r0, r1, r2, r3, r4, r6, r8, sl, ip, sp, lr}^
     9b0:	00532e6c 	subeqs	r2, r3, ip, ror #28
     9b4:	00000001 	andeq	r0, r0, r1
     9b8:	a4020500 	strge	r0, [r2], #-1280
     9bc:	03a3000a 	moveq	r0, #10	; 0xa
     9c0:	2f300110 	svccs	0x00300110
     9c4:	302f2f2f 	eorcc	r2, pc, pc, lsr #30
     9c8:	33303130 	teqcc	r0, #12	; 0xc
     9cc:	2f2f2f2f 	svccs	0x002f2f2f
     9d0:	362f2f2f 	strcct	r2, [pc], -pc, lsr #30
     9d4:	2f2f2f2f 	svccs	0x002f2f2f
     9d8:	2f2e0903 	svccs	0x002e0903
     9dc:	022f2f2f 	eoreq	r2, pc, #188	; 0xbc
     9e0:	01010004 	tsteq	r1, r4
     9e4:	0000012b 	andeq	r0, r0, fp, lsr #2
     9e8:	00e90002 	rsceq	r0, r9, r2
     9ec:	01020000 	tsteq	r2, r0
     9f0:	000d0efb 	streqd	r0, [sp], -fp
     9f4:	01010101 	tsteq	r1, r1, lsl #2
     9f8:	01000000 	tsteq	r0, r0
     9fc:	2f010000 	svccs	0x00010000
     a00:	656d6f68 	strvsb	r6, [sp, #-3944]!
     a04:	62616a2f 	rsbvs	r6, r1, #192512	; 0x2f000
     a08:	442f7461 	strmit	r7, [pc], #1121	; a10 <_start-0xa2fff5f0>
     a0c:	6d75636f 	ldcvsl	3, cr6, [r5, #-444]!
     a10:	73746e65 	cmnvc	r4, #1616	; 0x650
     a14:	626d652f 	rsbvs	r6, sp, #197132288	; 0xbc00000
     a18:	65646465 	strvsb	r6, [r4, #-1125]!
     a1c:	616c5f64 	cmnvs	ip, r4, ror #30
     a20:	6c2f7362 	stcvs	3, cr7, [pc], #-392
     a24:	2f346261 	svccs	0x00346261
     a28:	6e72656b 	cdpvs	5, 7, cr6, cr2, cr11, {3}
     a2c:	2f006c65 	svccs	0x00006c65
     a30:	656d6f68 	strvsb	r6, [sp, #-3944]!
     a34:	62616a2f 	rsbvs	r6, r1, #192512	; 0x2f000
     a38:	442f7461 	strmit	r7, [pc], #1121	; a40 <_start-0xa2fff5c0>
     a3c:	6d75636f 	ldcvsl	3, cr6, [r5, #-444]!
     a40:	73746e65 	cmnvc	r4, #1616	; 0x650
     a44:	626d652f 	rsbvs	r6, sp, #197132288	; 0xbc00000
     a48:	65646465 	strvsb	r6, [r4, #-1125]!
     a4c:	616c5f64 	cmnvs	ip, r4, ror #30
     a50:	6c2f7362 	stcvs	3, cr7, [pc], #-392
     a54:	2f346261 	svccs	0x00346261
     a58:	6e72656b 	cdpvs	5, 7, cr6, cr2, cr11, {3}
     a5c:	692f6c65 	stmvsdb	pc!, {r0, r2, r5, r6, sl, fp, sp, lr}
     a60:	756c636e 	strvcb	r6, [ip, #-878]!
     a64:	612f6564 	teqvs	pc, r4, ror #10
     a68:	2f006d72 	svccs	0x00006d72
     a6c:	656d6f68 	strvsb	r6, [sp, #-3944]!
     a70:	62616a2f 	rsbvs	r6, r1, #192512	; 0x2f000
     a74:	442f7461 	strmit	r7, [pc], #1121	; a7c <_start-0xa2fff584>
     a78:	6d75636f 	ldcvsl	3, cr6, [r5, #-444]!
     a7c:	73746e65 	cmnvc	r4, #1616	; 0x650
     a80:	626d652f 	rsbvs	r6, sp, #197132288	; 0xbc00000
     a84:	65646465 	strvsb	r6, [r4, #-1125]!
     a88:	616c5f64 	cmnvs	ip, r4, ror #30
     a8c:	6c2f7362 	stcvs	3, cr7, [pc], #-392
     a90:	2f346261 	svccs	0x00346261
     a94:	6e72656b 	cdpvs	5, 7, cr6, cr2, cr11, {3}
     a98:	692f6c65 	stmvsdb	pc!, {r0, r2, r5, r6, sl, fp, sp, lr}
     a9c:	756c636e 	strvcb	r6, [ip, #-878]!
     aa0:	00006564 	andeq	r6, r0, r4, ror #10
     aa4:	656b5f63 	strvsb	r5, [fp, #-3939]!
     aa8:	6c656e72 	stcvsl	14, cr6, [r5], #-456
     aac:	6974755f 	ldmvsdb	r4!, {r0, r1, r2, r3, r4, r6, r8, sl, ip, sp, lr}^
     ab0:	00632e6c 	rsbeq	r2, r3, ip, ror #28
     ab4:	72000001 	andvc	r0, r0, #1	; 0x1
     ab8:	682e6765 	stmvsda	lr!, {r0, r2, r5, r6, r8, r9, sl, sp, lr}
     abc:	00000200 	andeq	r0, r0, r0, lsl #4
     ac0:	65707974 	ldrvsb	r7, [r0, #-2420]!
     ac4:	00682e73 	rsbeq	r2, r8, r3, ror lr
     ac8:	64000003 	strvs	r0, [r0], #-3
     acc:	67756265 	ldrvsb	r6, [r5, -r5, ror #4]!
     ad0:	0300682e 	movweq	r6, #2094	; 0x82e
     ad4:	00000000 	andeq	r0, r0, r0
     ad8:	0b180205 	bleq	6012f4 <_start-0xa29fed0c>
     adc:	3303a300 	movwcc	sl, #13056	; 0x3300
     ae0:	63a53101 	movvs	r3, #1073741824	; 0x40000000
     ae4:	30344731 	eorccs	r4, r4, r1, lsr r7
     ae8:	2f2f2d4e 	svccs	0x002f2d4e
     aec:	2e4b034c 	cdpcs	3, 4, cr0, cr11, cr12, {2}
     af0:	2d2f302c 	stccs	0, cr3, [pc, #-176]!
     af4:	3102044b 	tstcc	r2, fp, asr #8
     af8:	11030104 	tstne	r3, r4, lsl #2
     afc:	2da19008 	stccs	0, cr9, [r1, #32]!
     b00:	4b2d2f2f 	blmi	b4c7c4 <_start-0xa24b383c>
     b04:	6b030204 	blvs	c131c <_start-0xa2f3ece4>
     b08:	0301042e 	movweq	r0, #5166	; 0x142e
     b0c:	08029e18 	stmeqda	r2, {r3, r4, r9, sl, fp, ip, pc}
     b10:	17010100 	strne	r0, [r1, -r0, lsl #2]
     b14:	02000001 	andeq	r0, r0, #1	; 0x1
     b18:	0000e900 	andeq	lr, r0, r0, lsl #18
     b1c:	fb010200 	blx	41326 <_start-0xa2fbecda>
     b20:	01000d0e 	tsteq	r0, lr, lsl #26
     b24:	00010101 	andeq	r0, r1, r1, lsl #2
     b28:	00010000 	andeq	r0, r1, r0
     b2c:	682f0100 	stmvsda	pc!, {r8}
     b30:	2f656d6f 	svccs	0x00656d6f
     b34:	6162616a 	cmnvs	r2, sl, ror #2
     b38:	6f442f74 	svcvs	0x00442f74
     b3c:	656d7563 	strvsb	r7, [sp, #-1379]!
     b40:	2f73746e 	svccs	0x0073746e
     b44:	65626d65 	strvsb	r6, [r2, #-3429]!
     b48:	64656464 	strvsbt	r6, [r5], #-1124
     b4c:	62616c5f 	rsbvs	r6, r1, #24320	; 0x5f00
     b50:	616c2f73 	smcvs	49907
     b54:	6b2f3462 	blvs	bcdce4 <_start-0xa243231c>
     b58:	656e7265 	strvsb	r7, [lr, #-613]!
     b5c:	682f006c 	stmvsda	pc!, {r2, r3, r5, r6}
     b60:	2f656d6f 	svccs	0x00656d6f
     b64:	6162616a 	cmnvs	r2, sl, ror #2
     b68:	6f442f74 	svcvs	0x00442f74
     b6c:	656d7563 	strvsb	r7, [sp, #-1379]!
     b70:	2f73746e 	svccs	0x0073746e
     b74:	65626d65 	strvsb	r6, [r2, #-3429]!
     b78:	64656464 	strvsbt	r6, [r5], #-1124
     b7c:	62616c5f 	rsbvs	r6, r1, #24320	; 0x5f00
     b80:	616c2f73 	smcvs	49907
     b84:	6b2f3462 	blvs	bcdd14 <_start-0xa24322ec>
     b88:	656e7265 	strvsb	r7, [lr, #-613]!
     b8c:	6e692f6c 	cdpvs	15, 6, cr2, cr9, cr12, {3}
     b90:	64756c63 	ldrvsbt	r6, [r5], #-3171
     b94:	72612f65 	rsbvc	r2, r1, #404	; 0x194
     b98:	682f006d 	stmvsda	pc!, {r0, r2, r3, r5, r6}
     b9c:	2f656d6f 	svccs	0x00656d6f
     ba0:	6162616a 	cmnvs	r2, sl, ror #2
     ba4:	6f442f74 	svcvs	0x00442f74
     ba8:	656d7563 	strvsb	r7, [sp, #-1379]!
     bac:	2f73746e 	svccs	0x0073746e
     bb0:	65626d65 	strvsb	r6, [r2, #-3429]!
     bb4:	64656464 	strvsbt	r6, [r5], #-1124
     bb8:	62616c5f 	rsbvs	r6, r1, #24320	; 0x5f00
     bbc:	616c2f73 	smcvs	49907
     bc0:	6b2f3462 	blvs	bcdd50 <_start-0xa24322b0>
     bc4:	656e7265 	strvsb	r7, [lr, #-613]!
     bc8:	6e692f6c 	cdpvs	15, 6, cr2, cr9, cr12, {3}
     bcc:	64756c63 	ldrvsbt	r6, [r5], #-3171
     bd0:	63000065 	movwvs	r0, #101	; 0x65
     bd4:	7172695f 	cmnvc	r2, pc, asr r9
     bd8:	6e61685f 	mcrvs	8, 3, r6, cr1, cr15, {2}
     bdc:	72656c64 	rsbvc	r6, r5, #25600	; 0x6400
     be0:	0100632e 	tsteq	r0, lr, lsr #6
     be4:	65720000 	ldrvsb	r0, [r2]!
     be8:	00682e67 	rsbeq	r2, r8, r7, ror #28
     bec:	74000002 	strvc	r0, [r0], #-2
     bf0:	73657079 	cmnvc	r5, #121	; 0x79
     bf4:	0300682e 	movweq	r6, #2094	; 0x82e
     bf8:	69740000 	ldmvsdb	r4!, {}^
     bfc:	2e72656d 	cdpcs	5, 7, cr6, cr2, cr13, {3}
     c00:	00020068 	andeq	r0, r2, r8, rrx
     c04:	02040000 	andeq	r0, r4, #0	; 0x0
     c08:	14020500 	strne	r0, [r2], #-1280
     c0c:	03a3000c 	moveq	r0, #12	; 0xc
     c10:	01040113 	tsteq	r4, r3, lsl r1
     c14:	042e1003 	streqt	r1, [lr], #-3
     c18:	2e700302 	cdpcs	3, 7, cr0, cr0, cr2, {0}
     c1c:	04360104 	ldreqt	r0, [r6], #-260
     c20:	01044702 	tsteq	r4, r2, lsl #14
     c24:	67ba0b03 	ldrvs	r0, [sl, r3, lsl #22]!
     c28:	0006022e 	andeq	r0, r6, lr, lsr #4
     c2c:	006c0101 	rsbeq	r0, ip, r1, lsl #2
     c30:	00020000 	andeq	r0, r2, r0
     c34:	00000054 	andeq	r0, r0, r4, asr r0
     c38:	0efb0102 	cdpeq	1, 15, cr0, cr11, cr2, {0}
     c3c:	0101000d 	tsteq	r1, sp
     c40:	00000101 	andeq	r0, r0, r1, lsl #2
     c44:	00000100 	andeq	r0, r0, r0, lsl #2
     c48:	6f682f01 	svcvs	0x00682f01
     c4c:	6a2f656d 	bvs	bda208 <_start-0xa2425df8>
     c50:	74616261 	strvcbt	r6, [r1], #-609
     c54:	636f442f 	cmnvs	pc, #788529152	; 0x2f000000
     c58:	6e656d75 	mcrvs	13, 3, r6, cr5, cr5, {3}
     c5c:	652f7374 	strvs	r7, [pc, #-884]!	; 8f0 <_start-0xa2fff710>
     c60:	6465626d 	strvsbt	r6, [r5], #-621
     c64:	5f646564 	svcpl	0x00646564
     c68:	7362616c 	cmnvc	r2, #27	; 0x1b
     c6c:	62616c2f 	rsbvs	r6, r1, #12032	; 0x2f00
     c70:	656b2f34 	strvsb	r2, [fp, #-3892]!
     c74:	6c656e72 	stcvsl	14, cr6, [r5], #-456
     c78:	72690000 	rsbvc	r0, r9, #0	; 0x0
     c7c:	61685f71 	smcvs	34289
     c80:	656c646e 	strvsb	r6, [ip, #-1134]!
     c84:	00532e72 	subeqs	r2, r3, r2, ror lr
     c88:	00000001 	andeq	r0, r0, r1
     c8c:	5c020500 	cfstr32pl	mvfx0, [r2], {0}
     c90:	03a3000c 	moveq	r0, #12	; 0xc
     c94:	2f300112 	svccs	0x00300112
     c98:	0002022f 	andeq	r0, r2, pc, lsr #4
     c9c:	013a0101 	teqeq	sl, r1, lsl #2
     ca0:	00020000 	andeq	r0, r2, r0
     ca4:	000000f9 	streqd	r0, [r0], -r9
     ca8:	0efb0102 	cdpeq	1, 15, cr0, cr11, cr2, {0}
     cac:	0101000d 	tsteq	r1, sp
     cb0:	00000101 	andeq	r0, r0, r1, lsl #2
     cb4:	00000100 	andeq	r0, r0, r0, lsl #2
     cb8:	6f682f01 	svcvs	0x00682f01
     cbc:	6a2f656d 	bvs	bda278 <_start-0xa2425d88>
     cc0:	74616261 	strvcbt	r6, [r1], #-609
     cc4:	636f442f 	cmnvs	pc, #788529152	; 0x2f000000
     cc8:	6e656d75 	mcrvs	13, 3, r6, cr5, cr5, {3}
     ccc:	652f7374 	strvs	r7, [pc, #-884]!	; 960 <_start-0xa2fff6a0>
     cd0:	6465626d 	strvsbt	r6, [r5], #-621
     cd4:	5f646564 	svcpl	0x00646564
     cd8:	7362616c 	cmnvc	r2, #27	; 0x1b
     cdc:	62616c2f 	rsbvs	r6, r1, #12032	; 0x2f00
     ce0:	656b2f34 	strvsb	r2, [fp, #-3892]!
     ce4:	6c656e72 	stcvsl	14, cr6, [r5], #-456
     ce8:	6f682f00 	svcvs	0x00682f00
     cec:	6a2f656d 	bvs	bda2a8 <_start-0xa2425d58>
     cf0:	74616261 	strvcbt	r6, [r1], #-609
     cf4:	636f442f 	cmnvs	pc, #788529152	; 0x2f000000
     cf8:	6e656d75 	mcrvs	13, 3, r6, cr5, cr5, {3}
     cfc:	652f7374 	strvs	r7, [pc, #-884]!	; 990 <_start-0xa2fff670>
     d00:	6465626d 	strvsbt	r6, [r5], #-621
     d04:	5f646564 	svcpl	0x00646564
     d08:	7362616c 	cmnvc	r2, #27	; 0x1b
     d0c:	62616c2f 	rsbvs	r6, r1, #12032	; 0x2f00
     d10:	656b2f34 	strvsb	r2, [fp, #-3892]!
     d14:	6c656e72 	stcvsl	14, cr6, [r5], #-456
     d18:	636e692f 	cmnvs	lr, #770048	; 0xbc000
     d1c:	6564756c 	strvsb	r7, [r4, #-1388]!
     d20:	6d72612f 	ldfvse	f6, [r2, #-188]!
     d24:	6f682f00 	svcvs	0x00682f00
     d28:	6a2f656d 	bvs	bda2e4 <_start-0xa2425d1c>
     d2c:	74616261 	strvcbt	r6, [r1], #-609
     d30:	636f442f 	cmnvs	pc, #788529152	; 0x2f000000
     d34:	6e656d75 	mcrvs	13, 3, r6, cr5, cr5, {3}
     d38:	652f7374 	strvs	r7, [pc, #-884]!	; 9cc <_start-0xa2fff634>
     d3c:	6465626d 	strvsbt	r6, [r5], #-621
     d40:	5f646564 	svcpl	0x00646564
     d44:	7362616c 	cmnvc	r2, #27	; 0x1b
     d48:	62616c2f 	rsbvs	r6, r1, #12032	; 0x2f00
     d4c:	656b2f34 	strvsb	r2, [fp, #-3892]!
     d50:	6c656e72 	stcvsl	14, cr6, [r5], #-456
     d54:	636e692f 	cmnvs	lr, #770048	; 0xbc000
     d58:	6564756c 	strvsb	r7, [r4, #-1388]!
     d5c:	5f630000 	svcpl	0x00630000
     d60:	5f697773 	svcpl	0x00697773
     d64:	646e6168 	strvsbt	r6, [lr], #-360
     d68:	2e72656c 	cdpcs	5, 7, cr6, cr2, cr12, {3}
     d6c:	00010063 	andeq	r0, r1, r3, rrx
     d70:	63786500 	cmnvs	r8, #0	; 0x0
     d74:	69747065 	ldmvsdb	r4!, {r0, r2, r5, r6, ip, sp, lr}^
     d78:	682e6e6f 	stmvsda	lr!, {r0, r1, r2, r3, r5, r6, r9, sl, fp, sp, lr}
     d7c:	00000200 	andeq	r0, r0, r0, lsl #4
     d80:	65707974 	ldrvsb	r7, [r0, #-2420]!
     d84:	00682e73 	rsbeq	r2, r8, r3, ror lr
     d88:	74000003 	strvc	r0, [r0], #-3
     d8c:	2e6b7361 	cdpcs	3, 6, cr7, cr11, cr1, {3}
     d90:	00030068 	andeq	r0, r3, r8, rrx
     d94:	62656400 	rsbvs	r6, r5, #0	; 0x0
     d98:	682e6775 	stmvsda	lr!, {r0, r2, r4, r5, r6, r8, r9, sl, sp, lr}
     d9c:	00000300 	andeq	r0, r0, r0, lsl #6
     da0:	02050000 	andeq	r0, r5, #0	; 0x0
     da4:	a3000c6c 	movwge	r0, #3180	; 0xc6c
     da8:	33011503 	movwcc	r1, #5379	; 0x1503
     dac:	02044d4a 	andeq	r4, r4, #4736	; 0x1280
     db0:	20081d03 	andcs	r1, r8, r3, lsl #26
     db4:	01042f2f 	tsteq	r4, pc, lsr #30
     db8:	d72e6603 	strle	r6, [lr, -r3, lsl #12]!
     dbc:	6a153002 	bvs	54cdcc <_start-0xa2ab3234>
     dc0:	864e6a6a 	strhib	r6, [lr], -sl, ror #20
     dc4:	6a6a4e6a 	bvs	1a94774 <_start-0xa156b88c>
     dc8:	03020486 	movweq	r0, #9350	; 0x2486
     dcc:	2f2f4a74 	svccs	0x002f4a74
     dd0:	11030104 	tstne	r3, r4, lsl #2
     dd4:	0223082e 	eoreq	r0, r3, #3014656	; 0x2e0000
     dd8:	0101000c 	tsteq	r1, ip
     ddc:	000000bc 	streqh	r0, [r0], -ip
     de0:	009b0002 	addeqs	r0, fp, r2
     de4:	01020000 	tsteq	r2, r0
     de8:	000d0efb 	streqd	r0, [sp], -fp
     dec:	01010101 	tsteq	r1, r1, lsl #2
     df0:	01000000 	tsteq	r0, r0
     df4:	2f010000 	svccs	0x00010000
     df8:	656d6f68 	strvsb	r6, [sp, #-3944]!
     dfc:	62616a2f 	rsbvs	r6, r1, #192512	; 0x2f000
     e00:	442f7461 	strmit	r7, [pc], #1121	; e08 <_start-0xa2fff1f8>
     e04:	6d75636f 	ldcvsl	3, cr6, [r5, #-444]!
     e08:	73746e65 	cmnvc	r4, #1616	; 0x650
     e0c:	626d652f 	rsbvs	r6, sp, #197132288	; 0xbc00000
     e10:	65646465 	strvsb	r6, [r4, #-1125]!
     e14:	616c5f64 	cmnvs	ip, r4, ror #30
     e18:	6c2f7362 	stcvs	3, cr7, [pc], #-392
     e1c:	2f346261 	svccs	0x00346261
     e20:	6e72656b 	cdpvs	5, 7, cr6, cr2, cr11, {3}
     e24:	692f6c65 	stmvsdb	pc!, {r0, r2, r5, r6, sl, fp, sp, lr}
     e28:	756c636e 	strvcb	r6, [ip, #-878]!
     e2c:	612f6564 	teqvs	pc, r4, ror #10
     e30:	2f006d72 	svccs	0x00006d72
     e34:	656d6f68 	strvsb	r6, [sp, #-3944]!
     e38:	62616a2f 	rsbvs	r6, r1, #192512	; 0x2f000
     e3c:	442f7461 	strmit	r7, [pc], #1121	; e44 <_start-0xa2fff1bc>
     e40:	6d75636f 	ldcvsl	3, cr6, [r5, #-444]!
     e44:	73746e65 	cmnvc	r4, #1616	; 0x650
     e48:	626d652f 	rsbvs	r6, sp, #197132288	; 0xbc00000
     e4c:	65646465 	strvsb	r6, [r4, #-1125]!
     e50:	616c5f64 	cmnvs	ip, r4, ror #30
     e54:	6c2f7362 	stcvs	3, cr7, [pc], #-392
     e58:	2f346261 	svccs	0x00346261
     e5c:	6e72656b 	cdpvs	5, 7, cr6, cr2, cr11, {3}
     e60:	692f6c65 	stmvsdb	pc!, {r0, r2, r5, r6, sl, fp, sp, lr}
     e64:	756c636e 	strvcb	r6, [ip, #-878]!
     e68:	00006564 	andeq	r6, r0, r4, ror #10
     e6c:	2e676572 	mcrcs	5, 3, r6, cr7, cr2, {3}
     e70:	00010068 	andeq	r0, r1, r8, rrx
     e74:	70797400 	rsbvcs	r7, r9, r0, lsl #8
     e78:	682e7365 	stmvsda	lr!, {r0, r2, r5, r6, r8, r9, ip, sp, lr}
     e7c:	00000200 	andeq	r0, r0, r0, lsl #4
     e80:	02050000 	andeq	r0, r5, #0	; 0x0
     e84:	a3000df4 	movwge	r0, #3572	; 0xdf4
     e88:	4b011303 	blmi	45a9c <_start-0xa2fba564>
     e8c:	32322e32 	eorccs	r2, r2, #800	; 0x320
     e90:	324b2e2f 	subcc	r2, fp, #752	; 0x2f0
     e94:	024b2e2f 	subeq	r2, fp, #752	; 0x2f0
     e98:	01010002 	tsteq	r1, r2
     e9c:	000000b3 	streqh	r0, [r0], -r3
     ea0:	009b0002 	addeqs	r0, fp, r2
     ea4:	01020000 	tsteq	r2, r0
     ea8:	000d0efb 	streqd	r0, [sp], -fp
     eac:	01010101 	tsteq	r1, r1, lsl #2
     eb0:	01000000 	tsteq	r0, r0
     eb4:	2f010000 	svccs	0x00010000
     eb8:	656d6f68 	strvsb	r6, [sp, #-3944]!
     ebc:	62616a2f 	rsbvs	r6, r1, #192512	; 0x2f000
     ec0:	442f7461 	strmit	r7, [pc], #1121	; ec8 <_start-0xa2fff138>
     ec4:	6d75636f 	ldcvsl	3, cr6, [r5, #-444]!
     ec8:	73746e65 	cmnvc	r4, #1616	; 0x650
     ecc:	626d652f 	rsbvs	r6, sp, #197132288	; 0xbc00000
     ed0:	65646465 	strvsb	r6, [r4, #-1125]!
     ed4:	616c5f64 	cmnvs	ip, r4, ror #30
     ed8:	6c2f7362 	stcvs	3, cr7, [pc], #-392
     edc:	2f346261 	svccs	0x00346261
     ee0:	6e72656b 	cdpvs	5, 7, cr6, cr2, cr11, {3}
     ee4:	692f6c65 	stmvsdb	pc!, {r0, r2, r5, r6, sl, fp, sp, lr}
     ee8:	756c636e 	strvcb	r6, [ip, #-878]!
     eec:	612f6564 	teqvs	pc, r4, ror #10
     ef0:	2f006d72 	svccs	0x00006d72
     ef4:	656d6f68 	strvsb	r6, [sp, #-3944]!
     ef8:	62616a2f 	rsbvs	r6, r1, #192512	; 0x2f000
     efc:	442f7461 	strmit	r7, [pc], #1121	; f04 <_start-0xa2fff0fc>
     f00:	6d75636f 	ldcvsl	3, cr6, [r5, #-444]!
     f04:	73746e65 	cmnvc	r4, #1616	; 0x650
     f08:	626d652f 	rsbvs	r6, sp, #197132288	; 0xbc00000
     f0c:	65646465 	strvsb	r6, [r4, #-1125]!
     f10:	616c5f64 	cmnvs	ip, r4, ror #30
     f14:	6c2f7362 	stcvs	3, cr7, [pc], #-392
     f18:	2f346261 	svccs	0x00346261
     f1c:	6e72656b 	cdpvs	5, 7, cr6, cr2, cr11, {3}
     f20:	692f6c65 	stmvsdb	pc!, {r0, r2, r5, r6, sl, fp, sp, lr}
     f24:	756c636e 	strvcb	r6, [ip, #-878]!
     f28:	00006564 	andeq	r6, r0, r4, ror #10
     f2c:	2e727370 	mrccs	3, 3, r7, cr2, cr0, {3}
     f30:	00010068 	andeq	r0, r1, r8, rrx
     f34:	70797400 	rsbvcs	r7, r9, r0, lsl #8
     f38:	682e7365 	stmvsda	lr!, {r0, r2, r5, r6, r8, r9, ip, sp, lr}
     f3c:	00000200 	andeq	r0, r0, r0, lsl #4
     f40:	02050000 	andeq	r0, r5, #0	; 0x0
     f44:	a3000e34 	movwge	r0, #3636	; 0xe34
     f48:	30012403 	andcc	r2, r1, r3, lsl #8
     f4c:	02023232 	andeq	r3, r2, #536870915	; 0x20000003
     f50:	7d010100 	stfvcs	f0, [r1]
     f54:	02000000 	andeq	r0, r0, #0	; 0x0
     f58:	00005400 	andeq	r5, r0, r0, lsl #8
     f5c:	fb010200 	blx	41766 <_start-0xa2fbe89a>
     f60:	01000d0e 	tsteq	r0, lr, lsl #26
     f64:	00010101 	andeq	r0, r1, r1, lsl #2
     f68:	00010000 	andeq	r0, r1, r0
     f6c:	682f0100 	stmvsda	pc!, {r8}
     f70:	2f656d6f 	svccs	0x00656d6f
     f74:	6162616a 	cmnvs	r2, sl, ror #2
     f78:	6f442f74 	svcvs	0x00442f74
     f7c:	656d7563 	strvsb	r7, [sp, #-1379]!
     f80:	2f73746e 	svccs	0x0073746e
     f84:	65626d65 	strvsb	r6, [r2, #-3429]!
     f88:	64656464 	strvsbt	r6, [r5], #-1124
     f8c:	62616c5f 	rsbvs	r6, r1, #24320	; 0x5f00
     f90:	616c2f73 	smcvs	49907
     f94:	6b2f3462 	blvs	bce124 <_start-0xa2431edc>
     f98:	656e7265 	strvsb	r7, [lr, #-613]!
     f9c:	72612f6c 	rsbvc	r2, r1, #432	; 0x1b0
     fa0:	6900006d 	stmvsdb	r0, {r0, r2, r3, r5, r6}
     fa4:	615f746e 	cmpvs	pc, lr, ror #8
     fa8:	532e6d73 	teqpl	lr, #7360	; 0x1cc0
     fac:	00000100 	andeq	r0, r0, r0, lsl #2
     fb0:	02050000 	andeq	r0, r5, #0	; 0x0
     fb4:	a3000e44 	movwge	r0, #3652	; 0xe44
     fb8:	31011403 	tstcc	r1, r3, lsl #8
     fbc:	312f312f 	teqcc	pc, pc, lsr #2
     fc0:	2f2f3535 	svccs	0x002f3535
     fc4:	2f2f312f 	svccs	0x002f312f
     fc8:	34312f31 	ldrcct	r2, [r1], #-3889
     fcc:	022f2f2f 	eoreq	r2, pc, #188	; 0xbc
     fd0:	01010008 	tsteq	r1, r8
     fd4:	000000ee 	andeq	r0, r0, lr, ror #1
     fd8:	00a10002 	adceq	r0, r1, r2
     fdc:	01020000 	tsteq	r2, r0
     fe0:	000d0efb 	streqd	r0, [sp], -fp
     fe4:	01010101 	tsteq	r1, r1, lsl #2
     fe8:	01000000 	tsteq	r0, r0
     fec:	2f010000 	svccs	0x00010000
     ff0:	656d6f68 	strvsb	r6, [sp, #-3944]!
     ff4:	62616a2f 	rsbvs	r6, r1, #192512	; 0x2f000
     ff8:	442f7461 	strmit	r7, [pc], #1121	; 1000 <_start-0xa2fff000>
     ffc:	6d75636f 	ldcvsl	3, cr6, [r5, #-444]!
    1000:	73746e65 	cmnvc	r4, #1616	; 0x650
    1004:	626d652f 	rsbvs	r6, sp, #197132288	; 0xbc00000
    1008:	65646465 	strvsb	r6, [r4, #-1125]!
    100c:	616c5f64 	cmnvs	ip, r4, ror #30
    1010:	6c2f7362 	stcvs	3, cr7, [pc], #-392
    1014:	2f346261 	svccs	0x00346261
    1018:	6e72656b 	cdpvs	5, 7, cr6, cr2, cr11, {3}
    101c:	732f6c65 	teqvc	pc, #25856	; 0x6500
    1020:	61637379 	smcvs	14137
    1024:	2f006c6c 	svccs	0x00006c6c
    1028:	656d6f68 	strvsb	r6, [sp, #-3944]!
    102c:	62616a2f 	rsbvs	r6, r1, #192512	; 0x2f000
    1030:	442f7461 	strmit	r7, [pc], #1121	; 1038 <_start-0xa2ffefc8>
    1034:	6d75636f 	ldcvsl	3, cr6, [r5, #-444]!
    1038:	73746e65 	cmnvc	r4, #1616	; 0x650
    103c:	626d652f 	rsbvs	r6, sp, #197132288	; 0xbc00000
    1040:	65646465 	strvsb	r6, [r4, #-1125]!
    1044:	616c5f64 	cmnvs	ip, r4, ror #30
    1048:	6c2f7362 	stcvs	3, cr7, [pc], #-392
    104c:	2f346261 	svccs	0x00346261
    1050:	6e72656b 	cdpvs	5, 7, cr6, cr2, cr11, {3}
    1054:	692f6c65 	stmvsdb	pc!, {r0, r2, r5, r6, sl, fp, sp, lr}
    1058:	756c636e 	strvcb	r6, [ip, #-878]!
    105c:	00006564 	andeq	r6, r0, r4, ror #10
    1060:	632e6f69 	teqvs	lr, #420	; 0x1a4
    1064:	00000100 	andeq	r0, r0, r0, lsl #2
    1068:	65707974 	ldrvsb	r7, [r0, #-2420]!
    106c:	00682e73 	rsbeq	r2, r8, r3, ror lr
    1070:	64000002 	strvs	r0, [r0], #-2
    1074:	67756265 	ldrvsb	r6, [r5, -r5, ror #4]!
    1078:	0200682e 	andeq	r6, r0, #3014656	; 0x2e0000
    107c:	00000000 	andeq	r0, r0, r0
    1080:	0ea40205 	cdpeq	2, 10, cr0, cr4, cr5, {0}
    1084:	f403a300 	vst2.8	{d10-d13}, [r3], r0
    1088:	7a030100 	bvc	c1490 <_start-0xa2f3eb70>
    108c:	2f502e2e 	svccs	0x00502e2e
    1090:	fa2108f7 	blx	843474 <_start-0xa27bcb8c>
    1094:	322c2d2f 	eorcc	r2, ip, #3008	; 0xbc0
    1098:	4a0a032a 	bmi	281d48 <_start-0xa2d7e2b8>
    109c:	827f9803 	rsbhis	r9, pc, #196608	; 0x30000
    10a0:	2e7a0334 	mrccs	3, 3, r0, cr10, cr4, {1}
    10a4:	0b036b50 	bleq	dbdec <_start-0xa2f24214>
    10a8:	084b2008 	stmeqda	fp, {r3, sp}^
    10ac:	4a0b0377 	bmi	2c1e90 <_start-0xa2d3e170>
    10b0:	0b034b2f 	bleq	d3d74 <_start-0xa2f2c28c>
    10b4:	4e2f4c66 	cdpmi	12, 2, cr4, cr15, cr6, {3}
    10b8:	59032f2f 	stmpldb	r3, {r0, r1, r2, r3, r5, r8, r9, sl, fp, sp}
    10bc:	4a2b032e 	bmi	ac1d7c <_start-0xa253e284>
    10c0:	00040230 	andeq	r0, r4, r0, lsr r2
    10c4:	01510101 	cmpeq	r1, r1, lsl #2
    10c8:	00020000 	andeq	r0, r2, r0
    10cc:	000000f8 	streqd	r0, [r0], -r8
    10d0:	0efb0102 	cdpeq	1, 15, cr0, cr11, cr2, {0}
    10d4:	0101000d 	tsteq	r1, sp
    10d8:	00000101 	andeq	r0, r0, r1, lsl #2
    10dc:	00000100 	andeq	r0, r0, r0, lsl #2
    10e0:	6f682f01 	svcvs	0x00682f01
    10e4:	6a2f656d 	bvs	bda6a0 <_start-0xa2425960>
    10e8:	74616261 	strvcbt	r6, [r1], #-609
    10ec:	636f442f 	cmnvs	pc, #788529152	; 0x2f000000
    10f0:	6e656d75 	mcrvs	13, 3, r6, cr5, cr5, {3}
    10f4:	652f7374 	strvs	r7, [pc, #-884]!	; d88 <_start-0xa2fff278>
    10f8:	6465626d 	strvsbt	r6, [r5], #-621
    10fc:	5f646564 	svcpl	0x00646564
    1100:	7362616c 	cmnvc	r2, #27	; 0x1b
    1104:	62616c2f 	rsbvs	r6, r1, #12032	; 0x2f00
    1108:	656b2f34 	strvsb	r2, [fp, #-3892]!
    110c:	6c656e72 	stcvsl	14, cr6, [r5], #-456
    1110:	7379732f 	cmnvc	r9, #-1140850688	; 0xbc000000
    1114:	6c6c6163 	stfvse	f6, [ip], #-396
    1118:	6f682f00 	svcvs	0x00682f00
    111c:	6a2f656d 	bvs	bda6d8 <_start-0xa2425928>
    1120:	74616261 	strvcbt	r6, [r1], #-609
    1124:	636f442f 	cmnvs	pc, #788529152	; 0x2f000000
    1128:	6e656d75 	mcrvs	13, 3, r6, cr5, cr5, {3}
    112c:	652f7374 	strvs	r7, [pc, #-884]!	; dc0 <_start-0xa2fff240>
    1130:	6465626d 	strvsbt	r6, [r5], #-621
    1134:	5f646564 	svcpl	0x00646564
    1138:	7362616c 	cmnvc	r2, #27	; 0x1b
    113c:	62616c2f 	rsbvs	r6, r1, #12032	; 0x2f00
    1140:	656b2f34 	strvsb	r2, [fp, #-3892]!
    1144:	6c656e72 	stcvsl	14, cr6, [r5], #-456
    1148:	636e692f 	cmnvs	lr, #770048	; 0xbc000
    114c:	6564756c 	strvsb	r7, [r4, #-1388]!
    1150:	6d72612f 	ldfvse	f6, [r2, #-188]!
    1154:	6f682f00 	svcvs	0x00682f00
    1158:	6a2f656d 	bvs	bda714 <_start-0xa24258ec>
    115c:	74616261 	strvcbt	r6, [r1], #-609
    1160:	636f442f 	cmnvs	pc, #788529152	; 0x2f000000
    1164:	6e656d75 	mcrvs	13, 3, r6, cr5, cr5, {3}
    1168:	652f7374 	strvs	r7, [pc, #-884]!	; dfc <_start-0xa2fff204>
    116c:	6465626d 	strvsbt	r6, [r5], #-621
    1170:	5f646564 	svcpl	0x00646564
    1174:	7362616c 	cmnvc	r2, #27	; 0x1b
    1178:	62616c2f 	rsbvs	r6, r1, #12032	; 0x2f00
    117c:	656b2f34 	strvsb	r2, [fp, #-3892]!
    1180:	6c656e72 	stcvsl	14, cr6, [r5], #-456
    1184:	636e692f 	cmnvs	lr, #770048	; 0xbc000
    1188:	6564756c 	strvsb	r7, [r4, #-1388]!
    118c:	72700000 	rsbvcs	r0, r0, #0	; 0x0
    1190:	632e636f 	teqvs	lr, #-1140850687	; 0xbc000001
    1194:	00000100 	andeq	r0, r0, r0, lsl #2
    1198:	65637865 	strvsb	r7, [r3, #-2149]!
    119c:	6f697470 	svcvs	0x00697470
    11a0:	00682e6e 	rsbeq	r2, r8, lr, ror #28
    11a4:	74000002 	strvc	r0, [r0], #-2
    11a8:	73657079 	cmnvc	r5, #121	; 0x79
    11ac:	0300682e 	movweq	r6, #2094	; 0x82e
    11b0:	61740000 	cmnvs	r4, r0
    11b4:	682e6b73 	stmvsda	lr!, {r0, r1, r4, r5, r6, r8, r9, fp, sp, lr}
    11b8:	00000300 	andeq	r0, r0, r0, lsl #6
    11bc:	75626564 	strvcb	r6, [r2, #-1380]!
    11c0:	00682e67 	rsbeq	r2, r8, r7, ror #28
    11c4:	00000003 	andeq	r0, r0, r3
    11c8:	14020500 	strne	r0, [r2], #-1280
    11cc:	03a30010 	moveq	r0, #16	; 0x10
    11d0:	2f0100d3 	svccs	0x000100d3
    11d4:	0302042e 	movweq	r0, #9262	; 0x242e
    11d8:	04302e6e 	ldreqt	r2, [r0], #-3694
    11dc:	82590301 	subhis	r0, r9, #67108864	; 0x4000000
    11e0:	0302044a 	movweq	r0, #9290	; 0x244a
    11e4:	04304a25 	ldreqt	r4, [r0], #-2597
    11e8:	4a5c0301 	bmi	1701df4 <_start-0xa18fe20c>
    11ec:	2e1003bf 	mrccs	3, 0, r0, cr0, cr15, {5}
    11f0:	034a7003 	movteq	r7, #40963	; 0xa003
    11f4:	9f314a10 	svcls	0x00314a10
    11f8:	302f0204 	eorcc	r0, pc, r4, lsl #4
    11fc:	bd680104 	stflte	f0, [r8, #-16]!
    1200:	2f02042e 	svccs	0x0002042e
    1204:	4a010430 	bmi	422cc <_start-0xa2fbdd34>
    1208:	04a04cbb 	streqt	r4, [r0], #3259
    120c:	2e710302 	cdpcs	3, 7, cr0, cr1, cr2, {0}
    1210:	03010430 	movweq	r0, #5168	; 0x1430
    1214:	0a024a13 	beq	93a68 <_start-0xa2f6c598>
    1218:	48010100 	stmmida	r1, {r8}
    121c:	02000001 	andeq	r0, r0, #1	; 0x1
    1220:	0000ee00 	andeq	lr, r0, r0, lsl #28
    1224:	fb010200 	blx	41a2e <_start-0xa2fbe5d2>
    1228:	01000d0e 	tsteq	r0, lr, lsl #26
    122c:	00010101 	andeq	r0, r1, r1, lsl #2
    1230:	00010000 	andeq	r0, r1, r0
    1234:	682f0100 	stmvsda	pc!, {r8}
    1238:	2f656d6f 	svccs	0x00656d6f
    123c:	6162616a 	cmnvs	r2, sl, ror #2
    1240:	6f442f74 	svcvs	0x00442f74
    1244:	656d7563 	strvsb	r7, [sp, #-1379]!
    1248:	2f73746e 	svccs	0x0073746e
    124c:	65626d65 	strvsb	r6, [r2, #-3429]!
    1250:	64656464 	strvsbt	r6, [r5], #-1124
    1254:	62616c5f 	rsbvs	r6, r1, #24320	; 0x5f00
    1258:	616c2f73 	smcvs	49907
    125c:	6b2f3462 	blvs	bce3ec <_start-0xa2431c14>
    1260:	656e7265 	strvsb	r7, [lr, #-613]!
    1264:	79732f6c 	ldmvcdb	r3!, {r2, r3, r5, r6, r8, r9, sl, fp, sp}^
    1268:	6c616373 	stcvsl	3, cr6, [r1], #-460
    126c:	682f006c 	stmvsda	pc!, {r2, r3, r5, r6}
    1270:	2f656d6f 	svccs	0x00656d6f
    1274:	6162616a 	cmnvs	r2, sl, ror #2
    1278:	6f442f74 	svcvs	0x00442f74
    127c:	656d7563 	strvsb	r7, [sp, #-1379]!
    1280:	2f73746e 	svccs	0x0073746e
    1284:	65626d65 	strvsb	r6, [r2, #-3429]!
    1288:	64656464 	strvsbt	r6, [r5], #-1124
    128c:	62616c5f 	rsbvs	r6, r1, #24320	; 0x5f00
    1290:	616c2f73 	smcvs	49907
    1294:	6b2f3462 	blvs	bce424 <_start-0xa2431bdc>
    1298:	656e7265 	strvsb	r7, [lr, #-613]!
    129c:	6e692f6c 	cdpvs	15, 6, cr2, cr9, cr12, {3}
    12a0:	64756c63 	ldrvsbt	r6, [r5], #-3171
    12a4:	72612f65 	rsbvc	r2, r1, #404	; 0x194
    12a8:	682f006d 	stmvsda	pc!, {r0, r2, r3, r5, r6}
    12ac:	2f656d6f 	svccs	0x00656d6f
    12b0:	6162616a 	cmnvs	r2, sl, ror #2
    12b4:	6f442f74 	svcvs	0x00442f74
    12b8:	656d7563 	strvsb	r7, [sp, #-1379]!
    12bc:	2f73746e 	svccs	0x0073746e
    12c0:	65626d65 	strvsb	r6, [r2, #-3429]!
    12c4:	64656464 	strvsbt	r6, [r5], #-1124
    12c8:	62616c5f 	rsbvs	r6, r1, #24320	; 0x5f00
    12cc:	616c2f73 	smcvs	49907
    12d0:	6b2f3462 	blvs	bce460 <_start-0xa2431ba0>
    12d4:	656e7265 	strvsb	r7, [lr, #-613]!
    12d8:	6e692f6c 	cdpvs	15, 6, cr2, cr9, cr12, {3}
    12dc:	64756c63 	ldrvsbt	r6, [r5], #-3171
    12e0:	74000065 	strvc	r0, [r0], #-101
    12e4:	2e656d69 	cdpcs	13, 6, cr6, cr5, cr9, {3}
    12e8:	00010063 	andeq	r0, r1, r3, rrx
    12ec:	63786500 	cmnvs	r8, #0	; 0x0
    12f0:	69747065 	ldmvsdb	r4!, {r0, r2, r5, r6, ip, sp, lr}^
    12f4:	682e6e6f 	stmvsda	lr!, {r0, r1, r2, r3, r5, r6, r9, sl, fp, sp, lr}
    12f8:	00000200 	andeq	r0, r0, r0, lsl #4
    12fc:	65707974 	ldrvsb	r7, [r0, #-2420]!
    1300:	00682e73 	rsbeq	r2, r8, r3, ror lr
    1304:	74000003 	strvc	r0, [r0], #-3
    1308:	72656d69 	rsbvc	r6, r5, #6720	; 0x1a40
    130c:	0200682e 	andeq	r6, r0, #3014656	; 0x2e0000
    1310:	04000000 	streq	r0, [r0]
    1314:	02050002 	andeq	r0, r5, #2	; 0x2
    1318:	a300112c 	movwge	r1, #300	; 0x12c
    131c:	0100c203 	tsteq	r0, r3, lsl #4
    1320:	01042f2f 	tsteq	r4, pc, lsr #30
    1324:	042e5703 	streqt	r5, [lr], #-1795
    1328:	4a1f0302 	bmi	7c1f38 <_start-0xa283e0c8>
    132c:	01042f2f 	tsteq	r4, pc, lsr #30
    1330:	042e6203 	streqt	r6, [lr], #-515
    1334:	4a240302 	bmi	901f44 <_start-0xa26fe0bc>
    1338:	01042f2f 	tsteq	r4, pc, lsr #30
    133c:	042e6c03 	streqt	r6, [lr], #-3075
    1340:	4a0a0302 	bmi	281f50 <_start-0xa2d7e0b0>
    1344:	01042f2f 	tsteq	r4, pc, lsr #30
    1348:	042e7703 	streqt	r7, [lr], #-1795
    134c:	4a0f0302 	bmi	3c1f5c <_start-0xa2c3e0a4>
    1350:	01042f2f 	tsteq	r4, pc, lsr #30
    1354:	042e7503 	streqt	r7, [lr], #-1283
    1358:	2f2f4b02 	svccs	0x002f4b02
    135c:	7a030104 	bvc	c1774 <_start-0xa2f3e88c>
    1360:	0402512e 	streq	r5, [r2], #-302
    1364:	5a010100 	bpl	4176c <_start-0xa2fbe894>
    1368:	02000001 	andeq	r0, r0, #1	; 0x1
    136c:	0000f700 	andeq	pc, r0, r0, lsl #14
    1370:	fb010200 	blx	41b7a <_start-0xa2fbe486>
    1374:	01000d0e 	tsteq	r0, lr, lsl #26
    1378:	00010101 	andeq	r0, r1, r1, lsl #2
    137c:	00010000 	andeq	r0, r1, r0
    1380:	682f0100 	stmvsda	pc!, {r8}
    1384:	2f656d6f 	svccs	0x00656d6f
    1388:	6162616a 	cmnvs	r2, sl, ror #2
    138c:	6f442f74 	svcvs	0x00442f74
    1390:	656d7563 	strvsb	r7, [sp, #-1379]!
    1394:	2f73746e 	svccs	0x0073746e
    1398:	65626d65 	strvsb	r6, [r2, #-3429]!
    139c:	64656464 	strvsbt	r6, [r5], #-1124
    13a0:	62616c5f 	rsbvs	r6, r1, #24320	; 0x5f00
    13a4:	616c2f73 	smcvs	49907
    13a8:	6b2f3462 	blvs	bce538 <_start-0xa2431ac8>
    13ac:	656e7265 	strvsb	r7, [lr, #-613]!
    13b0:	63732f6c 	cmnvs	r3, #432	; 0x1b0
    13b4:	00646568 	rsbeq	r6, r4, r8, ror #10
    13b8:	6d6f682f 	stcvsl	8, cr6, [pc, #-188]!
    13bc:	616a2f65 	cmnvs	sl, r5, ror #30
    13c0:	2f746162 	svccs	0x00746162
    13c4:	75636f44 	strvcb	r6, [r3, #-3908]!
    13c8:	746e656d 	strvcbt	r6, [lr], #-1389
    13cc:	6d652f73 	stcvsl	15, cr2, [r5, #-460]!
    13d0:	64646562 	strvsbt	r6, [r4], #-1378
    13d4:	6c5f6465 	cfldrdvs	mvd6, [pc], {101}
    13d8:	2f736261 	svccs	0x00736261
    13dc:	3462616c 	strccbt	r6, [r2], #-364
    13e0:	72656b2f 	rsbvc	r6, r5, #48128	; 0xbc00
    13e4:	2f6c656e 	svccs	0x006c656e
    13e8:	6c636e69 	stcvsl	14, cr6, [r3], #-420
    13ec:	2f656475 	svccs	0x00656475
    13f0:	006d7261 	rsbeq	r7, sp, r1, ror #4
    13f4:	6d6f682f 	stcvsl	8, cr6, [pc, #-188]!
    13f8:	616a2f65 	cmnvs	sl, r5, ror #30
    13fc:	2f746162 	svccs	0x00746162
    1400:	75636f44 	strvcb	r6, [r3, #-3908]!
    1404:	746e656d 	strvcbt	r6, [lr], #-1389
    1408:	6d652f73 	stcvsl	15, cr2, [r5, #-460]!
    140c:	64646562 	strvsbt	r6, [r4], #-1378
    1410:	6c5f6465 	cfldrdvs	mvd6, [pc], {101}
    1414:	2f736261 	svccs	0x00736261
    1418:	3462616c 	strccbt	r6, [r2], #-364
    141c:	72656b2f 	rsbvc	r6, r5, #48128	; 0xbc00
    1420:	2f6c656e 	svccs	0x006c656e
    1424:	6c636e69 	stcvsl	14, cr6, [r3], #-420
    1428:	00656475 	rsbeq	r6, r5, r5, ror r4
    142c:	68637300 	stmvsda	r3!, {r8, r9, ip, sp, lr}^
    1430:	632e6465 	teqvs	lr, #1694498816	; 0x65000000
    1434:	00000100 	andeq	r0, r0, r0, lsl #2
    1438:	65637865 	strvsb	r7, [r3, #-2149]!
    143c:	6f697470 	svcvs	0x00697470
    1440:	00682e6e 	rsbeq	r2, r8, lr, ror #28
    1444:	74000002 	strvc	r0, [r0], #-2
    1448:	2e6b7361 	cdpcs	3, 6, cr7, cr11, cr1, {3}
    144c:	00030068 	andeq	r0, r3, r8, rrx
    1450:	70797400 	rsbvcs	r7, r9, r0, lsl #8
    1454:	682e7365 	stmvsda	lr!, {r0, r2, r5, r6, r8, r9, ip, sp, lr}
    1458:	00000300 	andeq	r0, r0, r0, lsl #6
    145c:	75626564 	strvcb	r6, [r2, #-1380]!
    1460:	00682e67 	rsbeq	r2, r8, r7, ror #28
    1464:	00000003 	andeq	r0, r0, r3
    1468:	ac020500 	cfstr32ge	mvfx0, [r2], {0}
    146c:	03a30011 	moveq	r0, #17	; 0x11
    1470:	0204011f 	andeq	r0, r4, #-1073741817	; 0xc0000007
    1474:	302e1b03 	eorcc	r1, lr, r3, lsl #22
    1478:	2f630104 	svccs	0x00630104
    147c:	03a14b2d 	moveq	r4, #46080	; 0xb400
    1480:	23082e0c 	movwcs	r2, #36364	; 0x8e0c
    1484:	03826d03 	orreq	r6, r2, #192	; 0xc0
    1488:	6b032e15 	blvs	ccce4 <_start-0xa2f3331c>
    148c:	2e18034a 	cdpcs	3, 1, cr0, cr8, cr10, {2}
    1490:	09032a2f 	stmeqdb	r3, {r0, r1, r2, r3, r5, r9, fp, sp}
    1494:	302f2c2e 	eorcc	r2, pc, lr, lsr #24
    1498:	2d312f2b 	ldccs	15, cr2, [r1, #-172]!
    149c:	2f2f2a31 	svccs	0x002f2a31
    14a0:	03342f30 	teqeq	r4, #192	; 0xc0
    14a4:	2a6a4a68 	bcs	1a93e4c <_start-0xa156c1b4>
    14a8:	1b034830 	blne	d3570 <_start-0xa2f2ca90>
    14ac:	2d4bbf66 	stccsl	15, cr11, [fp, #-408]
    14b0:	2d4b304b 	stccsl	0, cr3, [fp, #-300]
    14b4:	4b4b2d30 	blmi	12cc97c <_start-0xa1d33684>
    14b8:	674e4b67 	strvsb	r4, [lr, -r7, ror #22]
    14bc:	2d834b9f 	vstrcs	d4, [r3, #636]
    14c0:	01002202 	tsteq	r0, r2, lsl #4
    14c4:	0000b901 	andeq	fp, r0, r1, lsl #18
    14c8:	a3000200 	movwge	r0, #512	; 0x200
    14cc:	02000000 	andeq	r0, r0, #0	; 0x0
    14d0:	0d0efb01 	vstreq	d15, [lr, #-4]
    14d4:	01010100 	tsteq	r1, r0, lsl #2
    14d8:	00000001 	andeq	r0, r0, r1
    14dc:	01000001 	tsteq	r0, r1
    14e0:	6d6f682f 	stcvsl	8, cr6, [pc, #-188]!
    14e4:	616a2f65 	cmnvs	sl, r5, ror #30
    14e8:	2f746162 	svccs	0x00746162
    14ec:	75636f44 	strvcb	r6, [r3, #-3908]!
    14f0:	746e656d 	strvcbt	r6, [lr], #-1389
    14f4:	6d652f73 	stcvsl	15, cr2, [r5, #-460]!
    14f8:	64646562 	strvsbt	r6, [r4], #-1378
    14fc:	6c5f6465 	cfldrdvs	mvd6, [pc], {101}
    1500:	2f736261 	svccs	0x00736261
    1504:	3462616c 	strccbt	r6, [r2], #-364
    1508:	72656b2f 	rsbvc	r6, r5, #48128	; 0xbc00
    150c:	2f6c656e 	svccs	0x006c656e
    1510:	65686373 	strvsb	r6, [r8, #-883]!
    1514:	682f0064 	stmvsda	pc!, {r2, r5, r6}
    1518:	2f656d6f 	svccs	0x00656d6f
    151c:	6162616a 	cmnvs	r2, sl, ror #2
    1520:	6f442f74 	svcvs	0x00442f74
    1524:	656d7563 	strvsb	r7, [sp, #-1379]!
    1528:	2f73746e 	svccs	0x0073746e
    152c:	65626d65 	strvsb	r6, [r2, #-3429]!
    1530:	64656464 	strvsbt	r6, [r5], #-1124
    1534:	62616c5f 	rsbvs	r6, r1, #24320	; 0x5f00
    1538:	616c2f73 	smcvs	49907
    153c:	6b2f3462 	blvs	bce6cc <_start-0xa2431934>
    1540:	656e7265 	strvsb	r7, [lr, #-613]!
    1544:	6e692f6c 	cdpvs	15, 6, cr2, cr9, cr12, {3}
    1548:	64756c63 	ldrvsbt	r6, [r5], #-3171
    154c:	75000065 	strvc	r0, [r0, #-101]
    1550:	65745f62 	ldrvsb	r5, [r4, #-3938]!
    1554:	632e7473 	teqvs	lr, #1929379840	; 0x73000000
    1558:	00000100 	andeq	r0, r0, r0, lsl #2
    155c:	6b736174 	blvs	1cd9b34 <_start-0xa13264cc>
    1560:	0200682e 	andeq	r6, r0, #3014656	; 0x2e0000
    1564:	79740000 	ldmvcdb	r4!, {}^
    1568:	2e736570 	mrccs	5, 3, r6, cr3, cr0, {3}
    156c:	00020068 	andeq	r0, r2, r8, rrx
    1570:	05000000 	streq	r0, [r0]
    1574:	00139002 	andeqs	r9, r3, r2
    1578:	012103a3 	smulwbeq	r1, r3, r3
    157c:	0002022e 	andeq	r0, r2, lr, lsr #4
    1580:	012c0101 	teqeq	ip, r1, lsl #2
    1584:	00020000 	andeq	r0, r2, r0
    1588:	000000b1 	streqh	r0, [r0], -r1
    158c:	0efb0102 	cdpeq	1, 15, cr0, cr11, cr2, {0}
    1590:	0101000d 	tsteq	r1, sp
    1594:	00000101 	andeq	r0, r0, r1, lsl #2
    1598:	00000100 	andeq	r0, r0, r0, lsl #2
    159c:	6f682f01 	svcvs	0x00682f01
    15a0:	6a2f656d 	bvs	bdab5c <_start-0xa24254a4>
    15a4:	74616261 	strvcbt	r6, [r1], #-609
    15a8:	636f442f 	cmnvs	pc, #788529152	; 0x2f000000
    15ac:	6e656d75 	mcrvs	13, 3, r6, cr5, cr5, {3}
    15b0:	652f7374 	strvs	r7, [pc, #-884]!	; 1244 <_start-0xa2ffedbc>
    15b4:	6465626d 	strvsbt	r6, [r5], #-621
    15b8:	5f646564 	svcpl	0x00646564
    15bc:	7362616c 	cmnvc	r2, #27	; 0x1b
    15c0:	62616c2f 	rsbvs	r6, r1, #12032	; 0x2f00
    15c4:	656b2f34 	strvsb	r2, [fp, #-3892]!
    15c8:	6c656e72 	stcvsl	14, cr6, [r5], #-456
    15cc:	6863732f 	stmvsda	r3!, {r0, r1, r2, r3, r5, r8, r9, ip, sp, lr}^
    15d0:	2f006465 	svccs	0x00006465
    15d4:	656d6f68 	strvsb	r6, [sp, #-3944]!
    15d8:	62616a2f 	rsbvs	r6, r1, #192512	; 0x2f000
    15dc:	442f7461 	strmit	r7, [pc], #1121	; 15e4 <_start-0xa2ffea1c>
    15e0:	6d75636f 	ldcvsl	3, cr6, [r5, #-444]!
    15e4:	73746e65 	cmnvc	r4, #1616	; 0x650
    15e8:	626d652f 	rsbvs	r6, sp, #197132288	; 0xbc00000
    15ec:	65646465 	strvsb	r6, [r4, #-1125]!
    15f0:	616c5f64 	cmnvs	ip, r4, ror #30
    15f4:	6c2f7362 	stcvs	3, cr7, [pc], #-392
    15f8:	2f346261 	svccs	0x00346261
    15fc:	6e72656b 	cdpvs	5, 7, cr6, cr2, cr11, {3}
    1600:	692f6c65 	stmvsdb	pc!, {r0, r2, r5, r6, sl, fp, sp, lr}
    1604:	756c636e 	strvcb	r6, [ip, #-878]!
    1608:	00006564 	andeq	r6, r0, r4, ror #10
    160c:	5f787463 	svcpl	0x00787463
    1610:	74697773 	strvcbt	r7, [r9], #-1907
    1614:	632e6863 	teqvs	lr, #6488064	; 0x630000
    1618:	00000100 	andeq	r0, r0, r0, lsl #2
    161c:	65707974 	ldrvsb	r7, [r0, #-2420]!
    1620:	00682e73 	rsbeq	r2, r8, r3, ror lr
    1624:	74000002 	strvc	r0, [r0], #-2
    1628:	2e6b7361 	cdpcs	3, 6, cr7, cr11, cr1, {3}
    162c:	00020068 	andeq	r0, r2, r8, rrx
    1630:	62656400 	rsbvs	r6, r5, #0	; 0x0
    1634:	682e6775 	stmvsda	lr!, {r0, r2, r4, r5, r6, r8, r9, sl, sp, lr}
    1638:	00000200 	andeq	r0, r0, r0, lsl #4
    163c:	02050000 	andeq	r0, r5, #0	; 0x0
    1640:	a3001398 	movwge	r1, #920	; 0x398
    1644:	0101a503 	tsteq	r1, r3, lsl #10
    1648:	2e524b2e 	fmscdcs	d20, d2, d30
    164c:	032f2e6b 	teqeq	pc, #1712	; 0x6b0
    1650:	2e827eef 	cdpcs	14, 8, cr7, cr2, cr15, {7}
    1654:	2f2d2f2d 	svccs	0x002d2f2d
    1658:	2f2e864a 	svccs	0x002e864a
    165c:	6767674b 	strvsb	r6, [r7, -fp, asr #14]!
    1660:	67676767 	strvsb	r6, [r7, -r7, ror #14]!
    1664:	2d4b6767 	stccsl	7, cr6, [fp, #-412]
    1668:	0800d203 	stmeqda	r0, {r0, r1, r9, ip, lr, pc}
    166c:	03352f74 	teqeq	r5, #464	; 0x1d0
    1670:	0f032e79 	svceq	0x00032e79
    1674:	2e71034a 	cdpcs	3, 7, cr0, cr1, cr10, {2}
    1678:	2f31d86b 	svccs	0x0031d86b
    167c:	83322a32 	teqhi	r2, #204800	; 0x32000
    1680:	790389d8 	stmvcdb	r3, {r3, r4, r6, r7, r8, fp, pc}
    1684:	ba51032e 	blt	1442344 <_start-0xa1bbdcbc>
    1688:	2ff5bd2f 	svccs	0x00f5bd2f
    168c:	2d2f2d2f 	stccs	13, cr2, [pc, #-188]!
    1690:	4a03a22f 	bmi	e9f54 <_start-0xa2f160ac>
    1694:	2a3231d6 	bcs	c8ddf4 <_start-0xa237220c>
    1698:	034a0c03 	movteq	r0, #44035	; 0xac03
    169c:	d9672e74 	stmledb	r7!, {r2, r4, r5, r6, r9, sl, fp, sp}^
    16a0:	2f2f6931 	svccs	0x002f6931
    16a4:	9fa64b2d 	svcls	0x00a64b2d
    16a8:	790389d7 	stmvcdb	r3, {r0, r1, r2, r4, r6, r7, r8, fp, pc}
    16ac:	000e022e 	andeq	r0, lr, lr, lsr #4
    16b0:	008c0101 	addeq	r0, ip, r1, lsl #2
    16b4:	00020000 	andeq	r0, r2, r0
    16b8:	0000005d 	andeq	r0, r0, sp, asr r0
    16bc:	0efb0102 	cdpeq	1, 15, cr0, cr11, cr2, {0}
    16c0:	0101000d 	tsteq	r1, sp
    16c4:	00000101 	andeq	r0, r0, r1, lsl #2
    16c8:	00000100 	andeq	r0, r0, r0, lsl #2
    16cc:	6f682f01 	svcvs	0x00682f01
    16d0:	6a2f656d 	bvs	bdac8c <_start-0xa2425374>
    16d4:	74616261 	strvcbt	r6, [r1], #-609
    16d8:	636f442f 	cmnvs	pc, #788529152	; 0x2f000000
    16dc:	6e656d75 	mcrvs	13, 3, r6, cr5, cr5, {3}
    16e0:	652f7374 	strvs	r7, [pc, #-884]!	; 1374 <_start-0xa2ffec8c>
    16e4:	6465626d 	strvsbt	r6, [r5], #-621
    16e8:	5f646564 	svcpl	0x00646564
    16ec:	7362616c 	cmnvc	r2, #27	; 0x1b
    16f0:	62616c2f 	rsbvs	r6, r1, #12032	; 0x2f00
    16f4:	656b2f34 	strvsb	r2, [fp, #-3892]!
    16f8:	6c656e72 	stcvsl	14, cr6, [r5], #-456
    16fc:	6863732f 	stmvsda	r3!, {r0, r1, r2, r3, r5, r8, r9, ip, sp, lr}^
    1700:	00006465 	andeq	r6, r0, r5, ror #8
    1704:	5f787463 	svcpl	0x00787463
    1708:	74697773 	strvcbt	r7, [r9], #-1907
    170c:	615f6863 	cmpvs	pc, r3, ror #16
    1710:	532e6d73 	teqpl	lr, #7360	; 0x1cc0
    1714:	00000100 	andeq	r0, r0, r0, lsl #2
    1718:	02050000 	andeq	r0, r5, #0	; 0x0
    171c:	a30016c0 	movwge	r1, #1728	; 0x6c0
    1720:	2f011d03 	svccs	0x00011d03
    1724:	2f2f2f2f 	svccs	0x002f2f2f
    1728:	2f2f2f2f 	svccs	0x002f2f2f
    172c:	3036302f 	eorccs	r3, r6, pc, lsr #32
    1730:	2f2f3131 	svccs	0x002f3131
    1734:	332f2f33 	teqcc	pc, #204	; 0xcc
    1738:	2f2f2f2f 	svccs	0x002f2f2f
    173c:	00080230 	andeq	r0, r8, r0, lsr r2
    1740:	010b0101 	tsteq	fp, r1, lsl #2
    1744:	00020000 	andeq	r0, r2, r0
    1748:	000000b0 	streqh	r0, [r0], -r0
    174c:	0efb0102 	cdpeq	1, 15, cr0, cr11, cr2, {0}
    1750:	0101000d 	tsteq	r1, sp
    1754:	00000101 	andeq	r0, r0, r1, lsl #2
    1758:	00000100 	andeq	r0, r0, r0, lsl #2
    175c:	6f682f01 	svcvs	0x00682f01
    1760:	6a2f656d 	bvs	bdad1c <_start-0xa24252e4>
    1764:	74616261 	strvcbt	r6, [r1], #-609
    1768:	636f442f 	cmnvs	pc, #788529152	; 0x2f000000
    176c:	6e656d75 	mcrvs	13, 3, r6, cr5, cr5, {3}
    1770:	652f7374 	strvs	r7, [pc, #-884]!	; 1404 <_start-0xa2ffebfc>
    1774:	6465626d 	strvsbt	r6, [r5], #-621
    1778:	5f646564 	svcpl	0x00646564
    177c:	7362616c 	cmnvc	r2, #27	; 0x1b
    1780:	62616c2f 	rsbvs	r6, r1, #12032	; 0x2f00
    1784:	656b2f34 	strvsb	r2, [fp, #-3892]!
    1788:	6c656e72 	stcvsl	14, cr6, [r5], #-456
    178c:	6863732f 	stmvsda	r3!, {r0, r1, r2, r3, r5, r8, r9, ip, sp, lr}^
    1790:	2f006465 	svccs	0x00006465
    1794:	656d6f68 	strvsb	r6, [sp, #-3944]!
    1798:	62616a2f 	rsbvs	r6, r1, #192512	; 0x2f000
    179c:	442f7461 	strmit	r7, [pc], #1121	; 17a4 <_start-0xa2ffe85c>
    17a0:	6d75636f 	ldcvsl	3, cr6, [r5, #-444]!
    17a4:	73746e65 	cmnvc	r4, #1616	; 0x650
    17a8:	626d652f 	rsbvs	r6, sp, #197132288	; 0xbc00000
    17ac:	65646465 	strvsb	r6, [r4, #-1125]!
    17b0:	616c5f64 	cmnvs	ip, r4, ror #30
    17b4:	6c2f7362 	stcvs	3, cr7, [pc], #-392
    17b8:	2f346261 	svccs	0x00346261
    17bc:	6e72656b 	cdpvs	5, 7, cr6, cr2, cr11, {3}
    17c0:	692f6c65 	stmvsdb	pc!, {r0, r2, r5, r6, sl, fp, sp, lr}
    17c4:	756c636e 	strvcb	r6, [ip, #-878]!
    17c8:	00006564 	andeq	r6, r0, r4, ror #10
    17cc:	5f6e7572 	svcpl	0x006e7572
    17d0:	75657571 	strvcb	r7, [r5, #-1393]!
    17d4:	00632e65 	rsbeq	r2, r3, r5, ror #28
    17d8:	74000001 	strvc	r0, [r0], #-1
    17dc:	73657079 	cmnvc	r5, #121	; 0x79
    17e0:	0200682e 	andeq	r6, r0, #3014656	; 0x2e0000
    17e4:	61740000 	cmnvs	r4, r0
    17e8:	682e6b73 	stmvsda	lr!, {r0, r1, r4, r5, r6, r8, r9, fp, sp, lr}
    17ec:	00000200 	andeq	r0, r0, r0, lsl #4
    17f0:	75626564 	strvcb	r6, [r2, #-1380]!
    17f4:	00682e67 	rsbeq	r2, r8, r7, ror #28
    17f8:	00000002 	andeq	r0, r0, r2
    17fc:	38020500 	stmccda	r2, {r8, sl}
    1800:	03a30017 	moveq	r0, #23	; 0x17
    1804:	3466013f 	strccbt	r0, [r6], #-319
    1808:	c2036a48 	andgt	r6, r3, #294912	; 0x48000
    180c:	2d2f8200 	sfmcs	f0, 1, [pc]
    1810:	039f3283 	orreqs	r3, pc, #805306376	; 0x30000008
    1814:	2f2d825c 	svccs	0x002d825c
    1818:	03a34b2d 	moveq	r4, #46080	; 0xb400
    181c:	77032e09 	strvc	r2, [r3, -r9, lsl #28]
    1820:	6609039e 	undefined
    1824:	2e780331 	mrccs	3, 3, r0, cr8, cr1, {1}
    1828:	79032f33 	stmvcdb	r3, {r0, r1, r4, r5, r8, r9, sl, fp, sp}
    182c:	2b362f2e 	blcs	d8d4ec <_start-0xa2272b14>
    1830:	53034e31 	movwpl	r4, #15921	; 0x3e31
    1834:	2d2f2dba 	stccs	13, cr2, [pc, #-744]!
    1838:	8a2f2d4b 	bhi	bccd6c <_start-0xa2433294>
    183c:	2f2d4b2d 	svccs	0x002d4b2d
    1840:	2f2d2f2d 	svccs	0x002d2f2d
    1844:	332e7a03 	teqcc	lr, #12288	; 0x3000
    1848:	2e0a0329 	cdpcs	3, 0, cr0, cr10, cr9, {1}
    184c:	01000c02 	tsteq	r0, r2, lsl #24
    1850:	00021c01 	andeq	r1, r2, r1, lsl #24
    1854:	00000200 	andeq	r0, r0, r0, lsl #4
    1858:	02000001 	andeq	r0, r0, #1	; 0x1
    185c:	0d0efb01 	vstreq	d15, [lr, #-4]
    1860:	01010100 	tsteq	r1, r0, lsl #2
    1864:	00000001 	andeq	r0, r0, r1
    1868:	01000001 	tsteq	r0, r1
    186c:	6d6f682f 	stcvsl	8, cr6, [pc, #-188]!
    1870:	616a2f65 	cmnvs	sl, r5, ror #30
    1874:	2f746162 	svccs	0x00746162
    1878:	75636f44 	strvcb	r6, [r3, #-3908]!
    187c:	746e656d 	strvcbt	r6, [lr], #-1389
    1880:	6d652f73 	stcvsl	15, cr2, [r5, #-460]!
    1884:	64646562 	strvsbt	r6, [r4], #-1378
    1888:	6c5f6465 	cfldrdvs	mvd6, [pc], {101}
    188c:	2f736261 	svccs	0x00736261
    1890:	3462616c 	strccbt	r6, [r2], #-364
    1894:	72656b2f 	rsbvc	r6, r5, #48128	; 0xbc00
    1898:	2f6c656e 	svccs	0x006c656e
    189c:	6b636f6c 	blvs	18dd654 <_start-0xa17229ac>
    18a0:	6f682f00 	svcvs	0x00682f00
    18a4:	6a2f656d 	bvs	bdae60 <_start-0xa24251a0>
    18a8:	74616261 	strvcbt	r6, [r1], #-609
    18ac:	636f442f 	cmnvs	pc, #788529152	; 0x2f000000
    18b0:	6e656d75 	mcrvs	13, 3, r6, cr5, cr5, {3}
    18b4:	652f7374 	strvs	r7, [pc, #-884]!	; 1548 <_start-0xa2ffeab8>
    18b8:	6465626d 	strvsbt	r6, [r5], #-621
    18bc:	5f646564 	svcpl	0x00646564
    18c0:	7362616c 	cmnvc	r2, #27	; 0x1b
    18c4:	62616c2f 	rsbvs	r6, r1, #12032	; 0x2f00
    18c8:	656b2f34 	strvsb	r2, [fp, #-3892]!
    18cc:	6c656e72 	stcvsl	14, cr6, [r5], #-456
    18d0:	636e692f 	cmnvs	lr, #770048	; 0xbc000
    18d4:	6564756c 	strvsb	r7, [r4, #-1388]!
    18d8:	6d72612f 	ldfvse	f6, [r2, #-188]!
    18dc:	6f682f00 	svcvs	0x00682f00
    18e0:	6a2f656d 	bvs	bdae9c <_start-0xa2425164>
    18e4:	74616261 	strvcbt	r6, [r1], #-609
    18e8:	636f442f 	cmnvs	pc, #788529152	; 0x2f000000
    18ec:	6e656d75 	mcrvs	13, 3, r6, cr5, cr5, {3}
    18f0:	652f7374 	strvs	r7, [pc, #-884]!	; 1584 <_start-0xa2ffea7c>
    18f4:	6465626d 	strvsbt	r6, [r5], #-621
    18f8:	5f646564 	svcpl	0x00646564
    18fc:	7362616c 	cmnvc	r2, #27	; 0x1b
    1900:	62616c2f 	rsbvs	r6, r1, #12032	; 0x2f00
    1904:	656b2f34 	strvsb	r2, [fp, #-3892]!
    1908:	6c656e72 	stcvsl	14, cr6, [r5], #-456
    190c:	636e692f 	cmnvs	lr, #770048	; 0xbc000
    1910:	6564756c 	strvsb	r7, [r4, #-1388]!
    1914:	756d0000 	strvcb	r0, [sp]!
    1918:	2e786574 	mrccs	5, 3, r6, cr8, cr4, {3}
    191c:	00010063 	andeq	r0, r1, r3, rrx
    1920:	63786500 	cmnvs	r8, #0	; 0x0
    1924:	69747065 	ldmvsdb	r4!, {r0, r2, r5, r6, ip, sp, lr}^
    1928:	682e6e6f 	stmvsda	lr!, {r0, r1, r2, r3, r5, r6, r9, sl, fp, sp, lr}
    192c:	00000200 	andeq	r0, r0, r0, lsl #4
    1930:	65707974 	ldrvsb	r7, [r0, #-2420]!
    1934:	00682e73 	rsbeq	r2, r8, r3, ror lr
    1938:	74000003 	strvc	r0, [r0], #-3
    193c:	2e6b7361 	cdpcs	3, 6, cr7, cr11, cr1, {3}
    1940:	00030068 	andeq	r0, r3, r8, rrx
    1944:	62656400 	rsbvs	r6, r5, #0	; 0x0
    1948:	682e6775 	stmvsda	lr!, {r0, r2, r4, r5, r6, r8, r9, sl, sp, lr}
    194c:	00000300 	andeq	r0, r0, r0, lsl #6
    1950:	6b636f6c 	blvs	18dd708 <_start-0xa17228f8>
    1954:	0300682e 	movweq	r6, #2094	; 0x82e
    1958:	00000000 	andeq	r0, r0, r0
    195c:	18b40205 	ldmneia	r4!, {r0, r2, r9}
    1960:	ba03a300 	blt	ea568 <_start-0xa2f15a98>
    1964:	042e0101 	streqt	r0, [lr], #-257
    1968:	7f880302 	svcvc	0x00880302
    196c:	042f2f2e 	streqt	r2, [pc], #3886	; 1974 <_start-0xa2ffe68c>
    1970:	00fa0301 	rsceqs	r0, sl, r1, lsl #6
    1974:	d9bbbb2e 	ldmleib	fp!, {r1, r2, r3, r5, r8, r9, fp, ip, sp, pc}
    1978:	030204bb 	movweq	r0, #9403	; 0x24bb
    197c:	2fba7ef6 	svccs	0x00ba7ef6
    1980:	0301042f 	movweq	r0, #5167	; 0x142f
    1984:	bb66018f 	bllt	1981fc8 <_start-0xa167e038>
    1988:	ee030204 	cdp	2, 0, cr0, cr3, cr4, {0}
    198c:	2f2fba7e 	svccs	0x002fba7e
    1990:	a2030104 	andge	r0, r3, #1	; 0x1
    1994:	a0846601 	addge	r6, r4, r1, lsl #12
    1998:	09032d4c 	stmeqdb	r3, {r2, r3, r6, r8, sl, fp, sp}
    199c:	2b32bd4a 	blcs	cb0ecc <_start-0xa234f134>
    19a0:	2f2d2c31 	svccs	0x002d2c31
    19a4:	2b308630 	blcs	c2326c <_start-0xa23dcd94>
    19a8:	302c302f 	eorcc	r3, ip, pc, lsr #32
    19ac:	bd69a183 	stfltp	f2, [r9, #-524]!
    19b0:	2c302c30 	ldccs	12, cr2, [r0], #-192
    19b4:	0302044c 	movweq	r0, #9292	; 0x244c
    19b8:	2f9e7eb5 	svccs	0x009e7eb5
    19bc:	0301042f 	movweq	r0, #5167	; 0x142f
    19c0:	034a01cf 	movteq	r0, #41423	; 0xa1cf
    19c4:	e4087e93 	str	r7, [r8], #-3731
    19c8:	24030204 	strcs	r0, [r3], #-516
    19cc:	0104302e 	tsteq	r4, lr, lsr #32
    19d0:	a14a5e03 	cmpge	sl, r3, lsl #28
    19d4:	302c4f47 	eorcc	r4, ip, r7, asr #30
    19d8:	02043064 	andeq	r3, r4, #100	; 0x64
    19dc:	304a1303 	subcc	r1, sl, r3, lsl #6
    19e0:	6f030104 	svcvs	0x00030104
    19e4:	0204a54a 	andeq	sl, r4, #310378496	; 0x12800000
    19e8:	302e1003 	eorcc	r1, lr, r3
    19ec:	72030104 	andvc	r0, r3, #1	; 0x1
    19f0:	04a0bd4a 	streqt	fp, [r0], #3402
    19f4:	04308102 	ldreqt	r8, [r0], #-258
    19f8:	2c308801 	ldccs	8, cr8, [r0], #-4
    19fc:	2a33854c 	bcs	ce2f34 <_start-0xa231d0cc>
    1a00:	2f2b2c4e 	svccs	0x002b2c4e
    1a04:	0204312f 	andeq	r3, r4, #-1073741813	; 0xc000000b
    1a08:	30666e03 	rsbcc	r6, r6, r3, lsl #28
    1a0c:	15030104 	strne	r0, [r3, #-260]
    1a10:	6677034a 	ldrvsbt	r0, [r7], -sl, asr #6
    1a14:	2f2b3149 	svccs	0x002b3149
    1a18:	0812032f 	ldmeqda	r2, {r0, r1, r2, r3, r5, r8, r9}
    1a1c:	02042e20 	andeq	r2, r4, #512	; 0x200
    1a20:	2f2e6703 	svccs	0x002e6703
    1a24:	0301042f 	movweq	r0, #5167	; 0x142f
    1a28:	bbbb2e1b 	bllt	feecd29c <__bss_end__+0x5be88ae8>
    1a2c:	0204bbd9 	andeq	fp, r4, #222208	; 0x36400
    1a30:	2fba5503 	svccs	0x00ba5503
    1a34:	0301042f 	movweq	r0, #5167	; 0x142f
    1a38:	a1a06637 	movge	r6, r7, lsr r6
    1a3c:	0302049f 	movweq	r0, #9375	; 0x249f
    1a40:	2f2f9e41 	svccs	0x002f9e41
    1a44:	c4030104 	strgt	r0, [r3], #-260
    1a48:	84856600 	strhi	r6, [r5], #1536
    1a4c:	6d2b316a 	stfvss	f3, [fp, #-424]!
    1a50:	322a3329 	eorcc	r3, sl, #-1543503872	; 0xa4000000
    1a54:	50bd4d85 	adcpls	r4, sp, r5, lsl #27
    1a58:	2d2f2da2 	stccs	13, cr2, [pc, #-648]!
    1a5c:	2c304d4c 	ldccs	13, cr4, [r0], #-304
    1a60:	834c2c30 	movthi	r2, #52272	; 0xcc30
    1a64:	90030204 	andls	r0, r3, r4, lsl #4
    1a68:	2f2fd67f 	svccs	0x002fd67f
    1a6c:	01002602 	tsteq	r0, r2, lsl #12
    1a70:	0000bf01 	andeq	fp, r0, r1, lsl #30
    1a74:	92000200 	andls	r0, r0, #0	; 0x0
    1a78:	02000000 	andeq	r0, r0, #0	; 0x0
    1a7c:	0d0efb01 	vstreq	d15, [lr, #-4]
    1a80:	01010100 	tsteq	r1, r0, lsl #2
    1a84:	00000001 	andeq	r0, r0, r1
    1a88:	01000001 	tsteq	r0, r1
    1a8c:	6d6f682f 	stcvsl	8, cr6, [pc, #-188]!
    1a90:	616a2f65 	cmnvs	sl, r5, ror #30
    1a94:	2f746162 	svccs	0x00746162
    1a98:	75636f44 	strvcb	r6, [r3, #-3908]!
    1a9c:	746e656d 	strvcbt	r6, [lr], #-1389
    1aa0:	6d652f73 	stcvsl	15, cr2, [r5, #-460]!
    1aa4:	64646562 	strvsbt	r6, [r4], #-1378
    1aa8:	6c5f6465 	cfldrdvs	mvd6, [pc], {101}
    1aac:	2f736261 	svccs	0x00736261
    1ab0:	3462616c 	strccbt	r6, [r2], #-364
    1ab4:	6f62752f 	svcvs	0x0062752f
    1ab8:	2f00746f 	svccs	0x0000746f
    1abc:	656d6f68 	strvsb	r6, [sp, #-3944]!
    1ac0:	62616a2f 	rsbvs	r6, r1, #192512	; 0x2f000
    1ac4:	442f7461 	strmit	r7, [pc], #1121	; 1acc <_start-0xa2ffe534>
    1ac8:	6d75636f 	ldcvsl	3, cr6, [r5, #-444]!
    1acc:	73746e65 	cmnvc	r4, #1616	; 0x650
    1ad0:	626d652f 	rsbvs	r6, sp, #197132288	; 0xbc00000
    1ad4:	65646465 	strvsb	r6, [r4, #-1125]!
    1ad8:	616c5f64 	cmnvs	ip, r4, ror #30
    1adc:	6c2f7362 	stcvs	3, cr7, [pc], #-392
    1ae0:	2f346261 	svccs	0x00346261
    1ae4:	6f6f6275 	svcvs	0x006f6275
    1ae8:	6e692f74 	mcrvs	15, 3, r2, cr9, cr4, {3}
    1aec:	64756c63 	ldrvsbt	r6, [r5], #-3171
    1af0:	73000065 	movwvc	r0, #101	; 0x65
    1af4:	73627574 	cmnvc	r2, #486539264	; 0x1d000000
    1af8:	0100632e 	tsteq	r0, lr, lsr #6
    1afc:	655f0000 	ldrvsb	r0, [pc, #0]	; 1b04 <_start-0xa2ffe4fc>
    1b00:	726f7078 	rsbvc	r7, pc, #120	; 0x78
    1b04:	682e7374 	stmvsda	lr!, {r2, r4, r5, r6, r8, r9, ip, sp, lr}
    1b08:	00000200 	andeq	r0, r0, r0, lsl #4
    1b0c:	00020400 	andeq	r0, r2, r0, lsl #8
    1b10:	1ec40205 	cdpne	2, 12, cr0, cr4, cr5, {0}
    1b14:	4b14a300 	blmi	52a71c <_start-0xa2ad58e4>
    1b18:	4b4b4b4b 	blmi	12d484c <_start-0xa1d2b7b4>
    1b1c:	4b4b4b4b 	blmi	12d4850 <_start-0xa1d2b7b0>
    1b20:	4b4b4b4b 	blmi	12d4854 <_start-0xa1d2b7ac>
    1b24:	044b4b4b 	streqb	r4, [fp], #-2891
    1b28:	4a1b0301 	bmi	6c2734 <_start-0xa293d8cc>
    1b2c:	0269494f 	rsbeq	r4, r9, #1294336	; 0x13c000
    1b30:	01010006 	tsteq	r1, r6
Disassembly of section .debug_frame:

00000000 <.debug_frame>:
   0:	0000000c 	andeq	r0, r0, ip
   4:	ffffffff 	undefined instruction 0xffffffff
   8:	7c010001 	stcvc	0, cr0, [r1], {1}
   c:	000d0c0e 	andeq	r0, sp, lr, lsl #24
  10:	0000001c 	andeq	r0, r0, ip, lsl r0
  14:	00000000 	andeq	r0, r0, r0
  18:	a3000008 	movwge	r0, #8	; 0x8
  1c:	000000b4 	streqh	r0, [r0], -r4
  20:	8e140e44 	cdphi	14, 1, cr0, cr4, cr4, {2}
  24:	86028701 	strhi	r8, [r2], -r1, lsl #14
  28:	84048503 	strhi	r8, [r4], #-1283
  2c:	280e4c05 	stmcsda	lr, {r0, r2, sl, fp, lr}
  30:	0000001c 	andeq	r0, r0, ip, lsl r0
  34:	00000000 	andeq	r0, r0, r0
  38:	a30000bc 	movwge	r0, #188	; 0xbc
  3c:	0000002c 	andeq	r0, r0, ip, lsr #32
  40:	44100e44 	ldrmi	r0, [r0], #-3652
  44:	0183140e 	orreq	r1, r3, lr, lsl #8
  48:	03810282 	orreq	r0, r1, #536870920	; 0x20000008
  4c:	00000480 	andeq	r0, r0, r0, lsl #9
  50:	0000000c 	andeq	r0, r0, ip
  54:	ffffffff 	undefined instruction 0xffffffff
  58:	7c010001 	stcvc	0, cr0, [r1], {1}
  5c:	000d0c0e 	andeq	r0, sp, lr, lsl #24
  60:	0000001c 	andeq	r0, r0, ip, lsl r0
  64:	00000050 	andeq	r0, r0, r0, asr r0
  68:	a30000e8 	movwge	r0, #232	; 0xe8
  6c:	000001cc 	andeq	r0, r0, ip, asr #3
  70:	8e140e44 	cdphi	14, 1, cr0, cr4, cr4, {2}
  74:	86028701 	strhi	r8, [r2], -r1, lsl #14
  78:	84048503 	strhi	r8, [r4], #-1283
  7c:	00000005 	andeq	r0, r0, r5
  80:	0000000c 	andeq	r0, r0, ip
  84:	ffffffff 	undefined instruction 0xffffffff
  88:	7c010001 	stcvc	0, cr0, [r1], {1}
  8c:	000d0c0e 	andeq	r0, sp, lr, lsl #24
  90:	0000000c 	andeq	r0, r0, ip
  94:	00000080 	andeq	r0, r0, r0, lsl #1
  98:	a30002b4 	movwge	r0, #692	; 0x2b4
  9c:	00000028 	andeq	r0, r0, r8, lsr #32
  a0:	0000000c 	andeq	r0, r0, ip
  a4:	00000080 	andeq	r0, r0, r0, lsl #1
  a8:	a30002dc 	movwge	r0, #732	; 0x2dc
  ac:	0000001c 	andeq	r0, r0, ip, lsl r0
  b0:	0000000c 	andeq	r0, r0, ip
  b4:	ffffffff 	undefined instruction 0xffffffff
  b8:	7c010001 	stcvc	0, cr0, [r1], {1}
  bc:	000d0c0e 	andeq	r0, sp, lr, lsl #24
  c0:	0000000c 	andeq	r0, r0, ip
  c4:	000000b0 	streqh	r0, [r0], -r0
  c8:	a30002f8 	movwge	r0, #760	; 0x2f8
  cc:	00000044 	andeq	r0, r0, r4, asr #32
  d0:	0000000c 	andeq	r0, r0, ip
  d4:	ffffffff 	undefined instruction 0xffffffff
  d8:	7c010001 	stcvc	0, cr0, [r1], {1}
  dc:	000d0c0e 	andeq	r0, sp, lr, lsl #24
  e0:	00000014 	andeq	r0, r0, r4, lsl r0
  e4:	000000d0 	ldreqd	r0, [r0], -r0
  e8:	a300033c 	movwge	r0, #828	; 0x33c
  ec:	00000014 	andeq	r0, r0, r4, lsl r0
  f0:	8e040e44 	cdphi	14, 0, cr0, cr4, cr4, {2}
  f4:	00000001 	andeq	r0, r0, r1
  f8:	0000000c 	andeq	r0, r0, ip
  fc:	ffffffff 	undefined instruction 0xffffffff
 100:	7c010001 	stcvc	0, cr0, [r1], {1}
 104:	000d0c0e 	andeq	r0, sp, lr, lsl #24
 108:	0000001c 	andeq	r0, r0, ip, lsl r0
 10c:	000000f8 	streqd	r0, [r0], -r8
 110:	a3000350 	movwge	r0, #848	; 0x350
 114:	00000104 	andeq	r0, r0, r4, lsl #2
 118:	8e180e44 	cdphi	14, 1, cr0, cr8, cr4, {2}
 11c:	87028a01 	strhi	r8, [r2, -r1, lsl #20]
 120:	85048603 	strhi	r8, [r4, #-1539]
 124:	00068405 	andeq	r8, r6, r5, lsl #8
 128:	0000000c 	andeq	r0, r0, ip
 12c:	ffffffff 	undefined instruction 0xffffffff
 130:	7c010001 	stcvc	0, cr0, [r1], {1}
 134:	000d0c0e 	andeq	r0, sp, lr, lsl #24
 138:	00000014 	andeq	r0, r0, r4, lsl r0
 13c:	00000128 	andeq	r0, r0, r8, lsr #2
 140:	a3000454 	movwge	r0, #1108	; 0x454
 144:	0000011c 	andeq	r0, r0, ip, lsl r1
 148:	8e080e50 	mcrhi	14, 0, r0, cr8, cr0, {2}
 14c:	00028401 	andeq	r8, r2, r1, lsl #8
 150:	0000000c 	andeq	r0, r0, ip
 154:	00000128 	andeq	r0, r0, r8, lsr #2
 158:	a3000570 	movwge	r0, #1392	; 0x570
 15c:	00000004 	andeq	r0, r0, r4
 160:	00000014 	andeq	r0, r0, r4, lsl r0
 164:	00000128 	andeq	r0, r0, r8, lsr #2
 168:	a3000574 	movwge	r0, #1396	; 0x574
 16c:	00000108 	andeq	r0, r0, r8, lsl #2
 170:	8e080e44 	cdphi	14, 0, cr0, cr8, cr4, {2}
 174:	00028401 	andeq	r8, r2, r1, lsl #8
 178:	0000000c 	andeq	r0, r0, ip
 17c:	00000128 	andeq	r0, r0, r8, lsr #2
 180:	a300067c 	movwge	r0, #1660	; 0x67c
 184:	00000020 	andeq	r0, r0, r0, lsr #32
 188:	0000000c 	andeq	r0, r0, ip
 18c:	00000128 	andeq	r0, r0, r8, lsr #2
 190:	a300069c 	movwge	r0, #1692	; 0x69c
 194:	00000020 	andeq	r0, r0, r0, lsr #32
 198:	0000000c 	andeq	r0, r0, ip
 19c:	ffffffff 	undefined instruction 0xffffffff
 1a0:	7c010001 	stcvc	0, cr0, [r1], {1}
 1a4:	000d0c0e 	andeq	r0, sp, lr, lsl #24
 1a8:	00000020 	andeq	r0, r0, r0, lsr #32
 1ac:	00000198 	muleq	r0, r8, r1
 1b0:	a30006bc 	movwge	r0, #1724	; 0x6bc
 1b4:	000000f0 	streqd	r0, [r0], -r0
 1b8:	8e1c0e44 	cdphi	14, 1, cr0, cr12, cr4, {2}
 1bc:	89028a01 	stmhidb	r2, {r0, r9, fp, pc}
 1c0:	86048703 	strhi	r8, [r4], -r3, lsl #14
 1c4:	84068505 	strhi	r8, [r6], #-1285
 1c8:	00000007 	andeq	r0, r0, r7
 1cc:	0000000c 	andeq	r0, r0, ip
 1d0:	00000198 	muleq	r0, r8, r1
 1d4:	a30007ac 	movwge	r0, #1964	; 0x7ac
 1d8:	00000040 	andeq	r0, r0, r0, asr #32
 1dc:	00000018 	andeq	r0, r0, r8, lsl r0
 1e0:	00000198 	muleq	r0, r8, r1
 1e4:	a30007ec 	movwge	r0, #2028	; 0x7ec
 1e8:	00000084 	andeq	r0, r0, r4, lsl #1
 1ec:	8e0c0e44 	cdphi	14, 0, cr0, cr12, cr4, {2}
 1f0:	84028501 	strhi	r8, [r2], #-1281
 1f4:	00000003 	andeq	r0, r0, r3
 1f8:	0000000c 	andeq	r0, r0, ip
 1fc:	ffffffff 	undefined instruction 0xffffffff
 200:	7c010001 	stcvc	0, cr0, [r1], {1}
 204:	000d0c0e 	andeq	r0, sp, lr, lsl #24
 208:	0000000c 	andeq	r0, r0, ip
 20c:	000001f8 	streqd	r0, [r0], -r8
 210:	a3000870 	movwge	r0, #2160	; 0x870
 214:	00000010 	andeq	r0, r0, r0, lsl r0
 218:	0000000c 	andeq	r0, r0, ip
 21c:	000001f8 	streqd	r0, [r0], -r8
 220:	a3000880 	movwge	r0, #2176	; 0x880
 224:	00000014 	andeq	r0, r0, r4, lsl r0
 228:	0000000c 	andeq	r0, r0, ip
 22c:	000001f8 	streqd	r0, [r0], -r8
 230:	a3000894 	movwge	r0, #2196	; 0x894
 234:	00000014 	andeq	r0, r0, r4, lsl r0
 238:	0000000c 	andeq	r0, r0, ip
 23c:	000001f8 	streqd	r0, [r0], -r8
 240:	a30008a8 	movwge	r0, #2216	; 0x8a8
 244:	00000014 	andeq	r0, r0, r4, lsl r0
 248:	0000000c 	andeq	r0, r0, ip
 24c:	000001f8 	streqd	r0, [r0], -r8
 250:	a30008bc 	movwge	r0, #2236	; 0x8bc
 254:	00000014 	andeq	r0, r0, r4, lsl r0
 258:	0000000c 	andeq	r0, r0, ip
 25c:	000001f8 	streqd	r0, [r0], -r8
 260:	a30008d0 	movwge	r0, #2256	; 0x8d0
 264:	00000014 	andeq	r0, r0, r4, lsl r0
 268:	0000000c 	andeq	r0, r0, ip
 26c:	000001f8 	streqd	r0, [r0], -r8
 270:	a30008e4 	movwge	r0, #2276	; 0x8e4
 274:	00000034 	andeq	r0, r0, r4, lsr r0
 278:	0000000c 	andeq	r0, r0, ip
 27c:	000001f8 	streqd	r0, [r0], -r8
 280:	a3000918 	movwge	r0, #2328	; 0x918
 284:	00000014 	andeq	r0, r0, r4, lsl r0
 288:	0000000c 	andeq	r0, r0, ip
 28c:	000001f8 	streqd	r0, [r0], -r8
 290:	a300092c 	movwge	r0, #2348	; 0x92c
 294:	00000028 	andeq	r0, r0, r8, lsr #32
 298:	00000014 	andeq	r0, r0, r4, lsl r0
 29c:	000001f8 	streqd	r0, [r0], -r8
 2a0:	a3000954 	movwge	r0, #2388	; 0x954
 2a4:	0000002c 	andeq	r0, r0, ip, lsr #32
 2a8:	8e080e44 	cdphi	14, 0, cr0, cr8, cr4, {2}
 2ac:	00028401 	andeq	r8, r2, r1, lsl #8
 2b0:	0000000c 	andeq	r0, r0, ip
 2b4:	000001f8 	streqd	r0, [r0], -r8
 2b8:	a3000980 	movwge	r0, #2432	; 0x980
 2bc:	00000010 	andeq	r0, r0, r0, lsl r0
 2c0:	0000000c 	andeq	r0, r0, ip
 2c4:	000001f8 	streqd	r0, [r0], -r8
 2c8:	a3000990 	movwge	r0, #2448	; 0x990
 2cc:	00000034 	andeq	r0, r0, r4, lsr r0
 2d0:	00000014 	andeq	r0, r0, r4, lsl r0
 2d4:	000001f8 	streqd	r0, [r0], -r8
 2d8:	a30009c4 	movwge	r0, #2500	; 0x9c4
 2dc:	00000028 	andeq	r0, r0, r8, lsr #32
 2e0:	8e040e4c 	cdphi	14, 0, cr0, cr4, cr12, {2}
 2e4:	00000001 	andeq	r0, r0, r1
 2e8:	0000000c 	andeq	r0, r0, ip
 2ec:	000001f8 	streqd	r0, [r0], -r8
 2f0:	a30009ec 	movwge	r0, #2540	; 0x9ec
 2f4:	00000010 	andeq	r0, r0, r0, lsl r0
 2f8:	0000000c 	andeq	r0, r0, ip
 2fc:	ffffffff 	undefined instruction 0xffffffff
 300:	7c010001 	stcvc	0, cr0, [r1], {1}
 304:	000d0c0e 	andeq	r0, sp, lr, lsl #24
 308:	00000014 	andeq	r0, r0, r4, lsl r0
 30c:	000002f8 	streqd	r0, [r0], -r8
 310:	a3000b18 	movwge	r0, #2840	; 0xb18
 314:	00000040 	andeq	r0, r0, r0, asr #32
 318:	8e040e44 	cdphi	14, 0, cr0, cr4, cr4, {2}
 31c:	00000001 	andeq	r0, r0, r1
 320:	0000000c 	andeq	r0, r0, ip
 324:	000002f8 	streqd	r0, [r0], -r8
 328:	a3000b58 	movwge	r0, #2904	; 0xb58
 32c:	00000018 	andeq	r0, r0, r8, lsl r0
 330:	00000014 	andeq	r0, r0, r4, lsl r0
 334:	000002f8 	streqd	r0, [r0], -r8
 338:	a3000b70 	movwge	r0, #2928	; 0xb70
 33c:	00000064 	andeq	r0, r0, r4, rrx
 340:	8e040e48 	cdphi	14, 0, cr0, cr4, cr8, {2}
 344:	00000001 	andeq	r0, r0, r1
 348:	00000014 	andeq	r0, r0, r4, lsl r0
 34c:	000002f8 	streqd	r0, [r0], -r8
 350:	a3000bd4 	movwge	r0, #3028	; 0xbd4
 354:	00000040 	andeq	r0, r0, r0, asr #32
 358:	8e040e48 	cdphi	14, 0, cr0, cr4, cr8, {2}
 35c:	00000001 	andeq	r0, r0, r1
 360:	0000000c 	andeq	r0, r0, ip
 364:	ffffffff 	undefined instruction 0xffffffff
 368:	7c010001 	stcvc	0, cr0, [r1], {1}
 36c:	000d0c0e 	andeq	r0, sp, lr, lsl #24
 370:	0000000c 	andeq	r0, r0, ip
 374:	00000360 	andeq	r0, r0, r0, ror #6
 378:	a3000c14 	movwge	r0, #3092	; 0xc14
 37c:	00000048 	andeq	r0, r0, r8, asr #32
 380:	0000000c 	andeq	r0, r0, ip
 384:	ffffffff 	undefined instruction 0xffffffff
 388:	7c010001 	stcvc	0, cr0, [r1], {1}
 38c:	000d0c0e 	andeq	r0, sp, lr, lsl #24
 390:	0000000c 	andeq	r0, r0, ip
 394:	00000380 	andeq	r0, r0, r0, lsl #7
 398:	a3000c6c 	movwge	r0, #3180	; 0xc6c
 39c:	00000004 	andeq	r0, r0, r4
 3a0:	00000018 	andeq	r0, r0, r8, lsl r0
 3a4:	00000380 	andeq	r0, r0, r0, lsl #7
 3a8:	a3000c70 	movwge	r0, #3184	; 0xc70
 3ac:	00000184 	andeq	r0, r0, r4, lsl #3
 3b0:	440c0e44 	strmi	r0, [ip], #-3652
 3b4:	018e340e 	orreq	r3, lr, lr, lsl #8
 3b8:	03840285 	orreq	r0, r4, #1342177288	; 0x50000008
 3bc:	0000000c 	andeq	r0, r0, ip
 3c0:	ffffffff 	undefined instruction 0xffffffff
 3c4:	7c010001 	stcvc	0, cr0, [r1], {1}
 3c8:	000d0c0e 	andeq	r0, sp, lr, lsl #24
 3cc:	0000000c 	andeq	r0, r0, ip
 3d0:	000003bc 	streqh	r0, [r0], -ip
 3d4:	a3000df4 	movwge	r0, #3572	; 0xdf4
 3d8:	0000000c 	andeq	r0, r0, ip
 3dc:	0000000c 	andeq	r0, r0, ip
 3e0:	000003bc 	streqh	r0, [r0], -ip
 3e4:	a3000e00 	movwge	r0, #3584	; 0xe00
 3e8:	0000000c 	andeq	r0, r0, ip
 3ec:	0000000c 	andeq	r0, r0, ip
 3f0:	000003bc 	streqh	r0, [r0], -ip
 3f4:	a3000e0c 	movwge	r0, #3596	; 0xe0c
 3f8:	00000014 	andeq	r0, r0, r4, lsl r0
 3fc:	0000000c 	andeq	r0, r0, ip
 400:	000003bc 	streqh	r0, [r0], -ip
 404:	a3000e20 	movwge	r0, #3616	; 0xe20
 408:	00000014 	andeq	r0, r0, r4, lsl r0
 40c:	0000000c 	andeq	r0, r0, ip
 410:	ffffffff 	undefined instruction 0xffffffff
 414:	7c010001 	stcvc	0, cr0, [r1], {1}
 418:	000d0c0e 	andeq	r0, sp, lr, lsl #24
 41c:	0000000c 	andeq	r0, r0, ip
 420:	0000040c 	andeq	r0, r0, ip, lsl #8
 424:	a3000e34 	movwge	r0, #3636	; 0xe34
 428:	00000008 	andeq	r0, r0, r8
 42c:	0000000c 	andeq	r0, r0, ip
 430:	0000040c 	andeq	r0, r0, ip, lsl #8
 434:	a3000e3c 	movwge	r0, #3644	; 0xe3c
 438:	00000008 	andeq	r0, r0, r8
 43c:	0000000c 	andeq	r0, r0, ip
 440:	ffffffff 	undefined instruction 0xffffffff
 444:	7c010001 	stcvc	0, cr0, [r1], {1}
 448:	000d0c0e 	andeq	r0, sp, lr, lsl #24
 44c:	0000001c 	andeq	r0, r0, ip, lsl r0
 450:	0000043c 	andeq	r0, r0, ip, lsr r4
 454:	a3000ea4 	movwge	r0, #3748	; 0xea4
 458:	000000a4 	andeq	r0, r0, r4, lsr #1
 45c:	8e140e48 	cdphi	14, 1, cr0, cr4, cr8, {2}
 460:	86028701 	strhi	r8, [r2], -r1, lsl #14
 464:	84048503 	strhi	r8, [r4], #-1283
 468:	00000005 	andeq	r0, r0, r5
 46c:	00000018 	andeq	r0, r0, r8, lsl r0
 470:	0000043c 	andeq	r0, r0, ip, lsr r4
 474:	a3000f48 	movwge	r0, #3912	; 0xf48
 478:	000000cc 	andeq	r0, r0, ip, asr #1
 47c:	8e100e44 	cdphi	14, 1, cr0, cr0, cr4, {2}
 480:	85028601 	strhi	r8, [r2, #-1537]
 484:	00048403 	andeq	r8, r4, r3, lsl #8
 488:	0000000c 	andeq	r0, r0, ip
 48c:	ffffffff 	undefined instruction 0xffffffff
 490:	7c010001 	stcvc	0, cr0, [r1], {1}
 494:	000d0c0e 	andeq	r0, sp, lr, lsl #24
 498:	0000000c 	andeq	r0, r0, ip
 49c:	00000488 	andeq	r0, r0, r8, lsl #9
 4a0:	a3001014 	movwge	r1, #20	; 0x14
 4a4:	00000020 	andeq	r0, r0, r0, lsr #32
 4a8:	00000018 	andeq	r0, r0, r8, lsl r0
 4ac:	00000488 	andeq	r0, r0, r8, lsl #9
 4b0:	a3001034 	movwge	r1, #52	; 0x34
 4b4:	0000008c 	andeq	r0, r0, ip, lsl #1
 4b8:	440c0e44 	strmi	r0, [ip], #-3652
 4bc:	018e100e 	orreq	r1, lr, lr
 4c0:	03840285 	orreq	r0, r4, #1342177288	; 0x50000008
 4c4:	00000018 	andeq	r0, r0, r8, lsl r0
 4c8:	00000488 	andeq	r0, r0, r8, lsl #9
 4cc:	a30010c0 	movwge	r1, #192	; 0xc0
 4d0:	0000006c 	andeq	r0, r0, ip, rrx
 4d4:	8e0c0e44 	cdphi	14, 0, cr0, cr12, cr4, {2}
 4d8:	84028501 	strhi	r8, [r2], #-1281
 4dc:	00000003 	andeq	r0, r0, r3
 4e0:	0000000c 	andeq	r0, r0, ip
 4e4:	ffffffff 	undefined instruction 0xffffffff
 4e8:	7c010001 	stcvc	0, cr0, [r1], {1}
 4ec:	000d0c0e 	andeq	r0, sp, lr, lsl #24
 4f0:	0000000c 	andeq	r0, r0, ip
 4f4:	000004e0 	andeq	r0, r0, r0, ror #9
 4f8:	a300112c 	movwge	r1, #300	; 0x12c
 4fc:	00000028 	andeq	r0, r0, r8, lsr #32
 500:	0000000c 	andeq	r0, r0, ip
 504:	000004e0 	andeq	r0, r0, r0, ror #9
 508:	a3001154 	movwge	r1, #340	; 0x154
 50c:	00000058 	andeq	r0, r0, r8, asr r0
 510:	0000000c 	andeq	r0, r0, ip
 514:	ffffffff 	undefined instruction 0xffffffff
 518:	7c010001 	stcvc	0, cr0, [r1], {1}
 51c:	000d0c0e 	andeq	r0, sp, lr, lsl #24
 520:	0000000c 	andeq	r0, r0, ip
 524:	00000510 	andeq	r0, r0, r0, lsl r5
 528:	a30011ac 	movwge	r1, #428	; 0x1ac
 52c:	00000004 	andeq	r0, r0, r4
 530:	0000000c 	andeq	r0, r0, ip
 534:	00000510 	andeq	r0, r0, r0, lsl r5
 538:	a30011b0 	movwge	r1, #432	; 0x1b0
 53c:	00000010 	andeq	r0, r0, r0, lsl r0
 540:	00000020 	andeq	r0, r0, r0, lsr #32
 544:	00000510 	andeq	r0, r0, r0, lsl r5
 548:	a30011c0 	movwge	r1, #448	; 0x1c0
 54c:	000001d0 	ldreqd	r0, [r0], -r0
 550:	8e200e44 	cdphi	14, 2, cr0, cr0, cr4, {2}
 554:	8a028b01 	bhi	a3160 <_start-0xa2f5cea0>
 558:	87048903 	strhi	r8, [r4, -r3, lsl #18]
 55c:	85068605 	strhi	r8, [r6, #-1541]
 560:	00088407 	andeq	r8, r8, r7, lsl #8
 564:	0000000c 	andeq	r0, r0, ip
 568:	ffffffff 	undefined instruction 0xffffffff
 56c:	7c010001 	stcvc	0, cr0, [r1], {1}
 570:	000d0c0e 	andeq	r0, sp, lr, lsl #24
 574:	0000000c 	andeq	r0, r0, ip
 578:	00000564 	andeq	r0, r0, r4, ror #10
 57c:	a3001390 	movwge	r1, #912	; 0x390
 580:	00000008 	andeq	r0, r0, r8
 584:	0000000c 	andeq	r0, r0, ip
 588:	ffffffff 	undefined instruction 0xffffffff
 58c:	7c010001 	stcvc	0, cr0, [r1], {1}
 590:	000d0c0e 	andeq	r0, sp, lr, lsl #24
 594:	0000000c 	andeq	r0, r0, ip
 598:	00000584 	andeq	r0, r0, r4, lsl #11
 59c:	a3001398 	movwge	r1, #920	; 0x398
 5a0:	00000014 	andeq	r0, r0, r4, lsl r0
 5a4:	0000000c 	andeq	r0, r0, ip
 5a8:	00000584 	andeq	r0, r0, r4, lsl #11
 5ac:	a30013ac 	movwge	r1, #940	; 0x3ac
 5b0:	00000010 	andeq	r0, r0, r0, lsl r0
 5b4:	0000000c 	andeq	r0, r0, ip
 5b8:	00000584 	andeq	r0, r0, r4, lsl #11
 5bc:	a30013bc 	movwge	r1, #956	; 0x3bc
 5c0:	00000018 	andeq	r0, r0, r8, lsl r0
 5c4:	0000000c 	andeq	r0, r0, ip
 5c8:	00000584 	andeq	r0, r0, r4, lsl #11
 5cc:	a30013d4 	movwge	r1, #980	; 0x3d4
 5d0:	0000002c 	andeq	r0, r0, ip, lsr #32
 5d4:	00000014 	andeq	r0, r0, r4, lsl r0
 5d8:	00000584 	andeq	r0, r0, r4, lsl #11
 5dc:	a3001400 	movwge	r1, #1024	; 0x400
 5e0:	000000b8 	streqh	r0, [r0], -r8
 5e4:	8e080e44 	cdphi	14, 0, cr0, cr8, cr4, {2}
 5e8:	00028401 	andeq	r8, r2, r1, lsl #8
 5ec:	00000018 	andeq	r0, r0, r8, lsl r0
 5f0:	00000584 	andeq	r0, r0, r4, lsl #11
 5f4:	a30014b8 	movwge	r1, #1208	; 0x4b8
 5f8:	000000ac 	andeq	r0, r0, ip, lsr #1
 5fc:	8e100e44 	cdphi	14, 1, cr0, cr0, cr4, {2}
 600:	85028601 	strhi	r8, [r2, #-1537]
 604:	00048403 	andeq	r8, r4, r3, lsl #8
 608:	00000014 	andeq	r0, r0, r4, lsl r0
 60c:	00000584 	andeq	r0, r0, r4, lsl #11
 610:	a3001564 	movwge	r1, #1380	; 0x564
 614:	00000084 	andeq	r0, r0, r4, lsl #1
 618:	8e080e44 	cdphi	14, 0, cr0, cr8, cr4, {2}
 61c:	00028401 	andeq	r8, r2, r1, lsl #8
 620:	00000018 	andeq	r0, r0, r8, lsl r0
 624:	00000584 	andeq	r0, r0, r4, lsl #11
 628:	a30015e8 	movwge	r1, #1512	; 0x5e8
 62c:	000000d8 	ldreqd	r0, [r0], -r8
 630:	8e100e44 	cdphi	14, 1, cr0, cr0, cr4, {2}
 634:	85028601 	strhi	r8, [r2, #-1537]
 638:	00048403 	andeq	r8, r4, r3, lsl #8
 63c:	0000000c 	andeq	r0, r0, ip
 640:	ffffffff 	undefined instruction 0xffffffff
 644:	7c010001 	stcvc	0, cr0, [r1], {1}
 648:	000d0c0e 	andeq	r0, sp, lr, lsl #24
 64c:	0000000c 	andeq	r0, r0, ip
 650:	0000063c 	andeq	r0, r0, ip, lsr r6
 654:	a3001738 	movwge	r1, #1848	; 0x738
 658:	00000034 	andeq	r0, r0, r4, lsr r0
 65c:	0000000c 	andeq	r0, r0, ip
 660:	0000063c 	andeq	r0, r0, ip, lsr r6
 664:	a300176c 	movwge	r1, #1900	; 0x76c
 668:	00000040 	andeq	r0, r0, r0, asr #32
 66c:	0000001c 	andeq	r0, r0, ip, lsl r0
 670:	0000063c 	andeq	r0, r0, ip, lsr r6
 674:	a30017ac 	movwge	r1, #1964	; 0x7ac
 678:	00000090 	muleq	r0, r0, r0
 67c:	8e140e48 	cdphi	14, 1, cr0, cr4, cr8, {2}
 680:	86028701 	strhi	r8, [r2], -r1, lsl #14
 684:	84048503 	strhi	r8, [r4], #-1283
 688:	00000005 	andeq	r0, r0, r5
 68c:	0000001c 	andeq	r0, r0, ip, lsl r0
 690:	0000063c 	andeq	r0, r0, ip, lsr r6
 694:	a300183c 	movwge	r1, #2108	; 0x83c
 698:	00000078 	andeq	r0, r0, r8, ror r0
 69c:	8e140e48 	cdphi	14, 1, cr0, cr4, cr8, {2}
 6a0:	86028701 	strhi	r8, [r2], -r1, lsl #14
 6a4:	84048503 	strhi	r8, [r4], #-1283
 6a8:	00000005 	andeq	r0, r0, r5
 6ac:	0000000c 	andeq	r0, r0, ip
 6b0:	ffffffff 	undefined instruction 0xffffffff
 6b4:	7c010001 	stcvc	0, cr0, [r1], {1}
 6b8:	000d0c0e 	andeq	r0, sp, lr, lsl #24
 6bc:	0000001c 	andeq	r0, r0, ip, lsl r0
 6c0:	000006ac 	andeq	r0, r0, ip, lsr #13
 6c4:	a30018b4 	movwge	r1, #2228	; 0x8b4
 6c8:	00000240 	andeq	r0, r0, r0, asr #4
 6cc:	8e180e44 	cdphi	14, 1, cr0, cr8, cr4, {2}
 6d0:	87028a01 	strhi	r8, [r2, -r1, lsl #20]
 6d4:	85048603 	strhi	r8, [r4, #-1539]
 6d8:	00068405 	andeq	r8, r6, r5, lsl #8
 6dc:	00000018 	andeq	r0, r0, r8, lsl r0
 6e0:	000006ac 	andeq	r0, r0, ip, lsr #13
 6e4:	a3001af4 	movwge	r1, #2804	; 0xaf4
 6e8:	00000074 	andeq	r0, r0, r4, ror r0
 6ec:	8e0c0e44 	cdphi	14, 0, cr0, cr12, cr4, {2}
 6f0:	84028501 	strhi	r8, [r2], #-1281
 6f4:	00000003 	andeq	r0, r0, r3
 6f8:	0000001c 	andeq	r0, r0, ip, lsl r0
 6fc:	000006ac 	andeq	r0, r0, ip, lsr #13
 700:	a3001b68 	movwge	r1, #2920	; 0xb68
 704:	00000104 	andeq	r0, r0, r4, lsl #2
 708:	8e140e44 	cdphi	14, 1, cr0, cr4, cr4, {2}
 70c:	86028701 	strhi	r8, [r2], -r1, lsl #14
 710:	84048503 	strhi	r8, [r4], #-1283
 714:	00000005 	andeq	r0, r0, r5
 718:	0000001c 	andeq	r0, r0, ip, lsl r0
 71c:	000006ac 	andeq	r0, r0, ip, lsr #13
 720:	a3001c6c 	movwge	r1, #3180	; 0xc6c
 724:	00000258 	andeq	r0, r0, r8, asr r2
 728:	8e140e44 	cdphi	14, 1, cr0, cr4, cr4, {2}
 72c:	86028701 	strhi	r8, [r2], -r1, lsl #14
 730:	84048503 	strhi	r8, [r4], #-1283
 734:	00000005 	andeq	r0, r0, r5
 738:	0000000c 	andeq	r0, r0, ip
 73c:	ffffffff 	undefined instruction 0xffffffff
 740:	7c010001 	stcvc	0, cr0, [r1], {1}
 744:	000d0c0e 	andeq	r0, sp, lr, lsl #24
 748:	0000000c 	andeq	r0, r0, ip
 74c:	00000738 	andeq	r0, r0, r8, lsr r7
 750:	a3001ec4 	movwge	r1, #3780	; 0xec4
 754:	00000088 	andeq	r0, r0, r8, lsl #1
 758:	0000000c 	andeq	r0, r0, ip
 75c:	00000738 	andeq	r0, r0, r8, lsr r7
 760:	a3001f4c 	movwge	r1, #3916	; 0xf4c
 764:	00000028 	andeq	r0, r0, r8, lsr #32
Disassembly of section .debug_str:

00000000 <.debug_str>:
   0:	5f313172 	svcpl	0x00313172
   4:	00716966 	rsbeqs	r6, r1, r6, ror #18
   8:	696e6170 	stmvsdb	lr!, {r4, r5, r6, r8, sp, lr}^
   c:	65720063 	ldrvsb	r0, [r2, #-99]!
  10:	74736967 	ldrvcbt	r6, [r3], #-2407
  14:	645f7265 	ldrvsb	r7, [pc], #613	; 1c <_start-0xa2ffffe4>
  18:	00706d75 	rsbeqs	r6, r0, r5, ror sp
  1c:	61736964 	cmnvs	r3, r4, ror #18
  20:	5f656c62 	svcpl	0x00656c62
  24:	65746e69 	ldrvsb	r6, [r4, #-3689]!
  28:	70757272 	rsbvcs	r7, r5, r2, ror r2
  2c:	76007374 	undefined
  30:	696c5f61 	stmvsdb	ip!, {r0, r5, r6, r8, r9, sl, fp, ip, lr}^
  34:	75007473 	strvc	r7, [r0, #-1139]
  38:	6769736e 	strvsb	r7, [r9, -lr, ror #6]!
  3c:	2064656e 	rsbcs	r6, r4, lr, ror #10
  40:	72616863 	rsbvc	r6, r1, #6488064	; 0x630000
  44:	30317200 	eorccs	r7, r1, r0, lsl #4
  48:	7169665f 	cmnvc	r9, pc, asr r6
  4c:	6f687300 	svcvs	0x00687300
  50:	75207472 	strvc	r7, [r0, #-1138]!
  54:	6769736e 	strvsb	r7, [r9, -lr, ror #6]!
  58:	2064656e 	rsbcs	r6, r4, lr, ror #10
  5c:	00746e69 	rsbeqs	r6, r4, r9, ror #28
  60:	615f726c 	cmpvs	pc, ip, ror #4
  64:	73007462 	movwvc	r7, #1122	; 0x462
  68:	74726f68 	ldrvcbt	r6, [r2], #-3944
  6c:	746e6920 	strvcbt	r6, [lr], #-2336
  70:	5f387200 	svcpl	0x00387200
  74:	00716966 	rsbeqs	r6, r1, r6, ror #18
  78:	676e6f6c 	strvsb	r6, [lr, -ip, ror #30]!
  7c:	6e6f6c20 	cdpvs	12, 6, cr6, cr15, cr0, {1}
  80:	6e752067 	cdpvs	0, 7, cr2, cr5, cr7, {3}
  84:	6e676973 	mcrvs	9, 3, r6, cr7, cr3, {3}
  88:	69206465 	stmvsdb	r0!, {r0, r2, r5, r6, sl, sp, lr}
  8c:	7200746e 	andvc	r7, r0, #1845493760	; 0x6e000000
  90:	665f3231 	undefined
  94:	72007169 	andvc	r7, r0, #1073741850	; 0x4000001a
  98:	69665f39 	stmvsdb	r6!, {r0, r3, r4, r5, r8, r9, sl, fp, ip, lr}^
  9c:	4e470071 	mcrmi	0, 2, r0, cr7, cr1, {3}
  a0:	20432055 	subcs	r2, r3, r5, asr r0
  a4:	2e312e34 	mrccs	14, 1, r2, cr1, cr4, {1}
  a8:	6f6c0031 	svcvs	0x006c0031
  ac:	6c20676e 	stcvs	7, cr6, [r0], #-440
  b0:	20676e6f 	rsbcs	r6, r7, pc, ror #28
  b4:	00746e69 	rsbeqs	r6, r4, r9, ror #28
  b8:	6d6f682f 	stcvsl	8, cr6, [pc, #-188]!
  bc:	616a2f65 	cmnvs	sl, r5, ror #30
  c0:	2f746162 	svccs	0x00746162
  c4:	75636f44 	strvcb	r6, [r3, #-3908]!
  c8:	746e656d 	strvcbt	r6, [lr], #-1389
  cc:	6d652f73 	stcvsl	15, cr2, [r5, #-460]!
  d0:	64646562 	strvsbt	r6, [r4], #-1378
  d4:	6c5f6465 	cfldrdvs	mvd6, [pc], {101}
  d8:	2f736261 	svccs	0x00736261
  dc:	3462616c 	strccbt	r6, [r2], #-364
  e0:	72656b2f 	rsbvc	r6, r5, #48128	; 0xbc00
  e4:	2f6c656e 	svccs	0x006c656e
  e8:	65737361 	ldrvsb	r7, [r3, #-865]!
  ec:	632e7472 	teqvs	lr, #1912602624	; 0x72000000
  f0:	6e697500 	cdpvs	5, 6, cr7, cr9, cr0, {0}
  f4:	5f323374 	svcpl	0x00323374
  f8:	65720074 	ldrvsb	r0, [r2, #-116]!
  fc:	6f635f67 	svcvs	0x00635f67
 100:	7865746e 	stmvcda	r5!, {r1, r2, r3, r5, r6, sl, ip, sp, lr}^
 104:	6d6b0074 	stcvsl	0, cr0, [fp, #-464]!
 108:	006e6961 	rsbeq	r6, lr, r1, ror #18
 10c:	63677261 	cmnvs	r7, #268435462	; 0x10000006
 110:	6f6c6700 	svcvs	0x006c6700
 114:	5f6c6162 	svcpl	0x006c6162
 118:	61746164 	cmnvs	r4, r4, ror #2
 11c:	65640032 	strvsb	r0, [r4, #-50]!
 120:	5f677562 	svcpl	0x00677562
 124:	62616e65 	rsbvs	r6, r1, #1616	; 0x650
 128:	0064656c 	rsbeq	r6, r4, ip, ror #10
 12c:	6d6f682f 	stcvsl	8, cr6, [pc, #-188]!
 130:	616a2f65 	cmnvs	sl, r5, ror #30
 134:	2f746162 	svccs	0x00746162
 138:	75636f44 	strvcb	r6, [r3, #-3908]!
 13c:	746e656d 	strvcbt	r6, [lr], #-1389
 140:	6d652f73 	stcvsl	15, cr2, [r5, #-460]!
 144:	64646562 	strvsbt	r6, [r4], #-1378
 148:	6c5f6465 	cfldrdvs	mvd6, [pc], {101}
 14c:	2f736261 	svccs	0x00736261
 150:	3462616c 	strccbt	r6, [r2], #-364
 154:	72656b2f 	rsbvc	r6, r5, #48128	; 0xbc00
 158:	2f6c656e 	svccs	0x006c656e
 15c:	6e69616d 	powvsez	f6, f1, #5.0
 160:	6700632e 	strvs	r6, [r0, -lr, lsr #6]
 164:	61626f6c 	cmnvs	r2, ip, ror #30
 168:	61645f6c 	cmnvs	r4, ip, ror #30
 16c:	61006174 	tstvs	r0, r4, ror r1
 170:	00766772 	rsbeqs	r6, r6, r2, ror r7
 174:	74617473 	strvcbt	r7, [r1], #-1139
 178:	73007375 	movwvc	r7, #885	; 0x375
 17c:	6b636174 	blvs	18d8754 <_start-0xa17278ac>
 180:	7274705f 	rsbvcs	r7, r4, #95	; 0x5f
 184:	6f6c6900 	svcvs	0x006c6900
 188:	73003267 	movwvc	r3, #615	; 0x267
 18c:	725f6d75 	subvcs	r6, pc, #7488	; 0x1d40
 190:	6f696765 	svcvs	0x00696765
 194:	6572006e 	ldrvsb	r0, [r2, #-110]!
 198:	746c7573 	strvcbt	r7, [ip], #-1395
 19c:	6f682f00 	svcvs	0x00682f00
 1a0:	6a2f656d 	bvs	bd975c <_start-0xa24268a4>
 1a4:	74616261 	strvcbt	r6, [r1], #-609
 1a8:	636f442f 	cmnvs	pc, #788529152	; 0x2f000000
 1ac:	6e656d75 	mcrvs	13, 3, r6, cr5, cr5, {3}
 1b0:	652f7374 	strvs	r7, [pc, #-884]!	; fffffe44 <__bss_end__+0x5cfbb690>
 1b4:	6465626d 	strvsbt	r6, [r5], #-621
 1b8:	5f646564 	svcpl	0x00646564
 1bc:	7362616c 	cmnvc	r2, #27	; 0x1b
 1c0:	62616c2f 	rsbvs	r6, r1, #12032	; 0x2f00
 1c4:	656b2f34 	strvsb	r2, [fp, #-3892]!
 1c8:	6c656e72 	stcvsl	14, cr6, [r5], #-456
 1cc:	74616d2f 	strvcbt	r6, [r1], #-3375
 1d0:	00632e68 	rsbeq	r2, r3, r8, ror #28
 1d4:	5f6d756e 	svcpl	0x006d756e
 1d8:	64726f77 	ldrvsbt	r6, [r2], #-3959
 1dc:	656d0073 	strvsb	r0, [sp, #-115]!
 1e0:	74735f6d 	ldrvcbt	r5, [r3], #-3949
 1e4:	00747261 	rsbeqs	r7, r4, r1, ror #4
 1e8:	65736162 	ldrvsb	r6, [r3, #-354]!
 1ec:	6c617600 	stcvsl	6, cr7, [r1]
 1f0:	615f6469 	cmpvs	pc, r9, ror #8
 1f4:	00726464 	rsbeqs	r6, r2, r4, ror #8
 1f8:	6d6f682f 	stcvsl	8, cr6, [pc, #-188]!
 1fc:	616a2f65 	cmnvs	sl, r5, ror #30
 200:	2f746162 	svccs	0x00746162
 204:	75636f44 	strvcb	r6, [r3, #-3908]!
 208:	746e656d 	strvcbt	r6, [lr], #-1389
 20c:	6d652f73 	stcvsl	15, cr2, [r5, #-460]!
 210:	64646562 	strvsbt	r6, [r4], #-1378
 214:	6c5f6465 	cfldrdvs	mvd6, [pc], {101}
 218:	2f736261 	svccs	0x00736261
 21c:	3462616c 	strccbt	r6, [r2], #-364
 220:	72656b2f 	rsbvc	r6, r5, #48128	; 0xbc00
 224:	2f6c656e 	svccs	0x006c656e
 228:	636d656d 	cmnvs	sp, #457179136	; 0x1b400000
 22c:	6b636568 	blvs	18d97d4 <_start-0xa172682c>
 230:	6300632e 	movwvs	r6, #814	; 0x32e
 234:	746e756f 	strvcbt	r7, [lr], #-1391
 238:	756f6200 	strvcb	r6, [pc, #-512]!	; 40 <_start-0xa2ffffc0>
 23c:	6d00646e 	cfstrsvs	mvf6, [r0, #-440]
 240:	655f6d65 	ldrvsb	r6, [pc, #-3429]	; fffff4e3 <__bss_end__+0x5cfbad2f>
 244:	7500646e 	strvc	r6, [r0, #-1134]
 248:	70746e69 	rsbvcs	r6, r4, r9, ror #28
 24c:	745f7274 	ldrvcb	r7, [pc], #628	; 254 <_start-0xa2fffdac>
 250:	69617200 	stmvsdb	r1!, {r9, ip, sp, lr}^
 254:	2f006573 	svccs	0x00006573
 258:	656d6f68 	strvsb	r6, [sp, #-3944]!
 25c:	62616a2f 	rsbvs	r6, r1, #192512	; 0x2f000
 260:	442f7461 	strmit	r7, [pc], #1121	; 268 <_start-0xa2fffd98>
 264:	6d75636f 	ldcvsl	3, cr6, [r5, #-444]!
 268:	73746e65 	cmnvc	r4, #1616	; 0x650
 26c:	626d652f 	rsbvs	r6, sp, #197132288	; 0xbc00000
 270:	65646465 	strvsb	r6, [r4, #-1125]!
 274:	616c5f64 	cmnvs	ip, r4, ror #30
 278:	6c2f7362 	stcvs	3, cr7, [pc], #-392
 27c:	2f346261 	svccs	0x00346261
 280:	6e72656b 	cdpvs	5, 7, cr6, cr2, cr11, {3}
 284:	722f6c65 	eorvc	r6, pc, #25856	; 0x6500
 288:	65736961 	ldrvsb	r6, [r3, #-2401]!
 28c:	2f00632e 	svccs	0x0000632e
 290:	656d6f68 	strvsb	r6, [sp, #-3944]!
 294:	62616a2f 	rsbvs	r6, r1, #192512	; 0x2f000
 298:	442f7461 	strmit	r7, [pc], #1121	; 2a0 <_start-0xa2fffd60>
 29c:	6d75636f 	ldcvsl	3, cr6, [r5, #-444]!
 2a0:	73746e65 	cmnvc	r4, #1616	; 0x650
 2a4:	626d652f 	rsbvs	r6, sp, #197132288	; 0xbc00000
 2a8:	65646465 	strvsb	r6, [r4, #-1125]!
 2ac:	616c5f64 	cmnvs	ip, r4, ror #30
 2b0:	6c2f7362 	stcvs	3, cr7, [pc], #-392
 2b4:	2f346261 	svccs	0x00346261
 2b8:	6e72656b 	cdpvs	5, 7, cr6, cr2, cr11, {3}
 2bc:	682f6c65 	stmvsda	pc!, {r0, r2, r5, r6, sl, fp, sp, lr}
 2c0:	75647865 	strvcb	r7, [r4, #-2149]!
 2c4:	632e706d 	teqvs	lr, #109	; 0x6d
 2c8:	78656800 	stmvcda	r5!, {fp, sp, lr}^
 2cc:	706d7564 	rsbvc	r7, sp, r4, ror #10
 2d0:	67736900 	ldrvsb	r6, [r3, -r0, lsl #18]!
 2d4:	68706172 	ldmvsda	r0!, {r1, r4, r5, r6, r8, sp, lr}^
 2d8:	6f627500 	svcvs	0x00627500
 2dc:	655f746f 	ldrvsb	r7, [pc, #-1135]	; fffffe75 <__bss_end__+0x5cfbb6c1>
 2e0:	70656378 	rsbvc	r6, r5, r8, ror r3
 2e4:	6e6f6974 	mcrvs	9, 3, r6, cr15, cr4, {3}
 2e8:	6464615f 	strvsbt	r6, [r4], #-351
 2ec:	73736572 	cmnvc	r3, #478150656	; 0x1c800000
 2f0:	6f627500 	svcvs	0x00627500
 2f4:	615f746f 	cmpvs	pc, pc, ror #8
 2f8:	695f7462 	ldmvsdb	pc, {r1, r5, r6, sl, ip, sp, lr}^
 2fc:	2f00736e 	svccs	0x0000736e
 300:	656d6f68 	strvsb	r6, [sp, #-3944]!
 304:	62616a2f 	rsbvs	r6, r1, #192512	; 0x2f000
 308:	442f7461 	strmit	r7, [pc], #1121	; 310 <_start-0xa2fffcf0>
 30c:	6d75636f 	ldcvsl	3, cr6, [r5, #-444]!
 310:	73746e65 	cmnvc	r4, #1616	; 0x650
 314:	626d652f 	rsbvs	r6, sp, #197132288	; 0xbc00000
 318:	65646465 	strvsb	r6, [r4, #-1125]!
 31c:	616c5f64 	cmnvs	ip, r4, ror #30
 320:	6c2f7362 	stcvs	3, cr7, [pc], #-392
 324:	2f346261 	svccs	0x00346261
 328:	6e72656b 	cdpvs	5, 7, cr6, cr2, cr11, {3}
 32c:	652f6c65 	strvs	r6, [pc, #-3173]!	; fffff6cf <__bss_end__+0x5cfbaf1b>
 330:	70656378 	rsbvc	r6, r5, r8, ror r3
 334:	6e6f6974 	mcrvs	9, 3, r6, cr15, cr4, {3}
 338:	7500632e 	strvc	r6, [r0, #-814]
 33c:	746f6f62 	strvcbt	r6, [pc], #3938	; 344 <_start-0xa2fffcbc>
 340:	7462615f 	strvcbt	r6, [r2], #-351
 344:	6464615f 	strvsbt	r6, [r4], #-351
 348:	73736572 	cmnvc	r3, #478150656	; 0x1c800000
 34c:	63786500 	cmnvs	r8, #0	; 0x0
 350:	69747065 	ldmvsdb	r4!, {r0, r2, r5, r6, ip, sp, lr}^
 354:	6a006e6f 	bvs	1bd18 <_start-0xa2fe42e8>
 358:	74706d75 	ldrvcbt	r6, [r0], #-3445
 35c:	656c6261 	strvsb	r6, [ip, #-609]!
 360:	6464615f 	strvsbt	r6, [r4], #-351
 364:	73736572 	cmnvc	r3, #478150656	; 0x1c800000
 368:	63786500 	cmnvs	r8, #0	; 0x0
 36c:	69747065 	ldmvsdb	r4!, {r0, r2, r5, r6, ip, sp, lr}^
 370:	765f6e6f 	ldrvcb	r6, [pc], -pc, ror #28
 374:	6f746365 	svcvs	0x00746365
 378:	62750072 	rsbvss	r0, r5, #114	; 0x72
 37c:	5f746f6f 	svcpl	0x00746f6f
 380:	5f697773 	svcpl	0x00697773
 384:	72646461 	rsbvc	r6, r4, #1627389952	; 0x61000000
 388:	00737365 	rsbeqs	r7, r3, r5, ror #6
 38c:	75746573 	ldrvcb	r6, [r4, #-1395]!
 390:	72695f70 	rsbvc	r5, r9, #448	; 0x1c0
 394:	74735f71 	ldrvcbt	r5, [r3], #-3953
 398:	006b6361 	rsbeq	r6, fp, r1, ror #6
 39c:	75746573 	ldrvcb	r6, [r4, #-1395]!
 3a0:	62615f70 	rsbvs	r5, r1, #448	; 0x1c0
 3a4:	5f74726f 	svcpl	0x0074726f
 3a8:	63617473 	cmnvs	r1, #1929379840	; 0x73000000
 3ac:	7063006b 	rsbvc	r0, r3, fp, rrx
 3b0:	765f7273 	undefined
 3b4:	72006c61 	andvc	r6, r0, #24832	; 0x6100
 3b8:	74616c65 	strvcbt	r6, [r1], #-3173
 3bc:	5f657669 	svcpl	0x00657669
 3c0:	7366666f 	cmnvc	r6, #116391936	; 0x6f00000
 3c4:	77007465 	strvc	r7, [r0, -r5, ror #8]
 3c8:	5f657269 	svcpl	0x00657269
 3cc:	65637865 	strvsb	r7, [r3, #-2149]!
 3d0:	6f697470 	svcvs	0x00697470
 3d4:	61685f6e 	cmnvs	r8, lr, ror #30
 3d8:	656c646e 	strvsb	r6, [ip, #-1134]!
 3dc:	72770072 	rsbvcs	r0, r7, #114	; 0x72
 3e0:	5f657469 	svcpl	0x00657469
 3e4:	72737063 	rsbvcs	r7, r3, #99	; 0x63
 3e8:	6f627500 	svcvs	0x00627500
 3ec:	735f746f 	cmpvc	pc, #1862270976	; 0x6f000000
 3f0:	695f6977 	ldmvsdb	pc, {r0, r1, r2, r4, r5, r6, r8, fp, sp, lr}^
 3f4:	7500736e 	strvc	r7, [r0, #-878]
 3f8:	746f6f62 	strvcbt	r6, [pc], #3938	; 400 <_start-0xa2fffc00>
 3fc:	7172695f 	cmnvc	r2, pc, asr r9
 400:	6464615f 	strvsbt	r6, [r4], #-351
 404:	73736572 	cmnvc	r3, #478150656	; 0x1c800000
 408:	61657200 	cmnvs	r5, r0, lsl #4
 40c:	70635f64 	rsbvc	r5, r3, r4, ror #30
 410:	73007273 	movwvc	r7, #627	; 0x273
 414:	70757465 	rsbvcs	r7, r5, r5, ror #8
 418:	6573755f 	ldrvsb	r7, [r3, #-1375]!
 41c:	74735f72 	ldrvcbt	r5, [r3], #-3954
 420:	006b6361 	rsbeq	r6, fp, r1, ror #6
 424:	74736572 	ldrvcbt	r6, [r3], #-1394
 428:	5f65726f 	svcpl	0x0065726f
 42c:	646e6168 	strvsbt	r6, [lr], #-360
 430:	7372656c 	cmnvc	r2, #452984832	; 0x1b000000
 434:	6f627500 	svcvs	0x00627500
 438:	695f746f 	ldmvsdb	pc, {r0, r1, r2, r3, r5, r6, sl, ip, sp, lr}^
 43c:	695f7172 	ldmvsdb	pc, {r1, r4, r5, r6, r8, ip, sp, lr}^
 440:	6e00736e 	cdpvs	3, 0, cr7, cr0, cr14, {3}
 444:	00747865 	rsbeqs	r7, r4, r5, ror #16
 448:	5f766564 	svcpl	0x00766564
 44c:	71657266 	cmnvc	r5, r6, ror #4
 450:	6e697500 	cdpvs	5, 6, cr7, cr9, cr0, {0}
 454:	745f3874 	ldrvcb	r3, [pc], #2164	; 45c <_start-0xa2fffba4>
 458:	76656400 	strvcbt	r6, [r5], -r0, lsl #8
 45c:	7300745f 	movwvc	r7, #1119	; 0x45f
 460:	7065656c 	rsbvc	r6, r5, ip, ror #10
 464:	61680079 	smcvs	32777
 468:	735f6576 	cmpvc	pc, #494927872	; 0x1d800000
 46c:	00656d6f 	rsbeq	r6, r5, pc, ror #26
 470:	7478656e 	ldrvcbt	r6, [r8], #-1390
 474:	74616d5f 	strvcbt	r6, [r1], #-3423
 478:	2f006863 	svccs	0x00006863
 47c:	656d6f68 	strvsb	r6, [sp, #-3944]!
 480:	62616a2f 	rsbvs	r6, r1, #192512	; 0x2f000
 484:	442f7461 	strmit	r7, [pc], #1121	; 48c <_start-0xa2fffb74>
 488:	6d75636f 	ldcvsl	3, cr6, [r5, #-444]!
 48c:	73746e65 	cmnvc	r4, #1616	; 0x650
 490:	626d652f 	rsbvs	r6, sp, #197132288	; 0xbc00000
 494:	65646465 	strvsb	r6, [r4, #-1125]!
 498:	616c5f64 	cmnvs	ip, r4, ror #30
 49c:	6c2f7362 	stcvs	3, cr7, [pc], #-392
 4a0:	2f346261 	svccs	0x00346261
 4a4:	6e72656b 	cdpvs	5, 7, cr6, cr2, cr11, {3}
 4a8:	642f6c65 	strvst	r6, [pc], #3173	; 4b0 <_start-0xa2fffb50>
 4ac:	63697665 	cmnvs	r9, #105906176	; 0x6500000
 4b0:	00632e65 	rsbeq	r2, r3, r5, ror #28
 4b4:	62616e65 	rsbvs	r6, r1, #1616	; 0x650
 4b8:	695f656c 	ldmvsdb	pc, {r2, r3, r5, r6, r8, sl, sp, lr}^
 4bc:	7265746e 	rsbvc	r7, r5, #1845493760	; 0x6e000000
 4c0:	74707572 	ldrvcbt	r7, [r0], #-1394
 4c4:	736b0073 	cmnvc	fp, #115	; 0x73
 4c8:	6b636174 	blvs	18d8aa0 <_start-0xa1727560>
 4cc:	6769685f 	undefined
 4d0:	6c730068 	ldcvsl	0, cr0, [r3], #-416
 4d4:	5f706565 	svcpl	0x00706565
 4d8:	6400656d 	strvs	r6, [r0], #-1389
 4dc:	63697665 	cmnvs	r9, #105906176	; 0x6500000
 4e0:	6d007365 	stcvs	3, cr7, [r0, #-404]
 4e4:	696c6c69 	stmvsdb	ip!, {r0, r3, r5, r6, sl, fp, sp, lr}^
 4e8:	65640073 	strvsb	r0, [r4, #-115]!
 4ec:	70755f76 	rsbvcs	r5, r5, r6, ror pc
 4f0:	65746164 	ldrvsb	r6, [r4, #-356]!
 4f4:	74616e00 	strvcbt	r6, [r1], #-3584
 4f8:	5f657669 	svcpl	0x00657669
 4fc:	6f697270 	svcvs	0x00697270
 500:	656c7300 	strvsb	r7, [ip, #-768]!
 504:	715f7065 	cmpvc	pc, r5, rrx
 508:	65756575 	ldrvsb	r6, [r5, #-1397]!
 50c:	76656400 	strvcbt	r6, [r5], -r0, lsl #8
 510:	696e695f 	stmvsdb	lr!, {r0, r1, r2, r3, r4, r6, r8, fp, sp, lr}^
 514:	63730074 	cmnvs	r3, #116	; 0x74
 518:	5f646568 	svcpl	0x00646568
 51c:	746e6f63 	strvcbt	r6, [lr], #-3939
 520:	00747865 	rsbeqs	r7, r4, r5, ror #16
 524:	646c6f68 	strvsbt	r6, [ip], #-3944
 528:	6f6c5f73 	svcvs	0x006c5f73
 52c:	64006b63 	strvs	r6, [r0], #-2915
 530:	775f7665 	ldrvcb	r7, [pc, -r5, ror #12]
 534:	00746961 	rsbeqs	r6, r4, r1, ror #18
 538:	72707369 	rsbvcs	r7, r0, #-1543503871	; 0xa4000001
 53c:	00746e69 	rsbeqs	r6, r4, r9, ror #28
 540:	6e637369 	cdpvs	3, 6, cr7, cr3, cr9, {3}
 544:	006c7274 	rsbeq	r7, ip, r4, ror r2
 548:	6d6f682f 	stcvsl	8, cr6, [pc, #-188]!
 54c:	616a2f65 	cmnvs	sl, r5, ror #30
 550:	2f746162 	svccs	0x00746162
 554:	75636f44 	strvcb	r6, [r3, #-3908]!
 558:	746e656d 	strvcbt	r6, [lr], #-1389
 55c:	6d652f73 	stcvsl	15, cr2, [r5, #-460]!
 560:	64646562 	strvsbt	r6, [r4], #-1378
 564:	6c5f6465 	cfldrdvs	mvd6, [pc], {101}
 568:	2f736261 	svccs	0x00736261
 56c:	3462616c 	strccbt	r6, [r2], #-364
 570:	72656b2f 	rsbvc	r6, r5, #48128	; 0xbc00
 574:	2f6c656e 	svccs	0x006c656e
 578:	70797463 	rsbvcs	r7, r9, r3, ror #8
 57c:	00632e65 	rsbeq	r2, r3, r5, ror #28
 580:	6f6c7369 	svcvs	0x006c7369
 584:	00726577 	rsbeqs	r6, r2, r7, ror r5
 588:	6c617369 	stcvsl	3, cr7, [r1], #-420
 58c:	006d756e 	rsbeq	r7, sp, lr, ror #10
 590:	69647369 	stmvsdb	r4!, {r0, r3, r5, r6, r8, r9, ip, sp, lr}^
 594:	00746967 	rsbeqs	r6, r4, r7, ror #18
 598:	6c617369 	stcvsl	3, cr7, [r1], #-420
 59c:	00616870 	rsbeq	r6, r1, r0, ror r8
 5a0:	6f6c6f74 	svcvs	0x006c6f74
 5a4:	00726577 	rsbeqs	r6, r2, r7, ror r5
 5a8:	73617369 	cmnvc	r1, #-1543503871	; 0xa4000001
 5ac:	00696963 	rsbeq	r6, r9, r3, ror #18
 5b0:	75707369 	ldrvcb	r7, [r0, #-873]!
 5b4:	0074636e 	rsbeqs	r6, r4, lr, ror #6
 5b8:	70737369 	rsbvcs	r7, r3, r9, ror #6
 5bc:	00656361 	rsbeq	r6, r5, r1, ror #6
 5c0:	70756f74 	rsbvcs	r6, r5, r4, ror pc
 5c4:	00726570 	rsbeqs	r6, r2, r0, ror r5
 5c8:	70757369 	rsbvcs	r7, r5, r9, ror #6
 5cc:	00726570 	rsbeqs	r6, r2, r0, ror r5
 5d0:	64787369 	ldrvsbt	r7, [r8], #-873
 5d4:	74696769 	strvcbt	r6, [r9], #-1897
 5d8:	72656b00 	rsbvc	r6, r5, #0	; 0x0
 5dc:	5f6c656e 	svcpl	0x006c656e
 5e0:	656d6974 	strvsb	r6, [sp, #-2420]!
 5e4:	696e7500 	stmvsdb	lr!, {r8, sl, ip, sp, lr}^
 5e8:	6974696e 	ldmvsdb	r4!, {r1, r2, r3, r5, r6, r8, fp, sp, lr}^
 5ec:	7a696c61 	bvc	1a5b778 <_start-0xa15a4888>
 5f0:	69745f65 	ldmvsdb	r4!, {r0, r2, r5, r6, r8, r9, sl, fp, ip, lr}^
 5f4:	0072656d 	rsbeqs	r6, r2, sp, ror #10
 5f8:	63617473 	cmnvs	r1, #1929379840	; 0x73000000
 5fc:	74735f6b 	ldrvcbt	r5, [r3], #-3947
 600:	00747261 	rsbeqs	r7, r4, r1, ror #4
 604:	5f646c6f 	svcpl	0x00646c6f
 608:	74736e69 	ldrvcbt	r6, [r3], #-3689
 60c:	65720072 	ldrvsb	r0, [r2, #-114]!
 610:	72775f67 	rsbvcs	r5, r7, #412	; 0x19c
 614:	00657469 	rsbeq	r7, r5, r9, ror #8
 618:	61685f73 	smcvs	34291
 61c:	656c646e 	strvsb	r6, [ip, #-1134]!
 620:	682f0072 	stmvsda	pc!, {r1, r4, r5, r6}
 624:	2f656d6f 	svccs	0x00656d6f
 628:	6162616a 	cmnvs	r2, sl, ror #2
 62c:	6f442f74 	svcvs	0x00442f74
 630:	656d7563 	strvsb	r7, [sp, #-1379]!
 634:	2f73746e 	svccs	0x0073746e
 638:	65626d65 	strvsb	r6, [r2, #-3429]!
 63c:	64656464 	strvsbt	r6, [r5], #-1124
 640:	62616c5f 	rsbvs	r6, r1, #24320	; 0x5f00
 644:	616c2f73 	smcvs	49907
 648:	6b2f3462 	blvs	bcd7d8 <_start-0xa2432828>
 64c:	656e7265 	strvsb	r7, [lr, #-613]!
 650:	5f632f6c 	svcpl	0x00632f6c
 654:	6e72656b 	cdpvs	5, 7, cr6, cr2, cr11, {3}
 658:	755f6c65 	ldrvcb	r6, [pc, #-3173]	; fffff9fb <__bss_end__+0x5cfbb247>
 65c:	2e6c6974 	mcrcs	9, 3, r6, cr12, cr4, {3}
 660:	65730063 	ldrvsb	r0, [r3, #-99]!
 664:	5f707574 	svcpl	0x00707574
 668:	63617473 	cmnvs	r1, #1929379840	; 0x73000000
 66c:	6e75006b 	cdpvs	0, 7, cr0, cr5, cr11, {3}
 670:	74736e69 	ldrvcbt	r6, [r3], #-3689
 674:	5f6c6c61 	svcpl	0x006c6c61
 678:	646e6168 	strvsbt	r6, [lr], #-360
 67c:	0072656c 	rsbeqs	r6, r2, ip, ror #10
 680:	6d6f682f 	stcvsl	8, cr6, [pc, #-188]!
 684:	616a2f65 	cmnvs	sl, r5, ror #30
 688:	2f746162 	svccs	0x00746162
 68c:	75636f44 	strvcb	r6, [r3, #-3908]!
 690:	746e656d 	strvcbt	r6, [lr], #-1389
 694:	6d652f73 	stcvsl	15, cr2, [r5, #-460]!
 698:	64646562 	strvsbt	r6, [r4], #-1378
 69c:	6c5f6465 	cfldrdvs	mvd6, [pc], {101}
 6a0:	2f736261 	svccs	0x00736261
 6a4:	3462616c 	strccbt	r6, [r2], #-364
 6a8:	72656b2f 	rsbvc	r6, r5, #48128	; 0xbc00
 6ac:	2f6c656e 	svccs	0x006c656e
 6b0:	72695f63 	rsbvc	r5, r9, #396	; 0x18c
 6b4:	61685f71 	smcvs	34289
 6b8:	656c646e 	strvsb	r6, [ip, #-1134]!
 6bc:	00632e72 	rsbeq	r2, r3, r2, ror lr
 6c0:	53746e69 	cmnpl	r4, #1680	; 0x690
 6c4:	72006372 	andvc	r6, r0, #-939524095	; 0xc8000001
 6c8:	725f6765 	subvcs	r6, pc, #26476544	; 0x1940000
 6cc:	00646165 	rsbeq	r6, r4, r5, ror #2
 6d0:	72695f63 	rsbvc	r5, r9, #396	; 0x18c
 6d4:	61685f71 	smcvs	34289
 6d8:	656c646e 	strvsb	r6, [ip, #-1134]!
 6dc:	6c730072 	ldcvsl	0, cr0, [r3], #-456
 6e0:	69706565 	ldmvsdb	r0!, {r0, r2, r5, r6, r8, sl, sp, lr}^
 6e4:	6300676e 	movwvs	r6, #1902	; 0x76e
 6e8:	6977735f 	ldmvsdb	r7!, {r0, r1, r2, r3, r4, r6, r8, r9, ip, sp, lr}^
 6ec:	6e61685f 	mcrvs	8, 3, r6, cr1, cr15, {2}
 6f0:	72656c64 	rsbvc	r6, r5, #25600	; 0x6400
 6f4:	655f6300 	ldrvsb	r6, [pc, #-768]	; 3fc <_start-0xa2fffc04>
 6f8:	00746978 	rsbeqs	r6, r4, r8, ror r9
 6fc:	5f697773 	svcpl	0x00697773
 700:	006d756e 	rsbeq	r7, sp, lr, ror #10
 704:	6d6f682f 	stcvsl	8, cr6, [pc, #-188]!
 708:	616a2f65 	cmnvs	sl, r5, ror #30
 70c:	2f746162 	svccs	0x00746162
 710:	75636f44 	strvcb	r6, [r3, #-3908]!
 714:	746e656d 	strvcbt	r6, [lr], #-1389
 718:	6d652f73 	stcvsl	15, cr2, [r5, #-460]!
 71c:	64646562 	strvsbt	r6, [r4], #-1378
 720:	6c5f6465 	cfldrdvs	mvd6, [pc], {101}
 724:	2f736261 	svccs	0x00736261
 728:	3462616c 	strccbt	r6, [r2], #-364
 72c:	72656b2f 	rsbvc	r6, r5, #48128	; 0xbc00
 730:	2f6c656e 	svccs	0x006c656e
 734:	77735f63 	ldrvcb	r5, [r3, -r3, ror #30]!
 738:	61685f69 	cmnvs	r8, r9, ror #30
 73c:	656c646e 	strvsb	r6, [ip, #-1134]!
 740:	00632e72 	rsbeq	r2, r3, r2, ror lr
 744:	73676572 	cmnvc	r7, #478150656	; 0x1c800000
 748:	616c6600 	cmnvs	ip, r0, lsl #12
 74c:	2f007367 	svccs	0x00007367
 750:	656d6f68 	strvsb	r6, [sp, #-3944]!
 754:	62616a2f 	rsbvs	r6, r1, #192512	; 0x2f000
 758:	442f7461 	strmit	r7, [pc], #1121	; 760 <_start-0xa2fff8a0>
 75c:	6d75636f 	ldcvsl	3, cr6, [r5, #-444]!
 760:	73746e65 	cmnvc	r4, #1616	; 0x650
 764:	626d652f 	rsbvs	r6, sp, #197132288	; 0xbc00000
 768:	65646465 	strvsb	r6, [r4, #-1125]!
 76c:	616c5f64 	cmnvs	ip, r4, ror #30
 770:	6c2f7362 	stcvs	3, cr7, [pc], #-392
 774:	2f346261 	svccs	0x00346261
 778:	6e72656b 	cdpvs	5, 7, cr6, cr2, cr11, {3}
 77c:	612f6c65 	teqvs	pc, r5, ror #24
 780:	722f6d72 	eorvc	r6, pc, #7296	; 0x1c80
 784:	632e6765 	teqvs	lr, #26476544	; 0x1940000
 788:	67657200 	strvsb	r7, [r5, -r0, lsl #4]!
 78c:	656c635f 	strvsb	r6, [ip, #-863]!
 790:	72007261 	andvc	r7, r0, #268435462	; 0x10000006
 794:	735f6765 	cmpvc	pc, #26476544	; 0x1940000
 798:	2f007465 	svccs	0x00007465
 79c:	656d6f68 	strvsb	r6, [sp, #-3944]!
 7a0:	62616a2f 	rsbvs	r6, r1, #192512	; 0x2f000
 7a4:	442f7461 	strmit	r7, [pc], #1121	; 7ac <_start-0xa2fff854>
 7a8:	6d75636f 	ldcvsl	3, cr6, [r5, #-444]!
 7ac:	73746e65 	cmnvc	r4, #1616	; 0x650
 7b0:	626d652f 	rsbvs	r6, sp, #197132288	; 0xbc00000
 7b4:	65646465 	strvsb	r6, [r4, #-1125]!
 7b8:	616c5f64 	cmnvs	ip, r4, ror #30
 7bc:	6c2f7362 	stcvs	3, cr7, [pc], #-392
 7c0:	2f346261 	svccs	0x00346261
 7c4:	6e72656b 	cdpvs	5, 7, cr6, cr2, cr11, {3}
 7c8:	612f6c65 	teqvs	pc, r5, ror #24
 7cc:	702f6d72 	eorvc	r6, pc, r2, ror sp
 7d0:	632e7273 	teqvs	lr, #805306375	; 0x30000007
 7d4:	66756200 	ldrvsbt	r6, [r5], -r0, lsl #4
 7d8:	6e756f43 	cdpvs	15, 7, cr6, cr5, cr3, {2}
 7dc:	756f0074 	strvcb	r0, [pc, #-116]!	; 770 <_start-0xa2fff890>
 7e0:	66754272 	undefined
 7e4:	69737300 	ldmvsdb	r3!, {r8, r9, ip, sp, lr}^
 7e8:	745f657a 	ldrvcb	r6, [pc], #1402	; 7f0 <_start-0xa2fff810>
 7ec:	6f682f00 	svcvs	0x00682f00
 7f0:	6a2f656d 	bvs	bd9dac <_start-0xa2426254>
 7f4:	74616261 	strvcbt	r6, [r1], #-609
 7f8:	636f442f 	cmnvs	pc, #788529152	; 0x2f000000
 7fc:	6e656d75 	mcrvs	13, 3, r6, cr5, cr5, {3}
 800:	652f7374 	strvs	r7, [pc, #-884]!	; 494 <_start-0xa2fffb6c>
 804:	6465626d 	strvsbt	r6, [r5], #-621
 808:	5f646564 	svcpl	0x00646564
 80c:	7362616c 	cmnvc	r2, #27	; 0x1b
 810:	62616c2f 	rsbvs	r6, r1, #12032	; 0x2f00
 814:	656b2f34 	strvsb	r2, [fp, #-3892]!
 818:	6c656e72 	stcvsl	14, cr6, [r5], #-456
 81c:	7379732f 	cmnvc	r9, #-1140850688	; 0xbc000000
 820:	6c6c6163 	stfvse	f6, [ip], #-396
 824:	2e6f692f 	cdpcs	9, 6, cr6, cr15, cr15, {1}
 828:	72770063 	rsbvcs	r0, r7, #99	; 0x63
 82c:	5f657469 	svcpl	0x00657469
 830:	63737973 	cmnvs	r3, #1884160	; 0x1cc000
 834:	006c6c61 	rsbeq	r6, ip, r1, ror #24
 838:	64616572 	strvsbt	r6, [r1], #-1394
 83c:	7379735f 	cmnvc	r9, #2080374785	; 0x7c000001
 840:	6c6c6163 	stfvse	f6, [ip], #-396
 844:	73617400 	cmnvc	r1, #0	; 0x0
 848:	00745f6b 	rsbeqs	r5, r4, fp, ror #30
 84c:	5f6d756e 	svcpl	0x006d756e
 850:	6b736174 	blvs	1cd8e28 <_start-0xa13271d8>
 854:	61630073 	smcvs	12291
 858:	6e5f6c6c 	cdpvs	12, 5, cr6, cr15, cr12, {3}
 85c:	6c006d75 	stcvs	13, cr6, [r0], {117}
 860:	64626d61 	strvsbt	r6, [r2], #-3425
 864:	6e690061 	cdpvs	0, 6, cr0, cr9, cr1, {3}
 868:	696c6176 	stmvsdb	ip!, {r1, r2, r4, r5, r6, r8, sp, lr}^
 86c:	79735f64 	ldmvcdb	r3!, {r2, r5, r6, r8, r9, sl, fp, ip, lr}^
 870:	6c616373 	stcvsl	3, cr6, [r1], #-460
 874:	6174006c 	cmnvs	r4, ip, rrx
 878:	665f6b73 	undefined
 87c:	745f6e75 	ldrvcb	r6, [pc], #3701	; 884 <_start-0xa2fff77c>
 880:	65766500 	ldrvsb	r6, [r6, #-1280]!
 884:	775f746e 	ldrvcb	r7, [pc, -lr, ror #8]
 888:	00746961 	rsbeqs	r6, r4, r1, ror #18
 88c:	63617473 	cmnvs	r1, #1929379840	; 0x73000000
 890:	6f705f6b 	svcvs	0x00705f6b
 894:	61740073 	cmnvs	r4, r3, ror r0
 898:	635f6b73 	cmpvs	pc, #117760	; 0x1cc00
 89c:	74616572 	strvcbt	r6, [r1], #-1394
 8a0:	682f0065 	stmvsda	pc!, {r0, r2, r5, r6}
 8a4:	2f656d6f 	svccs	0x00656d6f
 8a8:	6162616a 	cmnvs	r2, sl, ror #2
 8ac:	6f442f74 	svcvs	0x00442f74
 8b0:	656d7563 	strvsb	r7, [sp, #-1379]!
 8b4:	2f73746e 	svccs	0x0073746e
 8b8:	65626d65 	strvsb	r6, [r2, #-3429]!
 8bc:	64656464 	strvsbt	r6, [r5], #-1124
 8c0:	62616c5f 	rsbvs	r6, r1, #24320	; 0x5f00
 8c4:	616c2f73 	smcvs	49907
 8c8:	6b2f3462 	blvs	bcda58 <_start-0xa24325a8>
 8cc:	656e7265 	strvsb	r7, [lr, #-613]!
 8d0:	79732f6c 	ldmvcdb	r3!, {r2, r3, r5, r6, r8, r9, sl, fp, sp}^
 8d4:	6c616373 	stcvsl	3, cr6, [r1], #-460
 8d8:	72702f6c 	rsbvcs	r2, r0, #432	; 0x1b0
 8dc:	632e636f 	teqvs	lr, #-1140850687	; 0xbc000001
 8e0:	6d697400 	cfstrdvs	mvd7, [r9]
 8e4:	79735f65 	ldmvcdb	r3!, {r0, r2, r5, r6, r8, r9, sl, fp, ip, lr}^
 8e8:	6c616373 	stcvsl	3, cr6, [r1], #-460
 8ec:	7563006c 	strvcb	r0, [r3, #-108]!
 8f0:	69745f72 	ldmvsdb	r4!, {r1, r4, r5, r6, r8, r9, sl, fp, ip, lr}^
 8f4:	7300656d 	movwvc	r6, #1389	; 0x56d
 8f8:	7065656c 	rsbvc	r6, r5, ip, ror #10
 8fc:	7379735f 	cmnvc	r9, #2080374785	; 0x7c000001
 900:	6c6c6163 	stfvse	f6, [ip], #-396
 904:	6f747300 	svcvs	0x00747300
 908:	69745f70 	ldmvsdb	r4!, {r4, r5, r6, r8, r9, sl, fp, ip, lr}^
 90c:	2f00656d 	svccs	0x0000656d
 910:	656d6f68 	strvsb	r6, [sp, #-3944]!
 914:	62616a2f 	rsbvs	r6, r1, #192512	; 0x2f000
 918:	442f7461 	strmit	r7, [pc], #1121	; 920 <_start-0xa2fff6e0>
 91c:	6d75636f 	ldcvsl	3, cr6, [r5, #-444]!
 920:	73746e65 	cmnvc	r4, #1616	; 0x650
 924:	626d652f 	rsbvs	r6, sp, #197132288	; 0xbc00000
 928:	65646465 	strvsb	r6, [r4, #-1125]!
 92c:	616c5f64 	cmnvs	ip, r4, ror #30
 930:	6c2f7362 	stcvs	3, cr7, [pc], #-392
 934:	2f346261 	svccs	0x00346261
 938:	6e72656b 	cdpvs	5, 7, cr6, cr2, cr11, {3}
 93c:	732f6c65 	teqvc	pc, #25856	; 0x6500
 940:	61637379 	smcvs	14137
 944:	742f6c6c 	strvct	r6, [pc], #3180	; 94c <_start-0xa2fff6b4>
 948:	2e656d69 	cdpcs	13, 6, cr6, cr5, cr9, {3}
 94c:	682f0063 	stmvsda	pc!, {r0, r1, r5, r6}
 950:	2f656d6f 	svccs	0x00656d6f
 954:	6162616a 	cmnvs	r2, sl, ror #2
 958:	6f442f74 	svcvs	0x00442f74
 95c:	656d7563 	strvsb	r7, [sp, #-1379]!
 960:	2f73746e 	svccs	0x0073746e
 964:	65626d65 	strvsb	r6, [r2, #-3429]!
 968:	64656464 	strvsbt	r6, [r5], #-1124
 96c:	62616c5f 	rsbvs	r6, r1, #24320	; 0x5f00
 970:	616c2f73 	smcvs	49907
 974:	6b2f3462 	blvs	bcdb04 <_start-0xa24324fc>
 978:	656e7265 	strvsb	r7, [lr, #-613]!
 97c:	63732f6c 	cmnvs	r3, #432	; 0x1b0
 980:	2f646568 	svccs	0x00646568
 984:	65686373 	strvsb	r6, [r8, #-883]!
 988:	00632e64 	rsbeq	r2, r3, r4, ror #28
 98c:	6f6c6c61 	svcvs	0x006c6c61
 990:	65746163 	ldrvsb	r6, [r4, #-355]!
 994:	7361745f 	cmnvc	r1, #1593835520	; 0x5f000000
 998:	6900736b 	stmvsdb	r0, {r0, r1, r3, r5, r6, r8, r9, ip, sp, lr}
 99c:	5f656c64 	svcpl	0x00656c64
 9a0:	00626374 	rsbeq	r6, r2, r4, ror r3
 9a4:	74737973 	ldrvcbt	r7, [r3], #-2419
 9a8:	745f6d65 	ldrvcb	r6, [pc], #3429	; 9b0 <_start-0xa2fff650>
 9ac:	69006263 	stmvsdb	r0, {r0, r1, r5, r6, r9, sp, lr}
 9b0:	00656c64 	rsbeq	r6, r5, r4, ror #24
 9b4:	6e69616d 	powvsez	f6, f1, #5.0
 9b8:	7361745f 	cmnvc	r1, #1593835520	; 0x5f000000
 9bc:	6373006b 	cmnvs	r3, #107	; 0x6b
 9c0:	5f646568 	svcpl	0x00646568
 9c4:	74696e69 	strvcbt	r6, [r9], #-3689
 9c8:	72756300 	rsbvcs	r6, r5, #0	; 0x0
 9cc:	7361745f 	cmnvc	r1, #1593835520	; 0x5f000000
 9d0:	682f006b 	stmvsda	pc!, {r0, r1, r3, r5, r6}
 9d4:	2f656d6f 	svccs	0x00656d6f
 9d8:	6162616a 	cmnvs	r2, sl, ror #2
 9dc:	6f442f74 	svcvs	0x00442f74
 9e0:	656d7563 	strvsb	r7, [sp, #-1379]!
 9e4:	2f73746e 	svccs	0x0073746e
 9e8:	65626d65 	strvsb	r6, [r2, #-3429]!
 9ec:	64656464 	strvsbt	r6, [r5], #-1124
 9f0:	62616c5f 	rsbvs	r6, r1, #24320	; 0x5f00
 9f4:	616c2f73 	smcvs	49907
 9f8:	6b2f3462 	blvs	bcdb88 <_start-0xa2432478>
 9fc:	656e7265 	strvsb	r7, [lr, #-613]!
 a00:	63732f6c 	cmnvs	r3, #432	; 0x1b0
 a04:	2f646568 	svccs	0x00646568
 a08:	745f6275 	ldrvcb	r6, [pc], #629	; a10 <_start-0xa2fff5f0>
 a0c:	2e747365 	cdpcs	3, 7, cr7, cr4, cr5, {3}
 a10:	73610063 	cmnvc	r1, #99	; 0x63
 a14:	6e676973 	mcrvs	9, 3, r6, cr7, cr3, {3}
 a18:	6863735f 	stmvsda	r3!, {r0, r1, r2, r3, r4, r6, r8, r9, ip, sp, lr}^
 a1c:	6c756465 	cfldrdvs	mvd6, [r5], #-404
 a20:	74630065 	strvcbt	r0, [r3], #-101
 a24:	75645f78 	strvcb	r5, [r4, #-3960]!
 a28:	7000706d 	andvc	r7, r0, sp, rrx
 a2c:	5f766572 	svcpl	0x00766572
 a30:	00626374 	rsbeq	r6, r2, r4, ror r3
 a34:	70736964 	rsbvcs	r6, r3, r4, ror #18
 a38:	68637461 	stmvsda	r3!, {r0, r5, r6, sl, ip, sp, lr}^
 a3c:	736f6e5f 	cmnvc	pc, #1520	; 0x5f0
 a40:	00657661 	rsbeq	r7, r5, r1, ror #12
 a44:	72705f68 	rsbvcs	r5, r0, #416	; 0x1a0
 a48:	67006f69 	strvs	r6, [r0, -r9, ror #30]
 a4c:	635f7465 	cmpvs	pc, #1694498816	; 0x65000000
 a50:	705f7275 	subvcs	r7, pc, r5, ror r2
 a54:	006f6972 	rsbeq	r6, pc, r2, ror r9
 a58:	5f746567 	svcpl	0x00746567
 a5c:	6174736b 	cmnvs	r4, fp, ror #6
 a60:	64006b63 	strvs	r6, [r0], #-2915
 a64:	61707369 	cmnvs	r0, r9, ror #6
 a68:	5f686374 	svcpl	0x00686374
 a6c:	65766173 	ldrvsb	r6, [r6, #-371]!
 a70:	73696400 	cmnvc	r9, #0	; 0x0
 a74:	63746170 	cmnvs	r4, #28	; 0x1c
 a78:	6c735f68 	ldcvsl	15, cr5, [r3], #-416
 a7c:	00706565 	rsbeqs	r6, r0, r5, ror #10
 a80:	6d6f682f 	stcvsl	8, cr6, [pc, #-188]!
 a84:	616a2f65 	cmnvs	sl, r5, ror #30
 a88:	2f746162 	svccs	0x00746162
 a8c:	75636f44 	strvcb	r6, [r3, #-3908]!
 a90:	746e656d 	strvcbt	r6, [lr], #-1389
 a94:	6d652f73 	stcvsl	15, cr2, [r5, #-460]!
 a98:	64646562 	strvsbt	r6, [r4], #-1378
 a9c:	6c5f6465 	cfldrdvs	mvd6, [pc], {101}
 aa0:	2f736261 	svccs	0x00736261
 aa4:	3462616c 	strccbt	r6, [r2], #-364
 aa8:	72656b2f 	rsbvc	r6, r5, #48128	; 0xbc00
 aac:	2f6c656e 	svccs	0x006c656e
 ab0:	65686373 	strvsb	r6, [r8, #-883]!
 ab4:	74632f64 	strvcbt	r2, [r3], #-3940
 ab8:	77735f78 	undefined
 abc:	68637469 	stmvsda	r3!, {r0, r3, r5, r6, sl, ip, sp, lr}^
 ac0:	6400632e 	strvs	r6, [r0], #-814
 ac4:	635f706d 	cmpvs	pc, #109	; 0x6d
 ac8:	64007874 	strvs	r7, [r0], #-2164
 acc:	61707369 	cmnvs	r0, r9, ror #6
 ad0:	5f686374 	svcpl	0x00686374
 ad4:	74696e69 	strvcbt	r6, [r9], #-3689
 ad8:	74656700 	strvcbt	r6, [r5], #-1792
 adc:	7275635f 	rsbvcs	r6, r5, #2080374785	; 0x7c000001
 ae0:	6263745f 	rsbvs	r7, r3, #1593835520	; 0x5f000000
 ae4:	67696800 	strvsb	r6, [r9, -r0, lsl #16]!
 ae8:	74736568 	ldrvcbt	r6, [r3], #-1384
 aec:	6972705f 	ldmvsdb	r2!, {r0, r1, r2, r3, r4, r6, ip, sp, lr}^
 af0:	7270006f 	rsbvcs	r0, r0, #111	; 0x6f
 af4:	755f6f69 	ldrvcb	r6, [pc, #-3945]	; fffffb93 <__bss_end__+0x5cfbb3df>
 af8:	70616d6e 	rsbvc	r6, r1, lr, ror #26
 afc:	6261745f 	rsbvs	r7, r1, #1593835520	; 0x5f000000
 b00:	6700656c 	strvs	r6, [r0, -ip, ror #10]
 b04:	70756f72 	rsbvcs	r6, r5, r2, ror pc
 b08:	6e75725f 	mrcvs	2, 3, r7, cr5, cr15, {2}
 b0c:	7469625f 	strvcbt	r6, [r9], #-607
 b10:	75720073 	ldrvcb	r0, [r2, #-115]!
 b14:	6575716e 	ldrvsb	r7, [r5, #-366]!
 b18:	695f6575 	ldmvsdb	pc, {r0, r2, r4, r5, r6, r8, sl, sp, lr}^
 b1c:	0074696e 	rsbeqs	r6, r4, lr, ror #18
 b20:	5f6e7572 	svcpl	0x006e7572
 b24:	7473696c 	ldrvcbt	r6, [r3], #-2412
 b28:	6e757200 	cdpvs	2, 7, cr7, cr5, cr0, {0}
 b2c:	75657571 	strvcb	r7, [r5, #-1393]!
 b30:	65725f65 	ldrvsb	r5, [r2, #-3941]!
 b34:	65766f6d 	ldrvsb	r6, [r6, #-3949]!
 b38:	6e757200 	cdpvs	2, 7, cr7, cr5, cr0, {0}
 b3c:	75657571 	strvcb	r7, [r5, #-1393]!
 b40:	64615f65 	strvsbt	r5, [r1], #-3941
 b44:	682f0064 	stmvsda	pc!, {r2, r5, r6}
 b48:	2f656d6f 	svccs	0x00656d6f
 b4c:	6162616a 	cmnvs	r2, sl, ror #2
 b50:	6f442f74 	svcvs	0x00442f74
 b54:	656d7563 	strvsb	r7, [sp, #-1379]!
 b58:	2f73746e 	svccs	0x0073746e
 b5c:	65626d65 	strvsb	r6, [r2, #-3429]!
 b60:	64656464 	strvsbt	r6, [r5], #-1124
 b64:	62616c5f 	rsbvs	r6, r1, #24320	; 0x5f00
 b68:	616c2f73 	smcvs	49907
 b6c:	6b2f3462 	blvs	bcdcfc <_start-0xa2432304>
 b70:	656e7265 	strvsb	r7, [lr, #-613]!
 b74:	63732f6c 	cmnvs	r3, #432	; 0x1b0
 b78:	2f646568 	svccs	0x00646568
 b7c:	5f6e7572 	svcpl	0x006e7572
 b80:	75657571 	strvcb	r7, [r5, #-1393]!
 b84:	00632e65 	rsbeq	r2, r3, r5, ror #28
 b88:	5f746572 	svcpl	0x00746572
 b8c:	00626374 	rsbeq	r6, r2, r4, ror r3
 b90:	534c4146 	movtpl	r4, #49478	; 0xc146
 b94:	756d0045 	strvcb	r0, [sp, #-69]!
 b98:	5f786574 	svcpl	0x00786574
 b9c:	6b636f6c 	blvs	18dc954 <_start-0xa17236ac>
 ba0:	6f4c6200 	svcvs	0x004c6200
 ba4:	70006b63 	andvc	r6, r0, r3, ror #22
 ba8:	65656c53 	strvsb	r6, [r5, #-3155]!
 bac:	75715f70 	ldrvcb	r5, [r1, #-3952]!
 bb0:	00657565 	rsbeq	r7, r5, r5, ror #10
 bb4:	6574756d 	ldrvsb	r7, [r4, #-1389]!
 bb8:	6e695f78 	mcrvs	15, 3, r5, cr9, cr8, {3}
 bbc:	6d007469 	cfstrsvs	mvf7, [r0, #-420]
 bc0:	78657475 	stmvcda	r5!, {r0, r2, r4, r5, r6, sl, ip, sp, lr}^
 bc4:	6d004449 	cfstrsvs	mvf4, [r0, #-292]
 bc8:	78657475 	stmvcda	r5!, {r0, r2, r4, r5, r6, sl, ip, sp, lr}^
 bcc:	6572635f 	ldrvsb	r6, [r2, #-863]!
 bd0:	00657461 	rsbeq	r7, r5, r1, ror #8
 bd4:	6574756d 	ldrvsb	r7, [r4, #-1389]!
 bd8:	00745f78 	rsbeqs	r5, r4, r8, ror pc
 bdc:	6574756d 	ldrvsb	r7, [r4, #-1389]!
 be0:	6f620078 	svcvs	0x00620078
 be4:	655f6c6f 	ldrvsb	r6, [pc, #-3183]	; ffffff7d <__bss_end__+0x5cfbb7c9>
 be8:	6f682f00 	svcvs	0x00682f00
 bec:	6a2f656d 	bvs	bda1a8 <_start-0xa2425e58>
 bf0:	74616261 	strvcbt	r6, [r1], #-609
 bf4:	636f442f 	cmnvs	pc, #788529152	; 0x2f000000
 bf8:	6e656d75 	mcrvs	13, 3, r6, cr5, cr5, {3}
 bfc:	652f7374 	strvs	r7, [pc, #-884]!	; 890 <_start-0xa2fff770>
 c00:	6465626d 	strvsbt	r6, [r5], #-621
 c04:	5f646564 	svcpl	0x00646564
 c08:	7362616c 	cmnvc	r2, #27	; 0x1b
 c0c:	62616c2f 	rsbvs	r6, r1, #12032	; 0x2f00
 c10:	656b2f34 	strvsb	r2, [fp, #-3892]!
 c14:	6c656e72 	stcvsl	14, cr6, [r5], #-456
 c18:	636f6c2f 	cmnvs	pc, #12032	; 0x2f00
 c1c:	756d2f6b 	strvcb	r2, [sp, #-3947]!
 c20:	2e786574 	mrccs	5, 3, r6, cr8, cr4, {3}
 c24:	41620063 	cmnmi	r2, r3, rrx
 c28:	6c696176 	stfvse	f6, [r9], #-472
 c2c:	656c6261 	strvsb	r6, [ip, #-609]!
 c30:	55525400 	ldrplb	r5, [r2, #-1024]
 c34:	74670045 	strvcbt	r0, [r7], #-69
 c38:	6574754d 	ldrvsb	r7, [r4, #-1357]!
 c3c:	756d0078 	strvcb	r0, [sp, #-120]!
 c40:	5f786574 	svcpl	0x00786574
 c44:	6f6c6e75 	svcvs	0x006c6e75
 c48:	70006b63 	andvc	r6, r0, r3, ror #22
 c4c:	646c6f48 	strvsbt	r6, [ip], #-3912
 c50:	5f676e69 	svcpl	0x00676e69
 c54:	00626354 	rsbeq	r6, r2, r4, asr r3
 c58:	73625f5f 	cmnvc	r2, #380	; 0x17c
 c5c:	74735f73 	ldrvcbt	r5, [r3], #-3955
 c60:	00747261 	rsbeqs	r7, r4, r1, ror #4
 c64:	5f707061 	svcpl	0x00707061
 c68:	72617473 	rsbvc	r7, r1, #1929379840	; 0x73000000
 c6c:	00707574 	rsbeqs	r7, r0, r4, ror r5
 c70:	6d6d7564 	cfstr64vs	mvdx7, [sp, #-400]!
 c74:	682f0079 	stmvsda	pc!, {r0, r3, r4, r5, r6}
 c78:	2f656d6f 	svccs	0x00656d6f
 c7c:	6162616a 	cmnvs	r2, sl, ror #2
 c80:	6f442f74 	svcvs	0x00442f74
 c84:	656d7563 	strvsb	r7, [sp, #-1379]!
 c88:	2f73746e 	svccs	0x0073746e
 c8c:	65626d65 	strvsb	r6, [r2, #-3429]!
 c90:	64656464 	strvsbt	r6, [r5], #-1124
 c94:	62616c5f 	rsbvs	r6, r1, #24320	; 0x5f00
 c98:	616c2f73 	smcvs	49907
 c9c:	752f3462 	strvc	r3, [pc, #-1122]!	; 842 <_start-0xa2fff7be>
 ca0:	746f6f62 	strvcbt	r6, [pc], #3938	; ca8 <_start-0xa2fff358>
 ca4:	7574732f 	ldrvcb	r7, [r4, #-815]!
 ca8:	632e7362 	teqvs	lr, #-2013265919	; 0x88000001
	...
Disassembly of section .debug_loc:

00000000 <.debug_loc>:
   0:	00000000 	andeq	r0, r0, r0
   4:	00000004 	andeq	r0, r0, r4
   8:	045d0001 	ldreqb	r0, [sp], #-1
   c:	10000000 	andne	r0, r0, r0
  10:	02000000 	andeq	r0, r0, #0	; 0x0
  14:	10147d00 	andnes	r7, r4, r0, lsl #26
  18:	b4000000 	strlt	r0, [r0]
  1c:	02000000 	andeq	r0, r0, #0	; 0x0
  20:	00287d00 	eoreq	r7, r8, r0, lsl #26
	...
  2c:	14000000 	strne	r0, [r0]
  30:	01000000 	tsteq	r0, r0
  34:	00145000 	andeqs	r5, r4, r0
  38:	00b40000 	adceqs	r0, r4, r0
  3c:	00010000 	andeq	r0, r1, r0
  40:	00000057 	andeq	r0, r0, r7, asr r0
  44:	00000000 	andeq	r0, r0, r0
  48:	0000b400 	andeq	fp, r0, r0, lsl #8
  4c:	0000b800 	andeq	fp, r0, r0, lsl #16
  50:	5d000100 	stfpls	f0, [r0]
  54:	000000b8 	streqh	r0, [r0], -r8
  58:	000000bc 	streqh	r0, [r0], -ip
  5c:	107d0002 	rsbnes	r0, sp, r2
  60:	000000bc 	streqh	r0, [r0], -ip
  64:	000000e0 	andeq	r0, r0, r0, ror #1
  68:	147d0002 	ldrnebt	r0, [sp], #-2
	...
  74:	000000d0 	ldreqd	r0, [r0], -r0
  78:	000000d4 	ldreqd	r0, [r0], -r4
  7c:	00530001 	subeqs	r0, r3, r1
	...
  88:	04000000 	streq	r0, [r0]
  8c:	01000000 	tsteq	r0, r0
  90:	00045d00 	andeq	r5, r4, r0, lsl #26
  94:	01cc0000 	biceq	r0, ip, r0
  98:	00020000 	andeq	r0, r2, r0
  9c:	0000147d 	andeq	r1, r0, sp, ror r4
	...
  a8:	00200000 	eoreq	r0, r0, r0
  ac:	00010000 	andeq	r0, r1, r0
  b0:	00002050 	andeq	r2, r0, r0, asr r0
  b4:	0001cc00 	andeq	ip, r1, r0, lsl #24
  b8:	56000100 	strpl	r0, [r0], -r0, lsl #2
	...
  c8:	00000020 	andeq	r0, r0, r0, lsr #32
  cc:	20510001 	subcss	r0, r1, r1
  d0:	cc000000 	stcgt	0, cr0, [r0], {0}
  d4:	01000001 	tsteq	r0, r1
  d8:	00005700 	andeq	r5, r0, r0, lsl #14
	...
  e4:	00200000 	eoreq	r0, r0, r0
  e8:	00010000 	andeq	r0, r1, r0
  ec:	00002052 	andeq	r2, r0, r2, asr r0
  f0:	0000a800 	andeq	sl, r0, r0, lsl #16
  f4:	54000100 	strpl	r0, [r0], #-256
  f8:	000000ac 	andeq	r0, r0, ip, lsr #1
  fc:	0000011c 	andeq	r0, r0, ip, lsl r1
 100:	00540001 	subeqs	r0, r4, r1
 104:	00000000 	andeq	r0, r0, r0
 108:	1c000000 	stcne	0, cr0, [r0], {0}
 10c:	48000001 	stmmida	r0, {r0}
 110:	01000001 	tsteq	r0, r1
 114:	00005400 	andeq	r5, r0, r0, lsl #8
 118:	00000000 	andeq	r0, r0, r0
 11c:	00a80000 	adceq	r0, r8, r0
 120:	00ac0000 	adceq	r0, ip, r0
 124:	00010000 	andeq	r0, r1, r0
 128:	00014854 	andeq	r4, r1, r4, asr r8
 12c:	0001cc00 	andeq	ip, r1, r0, lsl #24
 130:	54000100 	strpl	r0, [r0], #-256
	...
 140:	00000024 	andeq	r0, r0, r4, lsr #32
 144:	00500001 	subeqs	r0, r0, r1
 148:	00000000 	andeq	r0, r0, r0
 14c:	28000000 	stmcsda	r0, {}
 150:	40000000 	andmi	r0, r0, r0
 154:	01000000 	tsteq	r0, r0
 158:	00005000 	andeq	r5, r0, r0
	...
 164:	00400000 	subeq	r0, r0, r0
 168:	00010000 	andeq	r0, r1, r0
 16c:	00000050 	andeq	r0, r0, r0, asr r0
	...
 178:	00002800 	andeq	r2, r0, r0, lsl #16
 17c:	52000100 	andpl	r0, r0, #0	; 0x0
 180:	0000003c 	andeq	r0, r0, ip, lsr r0
 184:	00000044 	andeq	r0, r0, r4, asr #32
 188:	00520001 	subeqs	r0, r2, r1
	...
 194:	10000000 	andne	r0, r0, r0
 198:	01000000 	tsteq	r0, r0
 19c:	00105300 	andeqs	r5, r0, r0, lsl #6
 1a0:	00440000 	subeq	r0, r4, r0
 1a4:	00010000 	andeq	r0, r1, r0
 1a8:	0000005c 	andeq	r0, r0, ip, asr r0
	...
 1b4:	00000400 	andeq	r0, r0, r0, lsl #8
 1b8:	5d000100 	stfpls	f0, [r0]
 1bc:	00000004 	andeq	r0, r0, r4
 1c0:	00000014 	andeq	r0, r0, r4, lsl r0
 1c4:	047d0002 	ldreqbt	r0, [sp], #-2
	...
 1d4:	00000004 	andeq	r0, r0, r4
 1d8:	045d0001 	ldreqb	r0, [sp], #-1
 1dc:	04000000 	streq	r0, [r0]
 1e0:	02000001 	andeq	r0, r0, #1	; 0x1
 1e4:	00187d00 	andeqs	r7, r8, r0, lsl #26
	...
 1f0:	0c000000 	stceq	0, cr0, [r0], {0}
 1f4:	01000000 	tsteq	r0, r0
 1f8:	000c5000 	andeq	r5, ip, r0
 1fc:	01040000 	tsteq	r4, r0
 200:	00010000 	andeq	r0, r1, r0
 204:	0000005a 	andeq	r0, r0, sl, asr r0
	...
 210:	00001400 	andeq	r1, r0, r0, lsl #8
 214:	51000100 	tstpl	r0, r0, lsl #2
 218:	00000014 	andeq	r0, r0, r4, lsl r0
 21c:	00000104 	andeq	r0, r0, r4, lsl #2
 220:	00570001 	subeqs	r0, r7, r1
 224:	00000000 	andeq	r0, r0, r0
 228:	18000000 	stmneda	r0, {}
 22c:	2c000000 	stccs	0, cr0, [r0], {0}
 230:	01000000 	tsteq	r0, r0
 234:	002c5500 	eoreq	r5, ip, r0, lsl #10
 238:	007c0000 	rsbeqs	r0, ip, r0
 23c:	00010000 	andeq	r0, r1, r0
 240:	00000054 	andeq	r0, r0, r4, asr r0
	...
 24c:	00001000 	andeq	r1, r0, r0
 250:	5d000100 	stfpls	f0, [r0]
 254:	00000010 	andeq	r0, r0, r0, lsl r0
 258:	0000011c 	andeq	r0, r0, ip, lsl r1
 25c:	087d0002 	ldmeqda	sp!, {r1}^
	...
 26c:	00000018 	andeq	r0, r0, r8, lsl r0
 270:	18500001 	ldmneda	r0, {r0}^
 274:	1c000000 	stcne	0, cr0, [r0], {0}
 278:	01000001 	tsteq	r0, r1
 27c:	00005e00 	andeq	r5, r0, r0, lsl #28
 280:	00000000 	andeq	r0, r0, r0
 284:	01200000 	teqeq	r0, r0
 288:	01240000 	teqeq	r4, r0
 28c:	00010000 	andeq	r0, r1, r0
 290:	0001245d 	andeq	r2, r1, sp, asr r4
 294:	00022800 	andeq	r2, r2, r0, lsl #16
 298:	7d000200 	sfmvc	f0, 4, [r0]
 29c:	00000008 	andeq	r0, r0, r8
	...
 2a8:	00000400 	andeq	r0, r0, r0, lsl #8
 2ac:	5d000100 	stfpls	f0, [r0]
 2b0:	00000004 	andeq	r0, r0, r4
 2b4:	000000f0 	streqd	r0, [r0], -r0
 2b8:	1c7d0002 	ldcnel	0, cr0, [sp], #-8
	...
 2c8:	00000024 	andeq	r0, r0, r4, lsr #32
 2cc:	24500001 	ldrcsb	r0, [r0], #-1
 2d0:	f0000000 	undefined instruction 0xf0000000
 2d4:	01000000 	tsteq	r0, r0
 2d8:	00005900 	andeq	r5, r0, r0, lsl #18
 2dc:	00000000 	andeq	r0, r0, r0
 2e0:	00240000 	eoreq	r0, r4, r0
 2e4:	00780000 	rsbeqs	r0, r8, r0
 2e8:	00010000 	andeq	r0, r1, r0
 2ec:	00007856 	andeq	r7, r0, r6, asr r8
 2f0:	00008400 	andeq	r8, r0, r0, lsl #8
 2f4:	51000100 	tstpl	r0, r0, lsl #2
 2f8:	00000084 	andeq	r0, r0, r4, lsl #1
 2fc:	000000f0 	streqd	r0, [r0], -r0
 300:	00560001 	subeqs	r0, r6, r1
 304:	00000000 	andeq	r0, r0, r0
 308:	20000000 	andcs	r0, r0, r0
 30c:	70000000 	andvc	r0, r0, r0
 310:	01000000 	tsteq	r0, r0
 314:	00945700 	addeqs	r5, r4, r0, lsl #14
 318:	00f00000 	rsceqs	r0, r0, r0
 31c:	00010000 	andeq	r0, r1, r0
 320:	00000057 	andeq	r0, r0, r7, asr r0
 324:	00000000 	andeq	r0, r0, r0
 328:	00000c00 	andeq	r0, r0, r0, lsl #24
 32c:	00001000 	andeq	r1, r0, r0
 330:	53000100 	movwpl	r0, #256	; 0x100
 334:	00000010 	andeq	r0, r0, r0, lsl r0
 338:	00000028 	andeq	r0, r0, r8, lsr #32
 33c:	00530001 	subeqs	r0, r3, r1
 340:	00000000 	andeq	r0, r0, r0
 344:	24000000 	strcs	r0, [r0]
 348:	44000000 	strmi	r0, [r0]
 34c:	01000000 	tsteq	r0, r0
 350:	00445000 	subeq	r5, r4, r0
 354:	00540000 	subeqs	r0, r4, r0
 358:	00010000 	andeq	r0, r1, r0
 35c:	00005454 	andeq	r5, r0, r4, asr r4
 360:	00005c00 	andeq	r5, r0, r0, lsl #24
 364:	50000100 	andpl	r0, r0, r0, lsl #2
 368:	0000005c 	andeq	r0, r0, ip, asr r0
 36c:	0000009c 	muleq	r0, ip, r0
 370:	9c540001 	mrrcls	0, 0, r0, r4, cr1
 374:	cc000000 	stcgt	0, cr0, [r0], {0}
 378:	01000000 	tsteq	r0, r0
 37c:	00cc5000 	sbceq	r5, ip, r0
 380:	00f00000 	rsceqs	r0, r0, r0
 384:	00010000 	andeq	r0, r1, r0
 388:	00000054 	andeq	r0, r0, r4, asr r0
 38c:	00000000 	andeq	r0, r0, r0
 390:	00005400 	andeq	r5, r0, r0, lsl #8
 394:	00005c00 	andeq	r5, r0, r0, lsl #24
 398:	52000100 	andpl	r0, r0, #0	; 0x0
 39c:	00000088 	andeq	r0, r0, r8, lsl #1
 3a0:	000000a4 	andeq	r0, r0, r4, lsr #1
 3a4:	00520001 	subeqs	r0, r2, r1
 3a8:	00000000 	andeq	r0, r0, r0
 3ac:	d0000000 	andle	r0, r0, r0
 3b0:	d4000000 	strle	r0, [r0]
 3b4:	01000000 	tsteq	r0, r0
 3b8:	00005300 	andeq	r5, r0, r0, lsl #6
 3bc:	00000000 	andeq	r0, r0, r0
 3c0:	00f40000 	rsceqs	r0, r4, r0
 3c4:	00f80000 	rsceqs	r0, r8, r0
 3c8:	00010000 	andeq	r0, r1, r0
 3cc:	00000053 	andeq	r0, r0, r3, asr r0
 3d0:	00000000 	andeq	r0, r0, r0
 3d4:	00012000 	andeq	r2, r1, r0
 3d8:	00012400 	andeq	r2, r1, r0, lsl #8
 3dc:	53000100 	movwpl	r0, #256	; 0x100
	...
 3e8:	00000130 	andeq	r0, r0, r0, lsr r1
 3ec:	00000134 	andeq	r0, r0, r4, lsr r1
 3f0:	345d0001 	ldrccb	r0, [sp], #-1
 3f4:	b4000001 	strlt	r0, [r0], #-1
 3f8:	02000001 	andeq	r0, r0, #1	; 0x1
 3fc:	000c7d00 	andeq	r7, ip, r0, lsl #26
 400:	00000000 	andeq	r0, r0, r0
 404:	30000000 	andcc	r0, r0, r0
 408:	4c000001 	stcmi	0, cr0, [r0], {1}
 40c:	01000001 	tsteq	r0, r1
 410:	014c5000 	cmpeq	ip, r0
 414:	01b40000 	moveqs	r0, r0
 418:	00010000 	andeq	r0, r1, r0
 41c:	00000054 	andeq	r0, r0, r4, asr r0
 420:	00000000 	andeq	r0, r0, r0
 424:	00016c00 	andeq	r6, r1, r0, lsl #24
 428:	00019400 	andeq	r9, r1, r0, lsl #8
 42c:	5e000100 	adfpls	f0, f0, f0
 430:	00000194 	muleq	r0, r4, r1
 434:	000001b4 	streqh	r0, [r0], -r4
 438:	005e0001 	subeqs	r0, lr, r1
 43c:	00000000 	andeq	r0, r0, r0
 440:	3c000000 	stccc	0, cr0, [r0], {0}
 444:	40000001 	andmi	r0, r0, r1
 448:	01000001 	tsteq	r0, r1
 44c:	01405300 	cmpeq	r0, r0, lsl #6
 450:	01500000 	cmpeq	r0, r0
 454:	00010000 	andeq	r0, r1, r0
 458:	00000053 	andeq	r0, r0, r3, asr r0
 45c:	00000000 	andeq	r0, r0, r0
 460:	00019800 	andeq	r9, r1, r0, lsl #16
 464:	00019c00 	andeq	r9, r1, r0, lsl #24
 468:	53000100 	movwpl	r0, #256	; 0x100
	...
 478:	0000000c 	andeq	r0, r0, ip
 47c:	00500001 	subeqs	r0, r0, r1
 480:	00000000 	andeq	r0, r0, r0
 484:	10000000 	andne	r0, r0, r0
 488:	14000000 	strne	r0, [r0]
 48c:	01000000 	tsteq	r0, r0
 490:	00005000 	andeq	r5, r0, r0
 494:	00000000 	andeq	r0, r0, r0
 498:	00240000 	eoreq	r0, r4, r0
 49c:	00280000 	eoreq	r0, r8, r0
 4a0:	00010000 	andeq	r0, r1, r0
 4a4:	00000050 	andeq	r0, r0, r0, asr r0
 4a8:	00000000 	andeq	r0, r0, r0
 4ac:	00003800 	andeq	r3, r0, r0, lsl #16
 4b0:	00003c00 	andeq	r3, r0, r0, lsl #24
 4b4:	50000100 	andpl	r0, r0, r0, lsl #2
	...
 4c0:	0000004c 	andeq	r0, r0, ip, asr #32
 4c4:	00000050 	andeq	r0, r0, r0, asr r0
 4c8:	00500001 	subeqs	r0, r0, r1
 4cc:	00000000 	andeq	r0, r0, r0
 4d0:	60000000 	andvs	r0, r0, r0
 4d4:	64000000 	strvs	r0, [r0]
 4d8:	01000000 	tsteq	r0, r0
 4dc:	00005000 	andeq	r5, r0, r0
 4e0:	00000000 	andeq	r0, r0, r0
 4e4:	00740000 	rsbeqs	r0, r4, r0
 4e8:	009c0000 	addeqs	r0, ip, r0
 4ec:	00010000 	andeq	r0, r1, r0
 4f0:	0000a050 	andeq	sl, r0, r0, asr r0
 4f4:	0000a400 	andeq	sl, r0, r0, lsl #8
 4f8:	50000100 	andpl	r0, r0, r0, lsl #2
	...
 504:	000000a8 	andeq	r0, r0, r8, lsr #1
 508:	000000ac 	andeq	r0, r0, ip, lsr #1
 50c:	00500001 	subeqs	r0, r0, r1
 510:	00000000 	andeq	r0, r0, r0
 514:	bc000000 	stclt	0, cr0, [r0], {0}
 518:	bc000000 	stclt	0, cr0, [r0], {0}
 51c:	01000000 	tsteq	r0, r0
 520:	00005000 	andeq	r5, r0, r0
 524:	00000000 	andeq	r0, r0, r0
 528:	00e40000 	rsceq	r0, r4, r0
 52c:	00e80000 	rsceq	r0, r8, r0
 530:	00010000 	andeq	r0, r1, r0
 534:	0000e85d 	andeq	lr, r0, sp, asr r8
 538:	00011000 	andeq	r1, r1, r0
 53c:	7d000200 	sfmvc	f0, 4, [r0]
 540:	00000008 	andeq	r0, r0, r8
 544:	00000000 	andeq	r0, r0, r0
 548:	0000e400 	andeq	lr, r0, r0, lsl #8
 54c:	0000f000 	andeq	pc, r0, r0
 550:	50000100 	andpl	r0, r0, r0, lsl #2
 554:	000000f0 	streqd	r0, [r0], -r0
 558:	000000f8 	streqd	r0, [r0], -r8
 55c:	00540001 	subeqs	r0, r4, r1
 560:	00000000 	andeq	r0, r0, r0
 564:	10000000 	andne	r0, r0, r0
 568:	1c000001 	stcne	0, cr0, [r0], {1}
 56c:	01000001 	tsteq	r0, r1
 570:	00005000 	andeq	r5, r0, r0
 574:	00000000 	andeq	r0, r0, r0
 578:	01200000 	teqeq	r0, r0
 57c:	01380000 	teqeq	r8, r0
 580:	00010000 	andeq	r0, r1, r0
 584:	00014c50 	andeq	r4, r1, r0, asr ip
 588:	00015000 	andeq	r5, r1, r0
 58c:	50000100 	andpl	r0, r0, r0, lsl #2
	...
 598:	00000154 	andeq	r0, r0, r4, asr r1
 59c:	00000160 	andeq	r0, r0, r0, ror #2
 5a0:	605d0001 	subvss	r0, sp, r1
 5a4:	7c000001 	stcvc	0, cr0, [r0], {1}
 5a8:	02000001 	andeq	r0, r0, #1	; 0x1
 5ac:	00047d00 	andeq	r7, r4, r0, lsl #26
 5b0:	00000000 	andeq	r0, r0, r0
 5b4:	54000000 	strpl	r0, [r0]
 5b8:	6c000001 	stcvs	0, cr0, [r0], {1}
 5bc:	01000001 	tsteq	r0, r1
 5c0:	01745000 	cmneq	r4, r0
 5c4:	01780000 	cmneq	r8, r0
 5c8:	00010000 	andeq	r0, r1, r0
 5cc:	00000050 	andeq	r0, r0, r0, asr r0
 5d0:	00000000 	andeq	r0, r0, r0
 5d4:	00017c00 	andeq	r7, r1, r0, lsl #24
 5d8:	00018800 	andeq	r8, r1, r0, lsl #16
 5dc:	50000100 	andpl	r0, r0, r0, lsl #2
	...
 5ec:	00000004 	andeq	r0, r0, r4
 5f0:	045d0001 	ldreqb	r0, [sp], #-1
 5f4:	40000000 	andmi	r0, r0, r0
 5f8:	02000000 	andeq	r0, r0, #0	; 0x0
 5fc:	00047d00 	andeq	r7, r4, r0, lsl #26
	...
 608:	0c000000 	stceq	0, cr0, [r0], {0}
 60c:	01000000 	tsteq	r0, r0
 610:	00005000 	andeq	r5, r0, r0
	...
 61c:	00080000 	andeq	r0, r8, r0
 620:	00010000 	andeq	r0, r1, r0
 624:	00000052 	andeq	r0, r0, r2, asr r0
 628:	00000000 	andeq	r0, r0, r0
 62c:	00005800 	andeq	r5, r0, r0, lsl #16
 630:	00006000 	andeq	r6, r0, r0
 634:	5d000100 	stfpls	f0, [r0]
 638:	00000060 	andeq	r0, r0, r0, rrx
 63c:	000000bc 	streqh	r0, [r0], -ip
 640:	047d0002 	ldreqbt	r0, [sp], #-2
	...
 64c:	000000bc 	streqh	r0, [r0], -ip
 650:	000000c4 	andeq	r0, r0, r4, asr #1
 654:	c45d0001 	ldrgtb	r0, [sp], #-1
 658:	fc000000 	stc2	0, cr0, [r0], {0}
 65c:	02000000 	andeq	r0, r0, #0	; 0x0
 660:	00047d00 	andeq	r7, r4, r0, lsl #26
 664:	00000000 	andeq	r0, r0, r0
 668:	0c000000 	stceq	0, cr0, [r0], {0}
 66c:	18000000 	stmneda	r0, {}
 670:	01000000 	tsteq	r0, r0
 674:	00005300 	andeq	r5, r0, r0, lsl #6
	...
 680:	00040000 	andeq	r0, r4, r0
 684:	00010000 	andeq	r0, r1, r0
 688:	00000050 	andeq	r0, r0, r0, asr r0
 68c:	00000000 	andeq	r0, r0, r0
 690:	00000400 	andeq	r0, r0, r0, lsl #8
 694:	00000800 	andeq	r0, r0, r0, lsl #16
 698:	5d000100 	stfpls	f0, [r0]
 69c:	00000008 	andeq	r0, r0, r8
 6a0:	0000000c 	andeq	r0, r0, ip
 6a4:	0c7d0002 	ldceql	0, cr0, [sp], #-8
 6a8:	0000000c 	andeq	r0, r0, ip
 6ac:	00000188 	andeq	r0, r0, r8, lsl #3
 6b0:	347d0002 	ldrccbt	r0, [sp], #-2
	...
 6bc:	00000004 	andeq	r0, r0, r4
 6c0:	00000018 	andeq	r0, r0, r8, lsl r0
 6c4:	18500001 	ldmneda	r0, {r0}^
 6c8:	88000000 	stmhida	r0, {}
 6cc:	01000001 	tsteq	r0, r1
 6d0:	00005500 	andeq	r5, r0, r0, lsl #10
 6d4:	00000000 	andeq	r0, r0, r0
 6d8:	00040000 	andeq	r0, r4, r0
 6dc:	00180000 	andeqs	r0, r8, r0
 6e0:	00010000 	andeq	r0, r1, r0
 6e4:	00001851 	andeq	r1, r0, r1, asr r8
 6e8:	0000f800 	andeq	pc, r0, r0, lsl #16
 6ec:	54000100 	strpl	r0, [r0], #-256
 6f0:	000000fc 	streqd	r0, [r0], -ip
 6f4:	00000134 	andeq	r0, r0, r4, lsr r1
 6f8:	38540001 	ldmccda	r4, {r0}^
 6fc:	40000001 	andmi	r0, r0, r1
 700:	01000001 	tsteq	r0, r1
 704:	00005400 	andeq	r5, r0, r0, lsl #8
 708:	00000000 	andeq	r0, r0, r0
 70c:	00f80000 	rsceqs	r0, r8, r0
 710:	00fc0000 	rsceqs	r0, ip, r0
 714:	00010000 	andeq	r0, r1, r0
 718:	00013454 	andeq	r3, r1, r4, asr r4
 71c:	00013800 	andeq	r3, r1, r0, lsl #16
 720:	54000100 	strpl	r0, [r0], #-256
 724:	00000140 	andeq	r0, r0, r0, asr #2
 728:	00000188 	andeq	r0, r0, r8, lsl #3
 72c:	00540001 	subeqs	r0, r4, r1
 730:	00000000 	andeq	r0, r0, r0
 734:	3c000000 	stccc	0, cr0, [r0], {0}
 738:	40000000 	andmi	r0, r0, r0
 73c:	01000000 	tsteq	r0, r0
 740:	00005300 	andeq	r5, r0, r0, lsl #6
 744:	00000000 	andeq	r0, r0, r0
 748:	01440000 	cmpeq	r4, r0
 74c:	01480000 	cmpeq	r8, r0
 750:	00010000 	andeq	r0, r1, r0
 754:	00014853 	andeq	r4, r1, r3, asr r8
 758:	00015000 	andeq	r5, r1, r0
 75c:	53000100 	movwpl	r0, #256	; 0x100
	...
 76c:	00000004 	andeq	r0, r0, r4
 770:	00500001 	subeqs	r0, r0, r1
 774:	00000000 	andeq	r0, r0, r0
 778:	0c000000 	stceq	0, cr0, [r0], {0}
 77c:	10000000 	andne	r0, r0, r0
 780:	01000000 	tsteq	r0, r0
 784:	00005000 	andeq	r5, r0, r0
 788:	00000000 	andeq	r0, r0, r0
 78c:	00180000 	andeqs	r0, r8, r0
 790:	001c0000 	andeqs	r0, ip, r0
 794:	00010000 	andeq	r0, r1, r0
 798:	00000050 	andeq	r0, r0, r0, asr r0
 79c:	00000000 	andeq	r0, r0, r0
 7a0:	00002c00 	andeq	r2, r0, r0, lsl #24
 7a4:	00003000 	andeq	r3, r0, r0
 7a8:	50000100 	andpl	r0, r0, r0, lsl #2
	...
 7b4:	00000004 	andeq	r0, r0, r4
 7b8:	00000004 	andeq	r0, r0, r4
 7bc:	00500001 	subeqs	r0, r0, r1
	...
 7c8:	08000000 	stmeqda	r0, {}
 7cc:	01000000 	tsteq	r0, r0
 7d0:	00085d00 	andeq	r5, r8, r0, lsl #26
 7d4:	00a40000 	adceq	r0, r4, r0
 7d8:	00020000 	andeq	r0, r2, r0
 7dc:	0000147d 	andeq	r1, r0, sp, ror r4
	...
 7e8:	00280000 	eoreq	r0, r8, r0
 7ec:	00010000 	andeq	r0, r1, r0
 7f0:	00002c50 	andeq	r2, r0, r0, asr ip
 7f4:	00003000 	andeq	r3, r0, r0
 7f8:	50000100 	andpl	r0, r0, r0, lsl #2
 7fc:	00000034 	andeq	r0, r0, r4, lsr r0
 800:	00000038 	andeq	r0, r0, r8, lsr r0
 804:	00500001 	subeqs	r0, r0, r1
	...
 810:	14000000 	strne	r0, [r0]
 814:	01000000 	tsteq	r0, r0
 818:	00145100 	andeqs	r5, r4, r0, lsl #2
 81c:	00a40000 	adceq	r0, r4, r0
 820:	00010000 	andeq	r0, r1, r0
 824:	00000057 	andeq	r0, r0, r7, asr r0
	...
 830:	00001400 	andeq	r1, r0, r0, lsl #8
 834:	52000100 	andpl	r0, r0, #0	; 0x0
 838:	00000014 	andeq	r0, r0, r4, lsl r0
 83c:	00000050 	andeq	r0, r0, r0, asr r0
 840:	50560001 	subpls	r0, r6, r1
 844:	a4000000 	strge	r0, [r0]
 848:	01000000 	tsteq	r0, r0
 84c:	00005400 	andeq	r5, r0, r0, lsl #8
 850:	00000000 	andeq	r0, r0, r0
 854:	00380000 	eoreqs	r0, r8, r0
 858:	00480000 	subeq	r0, r8, r0
 85c:	00010000 	andeq	r0, r1, r0
 860:	00000050 	andeq	r0, r0, r0, asr r0
 864:	00000000 	andeq	r0, r0, r0
 868:	0000a400 	andeq	sl, r0, r0, lsl #8
 86c:	0000a800 	andeq	sl, r0, r0, lsl #16
 870:	5d000100 	stfpls	f0, [r0]
 874:	000000a8 	andeq	r0, r0, r8, lsr #1
 878:	00000170 	andeq	r0, r0, r0, ror r1
 87c:	107d0002 	rsbnes	r0, sp, r2
	...
 888:	000000a4 	andeq	r0, r0, r4, lsr #1
 88c:	000000b8 	streqh	r0, [r0], -r8
 890:	b8500001 	ldmltda	r0, {r0}^
 894:	e4000000 	str	r0, [r0]
 898:	01000000 	tsteq	r0, r0
 89c:	015c5400 	cmpeq	ip, r0, lsl #8
 8a0:	015c0000 	cmpeq	ip, r0
 8a4:	00010000 	andeq	r0, r1, r0
 8a8:	00000054 	andeq	r0, r0, r4, asr r0
 8ac:	00000000 	andeq	r0, r0, r0
 8b0:	0000a400 	andeq	sl, r0, r0, lsl #8
 8b4:	0000b800 	andeq	fp, r0, r0, lsl #16
 8b8:	51000100 	tstpl	r0, r0, lsl #2
 8bc:	000000b8 	streqh	r0, [r0], -r8
 8c0:	00000170 	andeq	r0, r0, r0, ror r1
 8c4:	00550001 	subeqs	r0, r5, r1
 8c8:	00000000 	andeq	r0, r0, r0
 8cc:	a4000000 	strge	r0, [r0]
 8d0:	b8000000 	stmltda	r0, {}
 8d4:	01000000 	tsteq	r0, r0
 8d8:	00b85200 	adceqs	r5, r8, r0, lsl #4
 8dc:	01700000 	cmneq	r0, r0
 8e0:	00010000 	andeq	r0, r1, r0
 8e4:	00000056 	andeq	r0, r0, r6, asr r0
 8e8:	00000000 	andeq	r0, r0, r0
 8ec:	0000c400 	andeq	ip, r0, r0, lsl #8
 8f0:	0000d400 	andeq	sp, r0, r0, lsl #8
 8f4:	50000100 	andpl	r0, r0, r0, lsl #2
	...
 900:	000000ec 	andeq	r0, r0, ip, ror #1
 904:	00000120 	andeq	r0, r0, r0, lsr #2
 908:	24500001 	ldrcsb	r0, [r0], #-1
 90c:	34000001 	strcc	r0, [r0], #-1
 910:	01000001 	tsteq	r0, r1
 914:	013c5000 	teqeq	ip, r0
 918:	01400000 	cmpeq	r0, r0
 91c:	00010000 	andeq	r0, r1, r0
 920:	00014050 	andeq	r4, r1, r0, asr r0
 924:	00014000 	andeq	r4, r1, r0
 928:	50000100 	andpl	r0, r0, r0, lsl #2
 92c:	00000150 	andeq	r0, r0, r0, asr r1
 930:	0000015c 	andeq	r0, r0, ip, asr r1
 934:	00500001 	subeqs	r0, r0, r1
	...
 940:	08000000 	stmeqda	r0, {}
 944:	01000000 	tsteq	r0, r0
 948:	00085000 	andeq	r5, r8, r0
 94c:	000c0000 	andeq	r0, ip, r0
 950:	00010000 	andeq	r0, r1, r0
 954:	00000051 	andeq	r0, r0, r1, asr r0
 958:	00000000 	andeq	r0, r0, r0
 95c:	00001000 	andeq	r1, r0, r0
 960:	00001400 	andeq	r1, r0, r0, lsl #8
 964:	53000100 	movwpl	r0, #256	; 0x100
	...
 970:	00000020 	andeq	r0, r0, r0, lsr #32
 974:	00000024 	andeq	r0, r0, r4, lsr #32
 978:	245d0001 	ldrcsb	r0, [sp], #-1
 97c:	28000000 	stmcsda	r0, {}
 980:	02000000 	andeq	r0, r0, #0	; 0x0
 984:	280c7d00 	stmcsda	ip, {r8, sl, fp, ip, sp, lr}
 988:	ac000000 	stcge	0, cr0, [r0], {0}
 98c:	02000000 	andeq	r0, r0, #0	; 0x0
 990:	00107d00 	andeqs	r7, r0, r0, lsl #26
 994:	00000000 	andeq	r0, r0, r0
 998:	20000000 	andcs	r0, r0, r0
 99c:	44000000 	strmi	r0, [r0]
 9a0:	01000000 	tsteq	r0, r0
 9a4:	00445000 	subeq	r5, r4, r0
 9a8:	00ac0000 	adceq	r0, ip, r0
 9ac:	00020000 	andeq	r0, r2, r0
 9b0:	00007491 	muleq	r0, r1, r4
 9b4:	00000000 	andeq	r0, r0, r0
 9b8:	00200000 	eoreq	r0, r0, r0
 9bc:	00500000 	subeqs	r0, r0, r0
 9c0:	00010000 	andeq	r0, r1, r0
 9c4:	00005051 	andeq	r5, r0, r1, asr r0
 9c8:	00006800 	andeq	r6, r0, r0, lsl #16
 9cc:	54000100 	strpl	r0, [r0], #-256
 9d0:	00000068 	andeq	r0, r0, r8, rrx
 9d4:	0000006c 	andeq	r0, r0, ip, rrx
 9d8:	6c510001 	mrrcvs	0, 0, r0, r1, cr1
 9dc:	ac000000 	stcge	0, cr0, [r0], {0}
 9e0:	01000000 	tsteq	r0, r0
 9e4:	00005400 	andeq	r5, r0, r0, lsl #8
 9e8:	00000000 	andeq	r0, r0, r0
 9ec:	00340000 	eoreqs	r0, r4, r0
 9f0:	00380000 	eoreqs	r0, r8, r0
 9f4:	00010000 	andeq	r0, r1, r0
 9f8:	00000053 	andeq	r0, r0, r3, asr r0
 9fc:	00000000 	andeq	r0, r0, r0
 a00:	00008800 	andeq	r8, r0, r0, lsl #16
 a04:	00008c00 	andeq	r8, r0, r0, lsl #24
 a08:	53000100 	movwpl	r0, #256	; 0x100
	...
 a14:	000000ac 	andeq	r0, r0, ip, lsr #1
 a18:	000000b0 	streqh	r0, [r0], -r0
 a1c:	b05d0001 	sublts	r0, sp, r1
 a20:	18000000 	stmneda	r0, {}
 a24:	02000001 	andeq	r0, r0, #1	; 0x1
 a28:	000c7d00 	andeq	r7, ip, r0, lsl #26
 a2c:	00000000 	andeq	r0, r0, r0
 a30:	ac000000 	stcge	0, cr0, [r0], {0}
 a34:	c8000000 	stmgtda	r0, {}
 a38:	01000000 	tsteq	r0, r0
 a3c:	00c85000 	sbceq	r5, r8, r0
 a40:	01180000 	tsteq	r8, r0
 a44:	00010000 	andeq	r0, r1, r0
 a48:	00000054 	andeq	r0, r0, r4, asr r0
 a4c:	00000000 	andeq	r0, r0, r0
 a50:	0000b800 	andeq	fp, r0, r0, lsl #16
 a54:	0000bc00 	andeq	fp, r0, r0, lsl #24
 a58:	53000100 	movwpl	r0, #256	; 0x100
	...
 a64:	000000fc 	streqd	r0, [r0], -ip
 a68:	00000100 	andeq	r0, r0, r0, lsl #2
 a6c:	00530001 	subeqs	r0, r3, r1
 a70:	00000000 	andeq	r0, r0, r0
 a74:	14000000 	strne	r0, [r0]
 a78:	20000000 	andcs	r0, r0, r0
 a7c:	01000000 	tsteq	r0, r0
 a80:	00005000 	andeq	r5, r0, r0
 a84:	00000000 	andeq	r0, r0, r0
 a88:	00040000 	andeq	r0, r4, r0
 a8c:	00080000 	andeq	r0, r8, r0
 a90:	00010000 	andeq	r0, r1, r0
 a94:	00000053 	andeq	r0, r0, r3, asr r0
 a98:	00000000 	andeq	r0, r0, r0
 a9c:	00001800 	andeq	r1, r0, r0, lsl #16
 aa0:	00001c00 	andeq	r1, r0, r0, lsl #24
 aa4:	53000100 	movwpl	r0, #256	; 0x100
	...
 ab0:	0000002c 	andeq	r0, r0, ip, lsr #32
 ab4:	00000030 	andeq	r0, r0, r0, lsr r0
 ab8:	30530001 	subccs	r0, r3, r1
 abc:	38000000 	stmccda	r0, {}
 ac0:	01000000 	tsteq	r0, r0
 ac4:	00005300 	andeq	r5, r0, r0, lsl #6
 ac8:	00000000 	andeq	r0, r0, r0
 acc:	00400000 	subeq	r0, r0, r0
 ad0:	00440000 	subeq	r0, r4, r0
 ad4:	00010000 	andeq	r0, r1, r0
 ad8:	00004453 	andeq	r4, r0, r3, asr r4
 adc:	00005400 	andeq	r5, r0, r0, lsl #8
 ae0:	53000100 	movwpl	r0, #256	; 0x100
 ae4:	00000070 	andeq	r0, r0, r0, ror r0
 ae8:	00000080 	andeq	r0, r0, r0, lsl #1
 aec:	00530001 	subeqs	r0, r3, r1
 af0:	00000000 	andeq	r0, r0, r0
 af4:	54000000 	strpl	r0, [r0]
 af8:	58000000 	stmplda	r0, {}
 afc:	01000000 	tsteq	r0, r0
 b00:	00585300 	subeqs	r5, r8, r0, lsl #6
 b04:	00600000 	rsbeq	r0, r0, r0
 b08:	00010000 	andeq	r0, r1, r0
 b0c:	00000053 	andeq	r0, r0, r3, asr r0
 b10:	00000000 	andeq	r0, r0, r0
 b14:	00005000 	andeq	r5, r0, r0
 b18:	00005400 	andeq	r5, r0, r0, lsl #8
 b1c:	53000100 	movwpl	r0, #256	; 0x100
 b20:	00000068 	andeq	r0, r0, r8, rrx
 b24:	0000006c 	andeq	r0, r0, ip, rrx
 b28:	00530001 	subeqs	r0, r3, r1
 b2c:	00000000 	andeq	r0, r0, r0
 b30:	08000000 	stmeqda	r0, {}
 b34:	0c000000 	stceq	0, cr0, [r0], {0}
 b38:	01000000 	tsteq	r0, r0
 b3c:	00005300 	andeq	r5, r0, r0, lsl #6
 b40:	00000000 	andeq	r0, r0, r0
 b44:	00140000 	andeqs	r0, r4, r0
 b48:	00180000 	andeqs	r0, r8, r0
 b4c:	00010000 	andeq	r0, r1, r0
 b50:	0000185d 	andeq	r1, r0, sp, asr r8
 b54:	0001e400 	andeq	lr, r1, r0, lsl #8
 b58:	7d000200 	sfmvc	f0, 4, [r0]
 b5c:	00000020 	andeq	r0, r0, r0, lsr #32
 b60:	00000000 	andeq	r0, r0, r0
 b64:	00001400 	andeq	r1, r0, r0, lsl #8
 b68:	00003000 	andeq	r3, r0, r0
 b6c:	50000100 	andpl	r0, r0, r0, lsl #2
 b70:	00000030 	andeq	r0, r0, r0, lsr r0
 b74:	000001e4 	andeq	r0, r0, r4, ror #3
 b78:	005b0001 	subeqs	r0, fp, r1
 b7c:	00000000 	andeq	r0, r0, r0
 b80:	14000000 	strne	r0, [r0]
 b84:	30000000 	andcc	r0, r0, r0
 b88:	01000000 	tsteq	r0, r0
 b8c:	00305100 	eoreqs	r5, r0, r0, lsl #2
 b90:	01e40000 	mvneq	r0, r0
 b94:	00010000 	andeq	r0, r1, r0
 b98:	00000059 	andeq	r0, r0, r9, asr r0
 b9c:	00000000 	andeq	r0, r0, r0
 ba0:	00008000 	andeq	r8, r0, r0
 ba4:	0000cc00 	andeq	ip, r0, r0, lsl #24
 ba8:	50000100 	andpl	r0, r0, r0, lsl #2
	...
 bb4:	0000008c 	andeq	r0, r0, ip, lsl #1
 bb8:	00000098 	muleq	r0, r8, r0
 bbc:	00530001 	subeqs	r0, r3, r1
	...
 bc8:	04000000 	streq	r0, [r0]
 bcc:	01000000 	tsteq	r0, r0
 bd0:	00005000 	andeq	r5, r0, r0
 bd4:	00000000 	andeq	r0, r0, r0
 bd8:	003c0000 	eoreqs	r0, ip, r0
 bdc:	00540000 	subeqs	r0, r4, r0
 be0:	00010000 	andeq	r0, r1, r0
 be4:	00000050 	andeq	r0, r0, r0, asr r0
 be8:	00000000 	andeq	r0, r0, r0
 bec:	00006800 	andeq	r6, r0, r0, lsl #16
 bf0:	00006c00 	andeq	r6, r0, r0, lsl #24
 bf4:	5d000100 	stfpls	f0, [r0]
 bf8:	0000006c 	andeq	r0, r0, ip, rrx
 bfc:	00000120 	andeq	r0, r0, r0, lsr #2
 c00:	087d0002 	ldmeqda	sp!, {r1}^
	...
 c0c:	00000068 	andeq	r0, r0, r8, rrx
 c10:	00000074 	andeq	r0, r0, r4, ror r0
 c14:	74500001 	ldrvcb	r0, [r0], #-1
 c18:	20000000 	andcs	r0, r0, r0
 c1c:	01000001 	tsteq	r0, r1
 c20:	00005400 	andeq	r5, r0, r0, lsl #8
 c24:	00000000 	andeq	r0, r0, r0
 c28:	00680000 	rsbeq	r0, r8, r0
 c2c:	00780000 	rsbeqs	r0, r8, r0
 c30:	00010000 	andeq	r0, r1, r0
 c34:	00000051 	andeq	r0, r0, r1, asr r0
 c38:	00000000 	andeq	r0, r0, r0
 c3c:	00012000 	andeq	r2, r1, r0
 c40:	00012400 	andeq	r2, r1, r0, lsl #8
 c44:	5d000100 	stfpls	f0, [r0]
 c48:	00000124 	andeq	r0, r0, r4, lsr #2
 c4c:	000001cc 	andeq	r0, r0, ip, asr #3
 c50:	107d0002 	rsbnes	r0, sp, r2
	...
 c5c:	000001cc 	andeq	r0, r0, ip, asr #3
 c60:	000001d0 	ldreqd	r0, [r0], -r0
 c64:	d05d0001 	subles	r0, sp, r1
 c68:	50000001 	andpl	r0, r0, r1
 c6c:	02000002 	andeq	r0, r0, #2	; 0x2
 c70:	00087d00 	andeq	r7, r8, r0, lsl #26
 c74:	00000000 	andeq	r0, r0, r0
 c78:	50000000 	andpl	r0, r0, r0
 c7c:	54000002 	strpl	r0, [r0], #-2
 c80:	01000002 	tsteq	r0, r2
 c84:	02545d00 	subeqs	r5, r4, #0	; 0x0
 c88:	03280000 	teqeq	r8, #0	; 0x0
 c8c:	00020000 	andeq	r0, r2, r0
 c90:	0000107d 	andeq	r1, r0, sp, ror r0
 c94:	00000000 	andeq	r0, r0, r0
 c98:	00740000 	rsbeqs	r0, r4, r0
 c9c:	007c0000 	rsbeqs	r0, ip, r0
 ca0:	00010000 	andeq	r0, r1, r0
 ca4:	00007c5d 	andeq	r7, r0, sp, asr ip
 ca8:	00010400 	andeq	r0, r1, r0, lsl #8
 cac:	7d000200 	sfmvc	f0, 4, [r0]
 cb0:	00000014 	andeq	r0, r0, r4, lsl r0
 cb4:	00000000 	andeq	r0, r0, r0
 cb8:	00007400 	andeq	r7, r0, r0, lsl #8
 cbc:	00009000 	andeq	r9, r0, r0
 cc0:	50000100 	andpl	r0, r0, r0, lsl #2
 cc4:	00000090 	muleq	r0, r0, r0
 cc8:	00000098 	muleq	r0, r8, r0
 ccc:	98540001 	ldmlsda	r4, {r0}^
 cd0:	9c000000 	stcls	0, cr0, [r0], {0}
 cd4:	01000000 	tsteq	r0, r0
 cd8:	009c5100 	addeqs	r5, ip, r0, lsl #2
 cdc:	00b80000 	adceqs	r0, r8, r0
 ce0:	00010000 	andeq	r0, r1, r0
 ce4:	0000b854 	andeq	fp, r0, r4, asr r8
 ce8:	0000c800 	andeq	ip, r0, r0, lsl #16
 cec:	55000100 	strpl	r0, [r0, #-256]
 cf0:	000000c8 	andeq	r0, r0, r8, asr #1
 cf4:	00000104 	andeq	r0, r0, r4, lsl #2
 cf8:	00540001 	subeqs	r0, r4, r1
 cfc:	00000000 	andeq	r0, r0, r0
 d00:	bc000000 	stclt	0, cr0, [r0], {0}
 d04:	c0000000 	andgt	r0, r0, r0
 d08:	01000000 	tsteq	r0, r0
 d0c:	00d85000 	sbceqs	r5, r8, r0
 d10:	00ec0000 	rsceq	r0, ip, r0
 d14:	00010000 	andeq	r0, r1, r0
 d18:	00000050 	andeq	r0, r0, r0, asr r0
 d1c:	00000000 	andeq	r0, r0, r0
 d20:	00010400 	andeq	r0, r1, r0, lsl #8
 d24:	00010c00 	andeq	r0, r1, r0, lsl #24
 d28:	5d000100 	stfpls	f0, [r0]
 d2c:	0000010c 	andeq	r0, r0, ip, lsl #2
 d30:	0000017c 	andeq	r0, r0, ip, ror r1
 d34:	147d0002 	ldrnebt	r0, [sp], #-2
	...
 d40:	00000104 	andeq	r0, r0, r4, lsl #2
 d44:	00000128 	andeq	r0, r0, r8, lsr #2
 d48:	28500001 	ldmcsda	r0, {r0}^
 d4c:	7c000001 	stcvc	0, cr0, [r0], {1}
 d50:	01000001 	tsteq	r0, r1
 d54:	00005700 	andeq	r5, r0, r0, lsl #14
 d58:	00000000 	andeq	r0, r0, r0
 d5c:	01040000 	tsteq	r4, r0
 d60:	01300000 	teqeq	r0, r0
 d64:	00010000 	andeq	r0, r1, r0
 d68:	00013051 	andeq	r3, r1, r1, asr r0
 d6c:	00017c00 	andeq	r7, r1, r0, lsl #24
 d70:	55000100 	strpl	r0, [r0, #-256]
	...
 d80:	00000004 	andeq	r0, r0, r4
 d84:	045d0001 	ldreqb	r0, [sp], #-1
 d88:	40000000 	andmi	r0, r0, r0
 d8c:	02000002 	andeq	r0, r0, #2	; 0x2
 d90:	00187d00 	andeqs	r7, r8, r0, lsl #26
	...
 d9c:	24000000 	strcs	r0, [r0]
 da0:	01000000 	tsteq	r0, r0
 da4:	00245000 	eoreq	r5, r4, r0
 da8:	01280000 	teqeq	r8, r0
 dac:	00010000 	andeq	r0, r1, r0
 db0:	0001ac56 	andeq	sl, r1, r6, asr ip
 db4:	00024000 	andeq	r4, r2, r0
 db8:	56000100 	strpl	r0, [r0], -r0, lsl #2
	...
 dc4:	0000000c 	andeq	r0, r0, ip
 dc8:	00000010 	andeq	r0, r0, r0, lsl r0
 dcc:	00530001 	subeqs	r0, r3, r1
 dd0:	00000000 	andeq	r0, r0, r0
 dd4:	94000000 	strls	r0, [r0]
 dd8:	98000000 	stmlsda	r0, {}
 ddc:	01000000 	tsteq	r0, r0
 de0:	00985300 	addeqs	r5, r8, r0, lsl #6
 de4:	00a40000 	adceq	r0, r4, r0
 de8:	00010000 	andeq	r0, r1, r0
 dec:	00000053 	andeq	r0, r0, r3, asr r0
 df0:	00000000 	andeq	r0, r0, r0
 df4:	0000d800 	andeq	sp, r0, r0, lsl #16
 df8:	0000dc00 	andeq	sp, r0, r0, lsl #24
 dfc:	53000100 	movwpl	r0, #256	; 0x100
 e00:	000000dc 	ldreqd	r0, [r0], -ip
 e04:	000000e8 	andeq	r0, r0, r8, ror #1
 e08:	00530001 	subeqs	r0, r3, r1
 e0c:	00000000 	andeq	r0, r0, r0
 e10:	3c000000 	stccc	0, cr0, [r0], {0}
 e14:	b0000001 	andlt	r0, r0, r1
 e18:	01000001 	tsteq	r0, r1
 e1c:	00005400 	andeq	r5, r0, r0, lsl #8
 e20:	00000000 	andeq	r0, r0, r0
 e24:	01f40000 	mvneqs	r0, r0
 e28:	01f80000 	mvneqs	r0, r0
 e2c:	00010000 	andeq	r0, r1, r0
 e30:	0001f853 	andeq	pc, r1, r3, asr r8
 e34:	00024000 	andeq	r4, r2, r0
 e38:	53000100 	movwpl	r0, #256	; 0x100
	...
 e44:	00000240 	andeq	r0, r0, r0, asr #4
 e48:	00000244 	andeq	r0, r0, r4, asr #4
 e4c:	445d0001 	ldrmib	r0, [sp], #-1
 e50:	b4000002 	strlt	r0, [r0], #-2
 e54:	02000002 	andeq	r0, r0, #2	; 0x2
 e58:	000c7d00 	andeq	r7, ip, r0, lsl #26
 e5c:	00000000 	andeq	r0, r0, r0
 e60:	48000000 	stmmida	r0, {}
 e64:	4c000002 	stcmi	0, cr0, [r0], {2}
 e68:	01000002 	tsteq	r0, r2
 e6c:	00005300 	andeq	r5, r0, r0, lsl #6
 e70:	00000000 	andeq	r0, r0, r0
 e74:	02980000 	addeqs	r0, r8, #0	; 0x0
 e78:	029c0000 	addeqs	r0, ip, #0	; 0x0
 e7c:	00010000 	andeq	r0, r1, r0
 e80:	00000053 	andeq	r0, r0, r3, asr r0
 e84:	00000000 	andeq	r0, r0, r0
 e88:	0002b400 	andeq	fp, r2, r0, lsl #8
 e8c:	0002b800 	andeq	fp, r2, r0, lsl #16
 e90:	5d000100 	stfpls	f0, [r0]
 e94:	000002b8 	streqh	r0, [r0], -r8
 e98:	000003b8 	streqh	r0, [r0], -r8
 e9c:	147d0002 	ldrnebt	r0, [sp], #-2
	...
 ea8:	000002bc 	streqh	r0, [r0], -ip
 eac:	000002c0 	andeq	r0, r0, r0, asr #5
 eb0:	00530001 	subeqs	r0, r3, r1
 eb4:	00000000 	andeq	r0, r0, r0
 eb8:	04000000 	streq	r0, [r0]
 ebc:	08000003 	stmeqda	r0, {r0, r1}
 ec0:	01000003 	tsteq	r0, r3
 ec4:	00005300 	andeq	r5, r0, r0, lsl #6
 ec8:	00000000 	andeq	r0, r0, r0
 ecc:	03680000 	cmneq	r8, #0	; 0x0
 ed0:	036c0000 	cmneq	ip, #0	; 0x0
 ed4:	00010000 	andeq	r0, r1, r0
 ed8:	00000053 	andeq	r0, r0, r3, asr r0
 edc:	00000000 	andeq	r0, r0, r0
 ee0:	0003b800 	andeq	fp, r3, r0, lsl #16
 ee4:	0003bc00 	andeq	fp, r3, r0, lsl #24
 ee8:	5d000100 	stfpls	f0, [r0]
 eec:	000003bc 	streqh	r0, [r0], -ip
 ef0:	00000610 	andeq	r0, r0, r0, lsl r6
 ef4:	147d0002 	ldrnebt	r0, [sp], #-2
	...
 f00:	000003b8 	streqh	r0, [r0], -r8
 f04:	000003dc 	ldreqd	r0, [r0], -ip
 f08:	dc500001 	mrrcle	0, 0, r0, r0, cr1
 f0c:	88000003 	stmhida	r0, {r0, r1}
 f10:	01000004 	tsteq	r0, r4
 f14:	04885500 	streq	r5, [r8], #1280
 f18:	04900000 	ldreq	r0, [r0]
 f1c:	00010000 	andeq	r0, r1, r0
 f20:	00054850 	andeq	r4, r5, r0, asr r8
 f24:	00061000 	andeq	r1, r6, r0
 f28:	55000100 	strpl	r0, [r0, #-256]
	...
 f34:	000003c4 	andeq	r0, r0, r4, asr #7
 f38:	000003c8 	andeq	r0, r0, r8, asr #7
 f3c:	00530001 	subeqs	r0, r3, r1
 f40:	00000000 	andeq	r0, r0, r0
 f44:	4c000000 	stcmi	0, cr0, [r0], {0}
 f48:	50000004 	andpl	r0, r0, r4
 f4c:	01000004 	tsteq	r0, r4
 f50:	00005300 	andeq	r5, r0, r0, lsl #6
 f54:	00000000 	andeq	r0, r0, r0
 f58:	04b00000 	ldreqt	r0, [r0]
 f5c:	04b40000 	ldreqt	r0, [r4]
 f60:	00010000 	andeq	r0, r1, r0
 f64:	00000053 	andeq	r0, r0, r3, asr r0
 f68:	00000000 	andeq	r0, r0, r0
 f6c:	0004c400 	andeq	ip, r4, r0, lsl #8
 f70:	00054800 	andeq	r4, r5, r0, lsl #16
 f74:	54000100 	strpl	r0, [r0], #-256
 f78:	000005bc 	streqh	r0, [r0], -ip
 f7c:	00000610 	andeq	r0, r0, r0, lsl r6
 f80:	00540001 	subeqs	r0, r4, r1
 f84:	00000000 	andeq	r0, r0, r0
 f88:	c0000000 	andgt	r0, r0, r0
 f8c:	c4000005 	strgt	r0, [r0], #-5
 f90:	01000005 	tsteq	r0, r5
 f94:	05c45300 	streqb	r5, [r4, #768]
 f98:	06100000 	ldreq	r0, [r0], -r0
 f9c:	00010000 	andeq	r0, r1, r0
 fa0:	00000053 	andeq	r0, r0, r3, asr r0
 fa4:	00000000 	andeq	r0, r0, r0
	...
Disassembly of section .debug_ranges:

00000000 <.debug_ranges>:
   0:	00000074 	andeq	r0, r0, r4, ror r0
   4:	00000078 	andeq	r0, r0, r8, ror r0
   8:	0000007c 	andeq	r0, r0, ip, ror r0
   c:	00000084 	andeq	r0, r0, r4, lsl #1
	...
  18:	00000078 	andeq	r0, r0, r8, ror r0
  1c:	0000007c 	andeq	r0, r0, ip, ror r0
  20:	00000090 	muleq	r0, r0, r0
  24:	00000094 	muleq	r0, r4, r0
  28:	00000088 	andeq	r0, r0, r8, lsl #1
  2c:	0000008c 	andeq	r0, r0, ip, lsl #1
	...
  38:	00000084 	andeq	r0, r0, r4, lsl #1
  3c:	00000088 	andeq	r0, r0, r8, lsl #1
  40:	0000008c 	andeq	r0, r0, ip, lsl #1
  44:	00000090 	muleq	r0, r0, r0
	...
  50:	00000094 	muleq	r0, r4, r0
  54:	00000098 	muleq	r0, r8, r0
  58:	0000009c 	muleq	r0, ip, r0
  5c:	000000a0 	andeq	r0, r0, r0, lsr #1
	...
  6c:	00000004 	andeq	r0, r0, r4
  70:	00000008 	andeq	r0, r0, r8
  74:	0000000c 	andeq	r0, r0, ip
	...
